
main:     file format elf32-tradlittlemips


Disassembly of section .text:

a0800200 <_start>:
a0800200:	27bdffe8 	addiu	sp,sp,-24
a0800204:	afbf0014 	sw	ra,20(sp)
a0800208:	afbe0010 	sw	s8,16(sp)
a080020c:	03a0f021 	move	s8,sp
a0800210:	0c2000ac 	jal	a08002b0 <asm_start>
a0800214:	00000000 	nop
a0800218:	0c2008c9 	jal	a0802324 <init_exception>
a080021c:	00000000 	nop
a0800220:	3c02a081 	lui	v0,0xa081
a0800224:	2444cd30 	addiu	a0,v0,-13008
a0800228:	0c201981 	jal	a0806604 <printk>
a080022c:	00000000 	nop
a0800230:	0c2007dc 	jal	a0801f70 <init_memory>
a0800234:	00000000 	nop
a0800238:	3c02a081 	lui	v0,0xa081
a080023c:	2444cd6c 	addiu	a0,v0,-12948
a0800240:	0c201981 	jal	a0806604 <printk>
a0800244:	00000000 	nop
a0800248:	0c2008f9 	jal	a08023e4 <init_syscall>
a080024c:	00000000 	nop
a0800250:	3c02a081 	lui	v0,0xa081
a0800254:	2444cda0 	addiu	a0,v0,-12896
a0800258:	0c201981 	jal	a0806604 <printk>
a080025c:	00000000 	nop
a0800260:	0c2008af 	jal	a08022bc <init_queue>
a0800264:	00000000 	nop
a0800268:	0c2007e4 	jal	a0801f90 <init_pcb>
a080026c:	00000000 	nop
a0800270:	3c02a081 	lui	v0,0xa081
a0800274:	2444cdd0 	addiu	a0,v0,-12848
a0800278:	0c201981 	jal	a0806604 <printk>
a080027c:	00000000 	nop
a0800280:	0c2003b1 	jal	a0800ec4 <init_screen>
a0800284:	00000000 	nop
a0800288:	3c02a081 	lui	v0,0xa081
a080028c:	2444cdf8 	addiu	a0,v0,-12808
a0800290:	0c201981 	jal	a0806604 <printk>
a0800294:	00000000 	nop
a0800298:	0c2000c2 	jal	a0800308 <open_all_interrupt>
a080029c:	00000000 	nop
a08002a0:	082000a8 	j	a08002a0 <_start+0xa0>
a08002a4:	00000000 	nop
	...

a08002b0 <asm_start>:
a08002b0:	40806000 	mtc0	zero,c0_sr
a08002b4:	00000000 	nop
a08002b8:	40809000 	mtc0	zero,c0_watchlo
a08002bc:	00000000 	nop
a08002c0:	40809800 	mtc0	zero,c0_watchhi
a08002c4:	00000000 	nop
a08002c8:	40088000 	mfc0	t0,c0_config
a08002cc:	2401fff8 	li	at,-8
a08002d0:	01014024 	and	t0,t0,at
a08002d4:	35080002 	ori	t0,t0,0x2
a08002d8:	40888000 	mtc0	t0,c0_config
a08002dc:	03e00008 	jr	ra
a08002e0:	00000000 	nop

a08002e4 <get_cp0_status>:
a08002e4:	40026000 	mfc0	v0,c0_sr
a08002e8:	03e00008 	jr	ra
a08002ec:	00000000 	nop

a08002f0 <disable_all_interrupt>:
a08002f0:	401a6000 	mfc0	k0,c0_sr
a08002f4:	241bfffe 	li	k1,-2
a08002f8:	035bd024 	and	k0,k0,k1
a08002fc:	409a6000 	mtc0	k0,c0_sr
a0800300:	03e00008 	jr	ra
a0800304:	00000000 	nop

a0800308 <open_all_interrupt>:
a0800308:	401a6000 	mfc0	k0,c0_sr
a080030c:	00000000 	nop
a0800310:	375a0001 	ori	k0,k0,0x1
a0800314:	409a6000 	mtc0	k0,c0_sr
a0800318:	03e00008 	jr	ra
a080031c:	00000000 	nop

a0800320 <reset_timer>:
a0800320:	40804800 	mtc0	zero,c0_count
a0800324:	3c1a0002 	lui	k0,0x2
a0800328:	375a49f0 	ori	k0,k0,0x49f0
a080032c:	409a5800 	mtc0	k0,c0_compare
a0800330:	03e00008 	jr	ra
a0800334:	00000000 	nop

a0800338 <set_cp0_status>:
a0800338:	40846000 	mtc0	a0,c0_sr
a080033c:	03e00008 	jr	ra
a0800340:	00000000 	nop

a0800344 <get_count>:
a0800344:	40024800 	mfc0	v0,c0_count
a0800348:	03e00008 	jr	ra
a080034c:	00000000 	nop

a0800350 <get_compare>:
a0800350:	40025800 	mfc0	v0,c0_compare
a0800354:	03e00008 	jr	ra
a0800358:	00000000 	nop

a080035c <get_cp0_context>:
a080035c:	40022000 	mfc0	v0,c0_context
a0800360:	03e00008 	jr	ra
a0800364:	00000000 	nop

a0800368 <get_cp0_entryhi>:
a0800368:	40025000 	mfc0	v0,c0_entryhi
a080036c:	03e00008 	jr	ra
a0800370:	00000000 	nop

a0800374 <set_cp0_entryhi>:
a0800374:	40845000 	mtc0	a0,c0_entryhi
a0800378:	03e00008 	jr	ra
a080037c:	00000000 	nop

a0800380 <get_cp0_index>:
a0800380:	40020000 	mfc0	v0,c0_index
a0800384:	03e00008 	jr	ra
a0800388:	00000000 	nop

a080038c <set_cp0_index>:
a080038c:	40840000 	mtc0	a0,c0_index
a0800390:	03e00008 	jr	ra
a0800394:	00000000 	nop

a0800398 <get_cp0_badvaddr>:
a0800398:	40024000 	mfc0	v0,c0_badvaddr
a080039c:	03e00008 	jr	ra
a08003a0:	00000000 	nop

a08003a4 <get_cp0_entrylo0>:
a08003a4:	40021000 	mfc0	v0,c0_entrylo0
a08003a8:	03e00008 	jr	ra
a08003ac:	00000000 	nop

a08003b0 <set_cp0_entrylo0>:
a08003b0:	40841000 	mtc0	a0,c0_entrylo0
a08003b4:	03e00008 	jr	ra
a08003b8:	00000000 	nop

a08003bc <get_cp0_entrylo1>:
a08003bc:	40021800 	mfc0	v0,c0_entrylo1
a08003c0:	03e00008 	jr	ra
a08003c4:	00000000 	nop

a08003c8 <set_cp0_entrylo1>:
a08003c8:	40841800 	mtc0	a0,c0_entrylo1
a08003cc:	03e00008 	jr	ra
a08003d0:	00000000 	nop

a08003d4 <set_cp0_pagemask>:
a08003d4:	40842800 	mtc0	a0,c0_pagemask
a08003d8:	03e00008 	jr	ra
a08003dc:	00000000 	nop

a08003e0 <do_scheduler>:
a08003e0:	3c1aa081 	lui	k0,0xa081
a08003e4:	8f5ad940 	lw	k0,-9920(k0)
a08003e8:	275a0000 	addiu	k0,k0,0
a08003ec:	af410004 	sw	at,4(k0)
a08003f0:	af420008 	sw	v0,8(k0)
a08003f4:	af43000c 	sw	v1,12(k0)
a08003f8:	af440010 	sw	a0,16(k0)
a08003fc:	af450014 	sw	a1,20(k0)
a0800400:	af460018 	sw	a2,24(k0)
a0800404:	af47001c 	sw	a3,28(k0)
a0800408:	af480020 	sw	t0,32(k0)
a080040c:	af490024 	sw	t1,36(k0)
a0800410:	af4a0028 	sw	t2,40(k0)
a0800414:	af4b002c 	sw	t3,44(k0)
a0800418:	af4c0030 	sw	t4,48(k0)
a080041c:	af4d0034 	sw	t5,52(k0)
a0800420:	af4e0038 	sw	t6,56(k0)
a0800424:	af4f003c 	sw	t7,60(k0)
a0800428:	af500040 	sw	s0,64(k0)
a080042c:	af510044 	sw	s1,68(k0)
a0800430:	af520048 	sw	s2,72(k0)
a0800434:	af53004c 	sw	s3,76(k0)
a0800438:	af540050 	sw	s4,80(k0)
a080043c:	af550054 	sw	s5,84(k0)
a0800440:	af560058 	sw	s6,88(k0)
a0800444:	af57005c 	sw	s7,92(k0)
a0800448:	af580060 	sw	t8,96(k0)
a080044c:	af590064 	sw	t9,100(k0)
a0800450:	af5c0070 	sw	gp,112(k0)
a0800454:	af5d0074 	sw	sp,116(k0)
a0800458:	af5e0078 	sw	s8,120(k0)
a080045c:	af5f007c 	sw	ra,124(k0)
a0800460:	401b6000 	mfc0	k1,c0_sr
a0800464:	00000000 	nop
a0800468:	af5b0080 	sw	k1,128(k0)
a080046c:	0000d810 	mfhi	k1
a0800470:	af5b0084 	sw	k1,132(k0)
a0800474:	0000d812 	mflo	k1
a0800478:	af5b0088 	sw	k1,136(k0)
a080047c:	401b4000 	mfc0	k1,c0_badvaddr
a0800480:	00000000 	nop
a0800484:	af5b008c 	sw	k1,140(k0)
a0800488:	401b6800 	mfc0	k1,c0_cause
a080048c:	00000000 	nop
a0800490:	af5b0090 	sw	k1,144(k0)
a0800494:	401b7000 	mfc0	k1,c0_epc
a0800498:	00000000 	nop
a080049c:	0c200da7 	jal	a080369c <scheduler>
a08004a0:	af5b0094 	sw	k1,148(k0)
a08004a4:	3c1aa081 	lui	k0,0xa081
a08004a8:	8f5ad940 	lw	k0,-9920(k0)
a08004ac:	275a0000 	addiu	k0,k0,0
a08004b0:	8f410004 	lw	at,4(k0)
a08004b4:	8f420008 	lw	v0,8(k0)
a08004b8:	8f43000c 	lw	v1,12(k0)
a08004bc:	8f440010 	lw	a0,16(k0)
a08004c0:	8f450014 	lw	a1,20(k0)
a08004c4:	8f460018 	lw	a2,24(k0)
a08004c8:	8f47001c 	lw	a3,28(k0)
a08004cc:	8f480020 	lw	t0,32(k0)
a08004d0:	8f490024 	lw	t1,36(k0)
a08004d4:	8f4a0028 	lw	t2,40(k0)
a08004d8:	8f4b002c 	lw	t3,44(k0)
a08004dc:	8f4c0030 	lw	t4,48(k0)
a08004e0:	8f4d0034 	lw	t5,52(k0)
a08004e4:	8f4e0038 	lw	t6,56(k0)
a08004e8:	8f4f003c 	lw	t7,60(k0)
a08004ec:	8f500040 	lw	s0,64(k0)
a08004f0:	8f510044 	lw	s1,68(k0)
a08004f4:	8f520048 	lw	s2,72(k0)
a08004f8:	8f53004c 	lw	s3,76(k0)
a08004fc:	8f540050 	lw	s4,80(k0)
a0800500:	8f550054 	lw	s5,84(k0)
a0800504:	8f560058 	lw	s6,88(k0)
a0800508:	8f57005c 	lw	s7,92(k0)
a080050c:	8f580060 	lw	t8,96(k0)
a0800510:	8f590064 	lw	t9,100(k0)
a0800514:	8f5c0070 	lw	gp,112(k0)
a0800518:	8f5d0074 	lw	sp,116(k0)
a080051c:	8f5e0078 	lw	s8,120(k0)
a0800520:	8f5f007c 	lw	ra,124(k0)
a0800524:	8f5b0080 	lw	k1,128(k0)
a0800528:	409b6000 	mtc0	k1,c0_sr
a080052c:	8f5b0084 	lw	k1,132(k0)
a0800530:	03600011 	mthi	k1
a0800534:	8f5b0088 	lw	k1,136(k0)
a0800538:	03600013 	mtlo	k1
a080053c:	8f5b008c 	lw	k1,140(k0)
a0800540:	409b4000 	mtc0	k1,c0_badvaddr
a0800544:	8f5b0090 	lw	k1,144(k0)
a0800548:	409b6800 	mtc0	k1,c0_cause
a080054c:	8f5b0094 	lw	k1,148(k0)
a0800550:	409b7000 	mtc0	k1,c0_epc
a0800554:	03e00008 	jr	ra
a0800558:	00000000 	nop

a080055c <TLBexception_handler_entry>:
a080055c:	08200159 	j	a0800564 <exception_handler_entry>
a0800560:	00000000 	nop

a0800564 <exception_handler_entry>:
a0800564:	401a6000 	mfc0	k0,c0_sr
a0800568:	241bfffe 	li	k1,-2
a080056c:	035bd024 	and	k0,k0,k1
a0800570:	409a6000 	mtc0	k0,c0_sr
a0800574:	3c1aa081 	lui	k0,0xa081
a0800578:	8f5ad940 	lw	k0,-9920(k0)
a080057c:	275a009c 	addiu	k0,k0,156
a0800580:	af410004 	sw	at,4(k0)
a0800584:	af420008 	sw	v0,8(k0)
a0800588:	af43000c 	sw	v1,12(k0)
a080058c:	af440010 	sw	a0,16(k0)
a0800590:	af450014 	sw	a1,20(k0)
a0800594:	af460018 	sw	a2,24(k0)
a0800598:	af47001c 	sw	a3,28(k0)
a080059c:	af480020 	sw	t0,32(k0)
a08005a0:	af490024 	sw	t1,36(k0)
a08005a4:	af4a0028 	sw	t2,40(k0)
a08005a8:	af4b002c 	sw	t3,44(k0)
a08005ac:	af4c0030 	sw	t4,48(k0)
a08005b0:	af4d0034 	sw	t5,52(k0)
a08005b4:	af4e0038 	sw	t6,56(k0)
a08005b8:	af4f003c 	sw	t7,60(k0)
a08005bc:	af500040 	sw	s0,64(k0)
a08005c0:	af510044 	sw	s1,68(k0)
a08005c4:	af520048 	sw	s2,72(k0)
a08005c8:	af53004c 	sw	s3,76(k0)
a08005cc:	af540050 	sw	s4,80(k0)
a08005d0:	af550054 	sw	s5,84(k0)
a08005d4:	af560058 	sw	s6,88(k0)
a08005d8:	af57005c 	sw	s7,92(k0)
a08005dc:	af580060 	sw	t8,96(k0)
a08005e0:	af590064 	sw	t9,100(k0)
a08005e4:	af5c0070 	sw	gp,112(k0)
a08005e8:	af5d0074 	sw	sp,116(k0)
a08005ec:	af5e0078 	sw	s8,120(k0)
a08005f0:	af5f007c 	sw	ra,124(k0)
a08005f4:	401b6000 	mfc0	k1,c0_sr
a08005f8:	00000000 	nop
a08005fc:	af5b0080 	sw	k1,128(k0)
a0800600:	0000d810 	mfhi	k1
a0800604:	af5b0084 	sw	k1,132(k0)
a0800608:	0000d812 	mflo	k1
a080060c:	af5b0088 	sw	k1,136(k0)
a0800610:	401b4000 	mfc0	k1,c0_badvaddr
a0800614:	00000000 	nop
a0800618:	af5b008c 	sw	k1,140(k0)
a080061c:	401b6800 	mfc0	k1,c0_cause
a0800620:	00000000 	nop
a0800624:	af5b0090 	sw	k1,144(k0)
a0800628:	401b7000 	mfc0	k1,c0_epc
a080062c:	00000000 	nop
a0800630:	af5b0094 	sw	k1,148(k0)
a0800634:	3c1aa081 	lui	k0,0xa081
a0800638:	8f5ad940 	lw	k0,-9920(k0)
a080063c:	8f5d0138 	lw	sp,312(k0)
a0800640:	401a6800 	mfc0	k0,c0_cause
a0800644:	00000000 	nop
a0800648:	335a007c 	andi	k0,k0,0x7c

a080064c <LABEL_INTERRUPT>:
a080064c:	037bd826 	xor	k1,k1,k1
a0800650:	175b0007 	bne	k0,k1,a0800670 <LABEL_MOD>
a0800654:	00000000 	nop
a0800658:	00000000 	nop
a080065c:	3c1ba080 	lui	k1,0xa080
a0800660:	277b0714 	addiu	k1,k1,1812
a0800664:	03600008 	jr	k1
a0800668:	00000000 	nop
a080066c:	00000000 	nop

a0800670 <LABEL_MOD>:
a0800670:	241b0004 	li	k1,4
a0800674:	175b0007 	bne	k0,k1,a0800694 <LABEL_TLBL>
a0800678:	00000000 	nop
a080067c:	00000000 	nop
a0800680:	3c1ba080 	lui	k1,0xa080
a0800684:	277b0804 	addiu	k1,k1,2052
a0800688:	03600008 	jr	k1
a080068c:	00000000 	nop
a0800690:	00000000 	nop

a0800694 <LABEL_TLBL>:
a0800694:	241b0008 	li	k1,8
a0800698:	175b0007 	bne	k0,k1,a08006b8 <LABEL_TLBS>
a080069c:	00000000 	nop
a08006a0:	00000000 	nop
a08006a4:	3c1ba080 	lui	k1,0xa080
a08006a8:	277b0804 	addiu	k1,k1,2052
a08006ac:	03600008 	jr	k1
a08006b0:	00000000 	nop
a08006b4:	00000000 	nop

a08006b8 <LABEL_TLBS>:
a08006b8:	241b000c 	li	k1,12
a08006bc:	175b0007 	bne	k0,k1,a08006dc <LABEL_SYSCALL>
a08006c0:	00000000 	nop
a08006c4:	00000000 	nop
a08006c8:	3c1ba080 	lui	k1,0xa080
a08006cc:	277b0804 	addiu	k1,k1,2052
a08006d0:	03600008 	jr	k1
a08006d4:	00000000 	nop
a08006d8:	00000000 	nop

a08006dc <LABEL_SYSCALL>:
a08006dc:	241b0020 	li	k1,32
a08006e0:	175b0007 	bne	k0,k1,a0800700 <LABEL_OTHER>
a08006e4:	00000000 	nop
a08006e8:	00000000 	nop
a08006ec:	3c1ba080 	lui	k1,0xa080
a08006f0:	277b08e4 	addiu	k1,k1,2276
a08006f4:	03600008 	jr	k1
a08006f8:	00000000 	nop
a08006fc:	00000000 	nop

a0800700 <LABEL_OTHER>:
a0800700:	3c1ba080 	lui	k1,0xa080
a0800704:	277b09bc 	addiu	k1,k1,2492
a0800708:	03600008 	jr	k1
a080070c:	00000000 	nop
a0800710:	00000000 	nop

a0800714 <handle_int>:
a0800714:	40046000 	mfc0	a0,c0_sr
a0800718:	40056800 	mfc0	a1,c0_cause
a080071c:	0c200a03 	jal	a080280c <interrupt_helper>
a0800720:	27bdfff8 	addiu	sp,sp,-8
a0800724:	27bd0008 	addiu	sp,sp,8
a0800728:	40804800 	mtc0	zero,c0_count
a080072c:	3c1a0002 	lui	k0,0x2
a0800730:	375a49f0 	ori	k0,k0,0x49f0
a0800734:	409a5800 	mtc0	k0,c0_compare
a0800738:	3c1aa081 	lui	k0,0xa081
a080073c:	8f5ad940 	lw	k0,-9920(k0)
a0800740:	275a009c 	addiu	k0,k0,156
a0800744:	8f410004 	lw	at,4(k0)
a0800748:	8f420008 	lw	v0,8(k0)
a080074c:	8f43000c 	lw	v1,12(k0)
a0800750:	8f440010 	lw	a0,16(k0)
a0800754:	8f450014 	lw	a1,20(k0)
a0800758:	8f460018 	lw	a2,24(k0)
a080075c:	8f47001c 	lw	a3,28(k0)
a0800760:	8f480020 	lw	t0,32(k0)
a0800764:	8f490024 	lw	t1,36(k0)
a0800768:	8f4a0028 	lw	t2,40(k0)
a080076c:	8f4b002c 	lw	t3,44(k0)
a0800770:	8f4c0030 	lw	t4,48(k0)
a0800774:	8f4d0034 	lw	t5,52(k0)
a0800778:	8f4e0038 	lw	t6,56(k0)
a080077c:	8f4f003c 	lw	t7,60(k0)
a0800780:	8f500040 	lw	s0,64(k0)
a0800784:	8f510044 	lw	s1,68(k0)
a0800788:	8f520048 	lw	s2,72(k0)
a080078c:	8f53004c 	lw	s3,76(k0)
a0800790:	8f540050 	lw	s4,80(k0)
a0800794:	8f550054 	lw	s5,84(k0)
a0800798:	8f560058 	lw	s6,88(k0)
a080079c:	8f57005c 	lw	s7,92(k0)
a08007a0:	8f580060 	lw	t8,96(k0)
a08007a4:	8f590064 	lw	t9,100(k0)
a08007a8:	8f5c0070 	lw	gp,112(k0)
a08007ac:	8f5d0074 	lw	sp,116(k0)
a08007b0:	8f5e0078 	lw	s8,120(k0)
a08007b4:	8f5f007c 	lw	ra,124(k0)
a08007b8:	8f5b0080 	lw	k1,128(k0)
a08007bc:	409b6000 	mtc0	k1,c0_sr
a08007c0:	8f5b0084 	lw	k1,132(k0)
a08007c4:	03600011 	mthi	k1
a08007c8:	8f5b0088 	lw	k1,136(k0)
a08007cc:	03600013 	mtlo	k1
a08007d0:	8f5b008c 	lw	k1,140(k0)
a08007d4:	409b4000 	mtc0	k1,c0_badvaddr
a08007d8:	8f5b0090 	lw	k1,144(k0)
a08007dc:	409b6800 	mtc0	k1,c0_cause
a08007e0:	8f5b0094 	lw	k1,148(k0)
a08007e4:	409b7000 	mtc0	k1,c0_epc
a08007e8:	00000000 	nop
a08007ec:	401a6000 	mfc0	k0,c0_sr
a08007f0:	00000000 	nop
a08007f4:	375a0001 	ori	k0,k0,0x1
a08007f8:	409a6000 	mtc0	k0,c0_sr
a08007fc:	42000018 	eret
a0800800:	00000000 	nop

a0800804 <handle_tlb>:
a0800804:	3c1ba080 	lui	k1,0xa080
a0800808:	277b28c4 	addiu	k1,k1,10436
a080080c:	0360f809 	jalr	k1
a0800810:	00000000 	nop
a0800814:	00000000 	nop
a0800818:	3c1aa081 	lui	k0,0xa081
a080081c:	8f5ad940 	lw	k0,-9920(k0)
a0800820:	275a009c 	addiu	k0,k0,156
a0800824:	8f410004 	lw	at,4(k0)
a0800828:	8f420008 	lw	v0,8(k0)
a080082c:	8f43000c 	lw	v1,12(k0)
a0800830:	8f440010 	lw	a0,16(k0)
a0800834:	8f450014 	lw	a1,20(k0)
a0800838:	8f460018 	lw	a2,24(k0)
a080083c:	8f47001c 	lw	a3,28(k0)
a0800840:	8f480020 	lw	t0,32(k0)
a0800844:	8f490024 	lw	t1,36(k0)
a0800848:	8f4a0028 	lw	t2,40(k0)
a080084c:	8f4b002c 	lw	t3,44(k0)
a0800850:	8f4c0030 	lw	t4,48(k0)
a0800854:	8f4d0034 	lw	t5,52(k0)
a0800858:	8f4e0038 	lw	t6,56(k0)
a080085c:	8f4f003c 	lw	t7,60(k0)
a0800860:	8f500040 	lw	s0,64(k0)
a0800864:	8f510044 	lw	s1,68(k0)
a0800868:	8f520048 	lw	s2,72(k0)
a080086c:	8f53004c 	lw	s3,76(k0)
a0800870:	8f540050 	lw	s4,80(k0)
a0800874:	8f550054 	lw	s5,84(k0)
a0800878:	8f560058 	lw	s6,88(k0)
a080087c:	8f57005c 	lw	s7,92(k0)
a0800880:	8f580060 	lw	t8,96(k0)
a0800884:	8f590064 	lw	t9,100(k0)
a0800888:	8f5c0070 	lw	gp,112(k0)
a080088c:	8f5d0074 	lw	sp,116(k0)
a0800890:	8f5e0078 	lw	s8,120(k0)
a0800894:	8f5f007c 	lw	ra,124(k0)
a0800898:	8f5b0080 	lw	k1,128(k0)
a080089c:	409b6000 	mtc0	k1,c0_sr
a08008a0:	8f5b0084 	lw	k1,132(k0)
a08008a4:	03600011 	mthi	k1
a08008a8:	8f5b0088 	lw	k1,136(k0)
a08008ac:	03600013 	mtlo	k1
a08008b0:	8f5b008c 	lw	k1,140(k0)
a08008b4:	409b4000 	mtc0	k1,c0_badvaddr
a08008b8:	8f5b0090 	lw	k1,144(k0)
a08008bc:	409b6800 	mtc0	k1,c0_cause
a08008c0:	8f5b0094 	lw	k1,148(k0)
a08008c4:	409b7000 	mtc0	k1,c0_epc
a08008c8:	00000000 	nop
a08008cc:	401a6000 	mfc0	k0,c0_sr
a08008d0:	00000000 	nop
a08008d4:	375a0001 	ori	k0,k0,0x1
a08008d8:	409a6000 	mtc0	k0,c0_sr
a08008dc:	42000018 	eret
a08008e0:	00000000 	nop

a08008e4 <handle_syscall>:
a08008e4:	0c20130c 	jal	a0804c30 <system_call_helper>
a08008e8:	27bdfff0 	addiu	sp,sp,-16
a08008ec:	27bd0010 	addiu	sp,sp,16
a08008f0:	3c1aa081 	lui	k0,0xa081
a08008f4:	8f5ad940 	lw	k0,-9920(k0)
a08008f8:	275a009c 	addiu	k0,k0,156
a08008fc:	8f410004 	lw	at,4(k0)
a0800900:	8f420008 	lw	v0,8(k0)
a0800904:	8f43000c 	lw	v1,12(k0)
a0800908:	8f440010 	lw	a0,16(k0)
a080090c:	8f450014 	lw	a1,20(k0)
a0800910:	8f460018 	lw	a2,24(k0)
a0800914:	8f47001c 	lw	a3,28(k0)
a0800918:	8f480020 	lw	t0,32(k0)
a080091c:	8f490024 	lw	t1,36(k0)
a0800920:	8f4a0028 	lw	t2,40(k0)
a0800924:	8f4b002c 	lw	t3,44(k0)
a0800928:	8f4c0030 	lw	t4,48(k0)
a080092c:	8f4d0034 	lw	t5,52(k0)
a0800930:	8f4e0038 	lw	t6,56(k0)
a0800934:	8f4f003c 	lw	t7,60(k0)
a0800938:	8f500040 	lw	s0,64(k0)
a080093c:	8f510044 	lw	s1,68(k0)
a0800940:	8f520048 	lw	s2,72(k0)
a0800944:	8f53004c 	lw	s3,76(k0)
a0800948:	8f540050 	lw	s4,80(k0)
a080094c:	8f550054 	lw	s5,84(k0)
a0800950:	8f560058 	lw	s6,88(k0)
a0800954:	8f57005c 	lw	s7,92(k0)
a0800958:	8f580060 	lw	t8,96(k0)
a080095c:	8f590064 	lw	t9,100(k0)
a0800960:	8f5c0070 	lw	gp,112(k0)
a0800964:	8f5d0074 	lw	sp,116(k0)
a0800968:	8f5e0078 	lw	s8,120(k0)
a080096c:	8f5f007c 	lw	ra,124(k0)
a0800970:	8f5b0080 	lw	k1,128(k0)
a0800974:	409b6000 	mtc0	k1,c0_sr
a0800978:	8f5b0084 	lw	k1,132(k0)
a080097c:	03600011 	mthi	k1
a0800980:	8f5b0088 	lw	k1,136(k0)
a0800984:	03600013 	mtlo	k1
a0800988:	8f5b008c 	lw	k1,140(k0)
a080098c:	409b4000 	mtc0	k1,c0_badvaddr
a0800990:	8f5b0090 	lw	k1,144(k0)
a0800994:	409b6800 	mtc0	k1,c0_cause
a0800998:	8f5b0094 	lw	k1,148(k0)
a080099c:	409b7000 	mtc0	k1,c0_epc
a08009a0:	00000000 	nop
a08009a4:	401a6000 	mfc0	k0,c0_sr
a08009a8:	00000000 	nop
a08009ac:	375a0001 	ori	k0,k0,0x1
a08009b0:	409a6000 	mtc0	k0,c0_sr
a08009b4:	42000018 	eret
a08009b8:	00000000 	nop

a08009bc <handle_other>:
a08009bc:	0c200a31 	jal	a08028c4 <other_exception_handler>
a08009c0:	00000000 	nop
	...

a08009d0 <invoke_syscall>:
a08009d0:	0000000c 	syscall
a08009d4:	03e00008 	jr	ra
a08009d8:	00000000 	nop
a08009dc:	00000000 	nop

a08009e0 <port_write_ch>:
a08009e0:	27bdffe0 	addiu	sp,sp,-32
a08009e4:	afbf001c 	sw	ra,28(sp)
a08009e8:	afbe0018 	sw	s8,24(sp)
a08009ec:	03a0f021 	move	s8,sp
a08009f0:	00801021 	move	v0,a0
a08009f4:	a3c20020 	sb	v0,32(s8)
a08009f8:	3c028001 	lui	v0,0x8001
a08009fc:	34421140 	ori	v0,v0,0x1140
a0800a00:	afc20010 	sw	v0,16(s8)
a0800a04:	83c20020 	lb	v0,32(s8)
a0800a08:	8fc30010 	lw	v1,16(s8)
a0800a0c:	00402021 	move	a0,v0
a0800a10:	0060f809 	jalr	v1
a0800a14:	00000000 	nop
a0800a18:	03c0e821 	move	sp,s8
a0800a1c:	8fbf001c 	lw	ra,28(sp)
a0800a20:	8fbe0018 	lw	s8,24(sp)
a0800a24:	27bd0020 	addiu	sp,sp,32
a0800a28:	03e00008 	jr	ra
a0800a2c:	00000000 	nop

a0800a30 <port_write>:
a0800a30:	27bdffe0 	addiu	sp,sp,-32
a0800a34:	afbf001c 	sw	ra,28(sp)
a0800a38:	afbe0018 	sw	s8,24(sp)
a0800a3c:	03a0f021 	move	s8,sp
a0800a40:	afc40020 	sw	a0,32(s8)
a0800a44:	3c028001 	lui	v0,0x8001
a0800a48:	34421100 	ori	v0,v0,0x1100
a0800a4c:	afc20010 	sw	v0,16(s8)
a0800a50:	8fc20010 	lw	v0,16(s8)
a0800a54:	8fc40020 	lw	a0,32(s8)
a0800a58:	0040f809 	jalr	v0
a0800a5c:	00000000 	nop
a0800a60:	03c0e821 	move	sp,s8
a0800a64:	8fbf001c 	lw	ra,28(sp)
a0800a68:	8fbe0018 	lw	s8,24(sp)
a0800a6c:	27bd0020 	addiu	sp,sp,32
a0800a70:	03e00008 	jr	ra
a0800a74:	00000000 	nop
	...

a0800a80 <vt100_move_cursor>:
a0800a80:	27bdffe8 	addiu	sp,sp,-24
a0800a84:	afbf0014 	sw	ra,20(sp)
a0800a88:	afbe0010 	sw	s8,16(sp)
a0800a8c:	03a0f021 	move	s8,sp
a0800a90:	afc40018 	sw	a0,24(s8)
a0800a94:	afc5001c 	sw	a1,28(s8)
a0800a98:	3c02a081 	lui	v0,0xa081
a0800a9c:	2444cc10 	addiu	a0,v0,-13296
a0800aa0:	2405001b 	li	a1,27
a0800aa4:	8fc6001c 	lw	a2,28(s8)
a0800aa8:	8fc70018 	lw	a3,24(s8)
a0800aac:	0c201981 	jal	a0806604 <printk>
a0800ab0:	00000000 	nop
a0800ab4:	03c0e821 	move	sp,s8
a0800ab8:	8fbf0014 	lw	ra,20(sp)
a0800abc:	8fbe0010 	lw	s8,16(sp)
a0800ac0:	27bd0018 	addiu	sp,sp,24
a0800ac4:	03e00008 	jr	ra
a0800ac8:	00000000 	nop

a0800acc <vt100_clear>:
a0800acc:	27bdffe8 	addiu	sp,sp,-24
a0800ad0:	afbf0014 	sw	ra,20(sp)
a0800ad4:	afbe0010 	sw	s8,16(sp)
a0800ad8:	03a0f021 	move	s8,sp
a0800adc:	3c02a081 	lui	v0,0xa081
a0800ae0:	2444cc1c 	addiu	a0,v0,-13284
a0800ae4:	2405001b 	li	a1,27
a0800ae8:	0c201981 	jal	a0806604 <printk>
a0800aec:	00000000 	nop
a0800af0:	03c0e821 	move	sp,s8
a0800af4:	8fbf0014 	lw	ra,20(sp)
a0800af8:	8fbe0010 	lw	s8,16(sp)
a0800afc:	27bd0018 	addiu	sp,sp,24
a0800b00:	03e00008 	jr	ra
a0800b04:	00000000 	nop

a0800b08 <vt100_hidden_cursor>:
a0800b08:	27bdffe8 	addiu	sp,sp,-24
a0800b0c:	afbf0014 	sw	ra,20(sp)
a0800b10:	afbe0010 	sw	s8,16(sp)
a0800b14:	03a0f021 	move	s8,sp
a0800b18:	3c02a081 	lui	v0,0xa081
a0800b1c:	2444cc24 	addiu	a0,v0,-13276
a0800b20:	2405001b 	li	a1,27
a0800b24:	0c201981 	jal	a0806604 <printk>
a0800b28:	00000000 	nop
a0800b2c:	03c0e821 	move	sp,s8
a0800b30:	8fbf0014 	lw	ra,20(sp)
a0800b34:	8fbe0010 	lw	s8,16(sp)
a0800b38:	27bd0018 	addiu	sp,sp,24
a0800b3c:	03e00008 	jr	ra
a0800b40:	00000000 	nop

a0800b44 <screen_scroll>:
a0800b44:	27bdfff0 	addiu	sp,sp,-16
a0800b48:	afbe000c 	sw	s8,12(sp)
a0800b4c:	03a0f021 	move	s8,sp
a0800b50:	afc40010 	sw	a0,16(s8)
a0800b54:	afc50014 	sw	a1,20(s8)
a0800b58:	8fc20010 	lw	v0,16(s8)
a0800b5c:	afc20004 	sw	v0,4(s8)
a0800b60:	082002f1 	j	a0800bc4 <screen_scroll+0x80>
a0800b64:	00000000 	nop
a0800b68:	afc00000 	sw	zero,0(s8)
a0800b6c:	082002ea 	j	a0800ba8 <screen_scroll+0x64>
a0800b70:	00000000 	nop
a0800b74:	8fc20004 	lw	v0,4(s8)
a0800b78:	00021900 	sll	v1,v0,0x4
a0800b7c:	00031080 	sll	v0,v1,0x2
a0800b80:	00621821 	addu	v1,v1,v0
a0800b84:	8fc20000 	lw	v0,0(s8)
a0800b88:	00621821 	addu	v1,v1,v0
a0800b8c:	3c02a081 	lui	v0,0xa081
a0800b90:	2442e5e0 	addiu	v0,v0,-6688
a0800b94:	00621021 	addu	v0,v1,v0
a0800b98:	a0400000 	sb	zero,0(v0)
a0800b9c:	8fc20000 	lw	v0,0(s8)
a0800ba0:	24420001 	addiu	v0,v0,1
a0800ba4:	afc20000 	sw	v0,0(s8)
a0800ba8:	8fc20000 	lw	v0,0(s8)
a0800bac:	28420050 	slti	v0,v0,80
a0800bb0:	1440fff0 	bnez	v0,a0800b74 <screen_scroll+0x30>
a0800bb4:	00000000 	nop
a0800bb8:	8fc20004 	lw	v0,4(s8)
a0800bbc:	24420001 	addiu	v0,v0,1
a0800bc0:	afc20004 	sw	v0,4(s8)
a0800bc4:	8fc20004 	lw	v0,4(s8)
a0800bc8:	8fc30014 	lw	v1,20(s8)
a0800bcc:	0062102a 	slt	v0,v1,v0
a0800bd0:	1040ffe5 	beqz	v0,a0800b68 <screen_scroll+0x24>
a0800bd4:	00000000 	nop
a0800bd8:	8fc20010 	lw	v0,16(s8)
a0800bdc:	afc20004 	sw	v0,4(s8)
a0800be0:	0820032d 	j	a0800cb4 <screen_scroll+0x170>
a0800be4:	00000000 	nop
a0800be8:	afc00000 	sw	zero,0(s8)
a0800bec:	08200326 	j	a0800c98 <screen_scroll+0x154>
a0800bf0:	00000000 	nop
a0800bf4:	8fc30004 	lw	v1,4(s8)
a0800bf8:	8fc20014 	lw	v0,20(s8)
a0800bfc:	1462000e 	bne	v1,v0,a0800c38 <screen_scroll+0xf4>
a0800c00:	00000000 	nop
a0800c04:	8fc20004 	lw	v0,4(s8)
a0800c08:	00021900 	sll	v1,v0,0x4
a0800c0c:	00031080 	sll	v0,v1,0x2
a0800c10:	00621821 	addu	v1,v1,v0
a0800c14:	8fc20000 	lw	v0,0(s8)
a0800c18:	00621821 	addu	v1,v1,v0
a0800c1c:	3c02a081 	lui	v0,0xa081
a0800c20:	2442d960 	addiu	v0,v0,-9888
a0800c24:	00621821 	addu	v1,v1,v0
a0800c28:	24020020 	li	v0,32
a0800c2c:	a0620000 	sb	v0,0(v1)
a0800c30:	08200323 	j	a0800c8c <screen_scroll+0x148>
a0800c34:	00000000 	nop
a0800c38:	8fc20004 	lw	v0,4(s8)
a0800c3c:	00021900 	sll	v1,v0,0x4
a0800c40:	00031080 	sll	v0,v1,0x2
a0800c44:	00621821 	addu	v1,v1,v0
a0800c48:	8fc20000 	lw	v0,0(s8)
a0800c4c:	00622021 	addu	a0,v1,v0
a0800c50:	8fc20004 	lw	v0,4(s8)
a0800c54:	24420001 	addiu	v0,v0,1
a0800c58:	00021900 	sll	v1,v0,0x4
a0800c5c:	00031080 	sll	v0,v1,0x2
a0800c60:	00621821 	addu	v1,v1,v0
a0800c64:	8fc20000 	lw	v0,0(s8)
a0800c68:	00621821 	addu	v1,v1,v0
a0800c6c:	3c02a081 	lui	v0,0xa081
a0800c70:	2442d960 	addiu	v0,v0,-9888
a0800c74:	00621021 	addu	v0,v1,v0
a0800c78:	80430000 	lb	v1,0(v0)
a0800c7c:	3c02a081 	lui	v0,0xa081
a0800c80:	2442d960 	addiu	v0,v0,-9888
a0800c84:	00821021 	addu	v0,a0,v0
a0800c88:	a0430000 	sb	v1,0(v0)
a0800c8c:	8fc20000 	lw	v0,0(s8)
a0800c90:	24420001 	addiu	v0,v0,1
a0800c94:	afc20000 	sw	v0,0(s8)
a0800c98:	8fc20000 	lw	v0,0(s8)
a0800c9c:	28420050 	slti	v0,v0,80
a0800ca0:	1440ffd4 	bnez	v0,a0800bf4 <screen_scroll+0xb0>
a0800ca4:	00000000 	nop
a0800ca8:	8fc20004 	lw	v0,4(s8)
a0800cac:	24420001 	addiu	v0,v0,1
a0800cb0:	afc20004 	sw	v0,4(s8)
a0800cb4:	8fc20004 	lw	v0,4(s8)
a0800cb8:	8fc30014 	lw	v1,20(s8)
a0800cbc:	0062102a 	slt	v0,v1,v0
a0800cc0:	1040ffc9 	beqz	v0,a0800be8 <screen_scroll+0xa4>
a0800cc4:	00000000 	nop
a0800cc8:	03c0e821 	move	sp,s8
a0800ccc:	8fbe000c 	lw	s8,12(sp)
a0800cd0:	27bd0010 	addiu	sp,sp,16
a0800cd4:	03e00008 	jr	ra
a0800cd8:	00000000 	nop

a0800cdc <screen_write_ch>:
a0800cdc:	27bdffe8 	addiu	sp,sp,-24
a0800ce0:	afbf0014 	sw	ra,20(sp)
a0800ce4:	afbe0010 	sw	s8,16(sp)
a0800ce8:	03a0f021 	move	s8,sp
a0800cec:	00801021 	move	v0,a0
a0800cf0:	a3c20018 	sb	v0,24(s8)
a0800cf4:	83c30018 	lb	v1,24(s8)
a0800cf8:	2402000a 	li	v0,10
a0800cfc:	1462000a 	bne	v1,v0,a0800d28 <screen_write_ch+0x4c>
a0800d00:	00000000 	nop
a0800d04:	3c02a081 	lui	v0,0xa081
a0800d08:	ac40d910 	sw	zero,-9968(v0)
a0800d0c:	3c02a081 	lui	v0,0xa081
a0800d10:	8c42d914 	lw	v0,-9964(v0)
a0800d14:	24430001 	addiu	v1,v0,1
a0800d18:	3c02a081 	lui	v0,0xa081
a0800d1c:	ac43d914 	sw	v1,-9964(v0)
a0800d20:	08200385 	j	a0800e14 <screen_write_ch+0x138>
a0800d24:	00000000 	nop
a0800d28:	83c30018 	lb	v1,24(s8)
a0800d2c:	24020008 	li	v0,8
a0800d30:	14620019 	bne	v1,v0,a0800d98 <screen_write_ch+0xbc>
a0800d34:	00000000 	nop
a0800d38:	3c02a081 	lui	v0,0xa081
a0800d3c:	8c42d910 	lw	v0,-9968(v0)
a0800d40:	18400034 	blez	v0,a0800e14 <screen_write_ch+0x138>
a0800d44:	00000000 	nop
a0800d48:	3c02a081 	lui	v0,0xa081
a0800d4c:	8c42d910 	lw	v0,-9968(v0)
a0800d50:	2443ffff 	addiu	v1,v0,-1
a0800d54:	3c02a081 	lui	v0,0xa081
a0800d58:	ac43d910 	sw	v1,-9968(v0)
a0800d5c:	3c02a081 	lui	v0,0xa081
a0800d60:	8c42d914 	lw	v0,-9964(v0)
a0800d64:	00021900 	sll	v1,v0,0x4
a0800d68:	00031080 	sll	v0,v1,0x2
a0800d6c:	00621821 	addu	v1,v1,v0
a0800d70:	3c02a081 	lui	v0,0xa081
a0800d74:	8c42d910 	lw	v0,-9968(v0)
a0800d78:	00621821 	addu	v1,v1,v0
a0800d7c:	3c02a081 	lui	v0,0xa081
a0800d80:	2442d960 	addiu	v0,v0,-9888
a0800d84:	00621821 	addu	v1,v1,v0
a0800d88:	24020020 	li	v0,32
a0800d8c:	a0620000 	sb	v0,0(v1)
a0800d90:	08200385 	j	a0800e14 <screen_write_ch+0x138>
a0800d94:	00000000 	nop
a0800d98:	83c30018 	lb	v1,24(s8)
a0800d9c:	2402000d 	li	v0,13
a0800da0:	1462000a 	bne	v1,v0,a0800dcc <screen_write_ch+0xf0>
a0800da4:	00000000 	nop
a0800da8:	3c02a081 	lui	v0,0xa081
a0800dac:	ac40d910 	sw	zero,-9968(v0)
a0800db0:	3c02a081 	lui	v0,0xa081
a0800db4:	8c42d914 	lw	v0,-9964(v0)
a0800db8:	24430001 	addiu	v1,v0,1
a0800dbc:	3c02a081 	lui	v0,0xa081
a0800dc0:	ac43d914 	sw	v1,-9964(v0)
a0800dc4:	08200385 	j	a0800e14 <screen_write_ch+0x138>
a0800dc8:	00000000 	nop
a0800dcc:	3c02a081 	lui	v0,0xa081
a0800dd0:	8c42d914 	lw	v0,-9964(v0)
a0800dd4:	00021900 	sll	v1,v0,0x4
a0800dd8:	00031080 	sll	v0,v1,0x2
a0800ddc:	00621821 	addu	v1,v1,v0
a0800de0:	3c02a081 	lui	v0,0xa081
a0800de4:	8c42d910 	lw	v0,-9968(v0)
a0800de8:	00621821 	addu	v1,v1,v0
a0800dec:	3c02a081 	lui	v0,0xa081
a0800df0:	2442d960 	addiu	v0,v0,-9888
a0800df4:	00621821 	addu	v1,v1,v0
a0800df8:	93c20018 	lbu	v0,24(s8)
a0800dfc:	a0620000 	sb	v0,0(v1)
a0800e00:	3c02a081 	lui	v0,0xa081
a0800e04:	8c42d910 	lw	v0,-9968(v0)
a0800e08:	24430001 	addiu	v1,v0,1
a0800e0c:	3c02a081 	lui	v0,0xa081
a0800e10:	ac43d910 	sw	v1,-9968(v0)
a0800e14:	3c02a081 	lui	v0,0xa081
a0800e18:	8c42d910 	lw	v0,-9968(v0)
a0800e1c:	04410003 	bgez	v0,a0800e2c <screen_write_ch+0x150>
a0800e20:	00000000 	nop
a0800e24:	3c02a081 	lui	v0,0xa081
a0800e28:	ac40d910 	sw	zero,-9968(v0)
a0800e2c:	3c02a081 	lui	v0,0xa081
a0800e30:	8c42d910 	lw	v0,-9968(v0)
a0800e34:	28420050 	slti	v0,v0,80
a0800e38:	14400008 	bnez	v0,a0800e5c <screen_write_ch+0x180>
a0800e3c:	00000000 	nop
a0800e40:	3c02a081 	lui	v0,0xa081
a0800e44:	8c42d914 	lw	v0,-9964(v0)
a0800e48:	24430001 	addiu	v1,v0,1
a0800e4c:	3c02a081 	lui	v0,0xa081
a0800e50:	ac43d914 	sw	v1,-9964(v0)
a0800e54:	3c02a081 	lui	v0,0xa081
a0800e58:	ac40d910 	sw	zero,-9968(v0)
a0800e5c:	3c02a081 	lui	v0,0xa081
a0800e60:	8c42d914 	lw	v0,-9964(v0)
a0800e64:	04410003 	bgez	v0,a0800e74 <screen_write_ch+0x198>
a0800e68:	00000000 	nop
a0800e6c:	3c02a081 	lui	v0,0xa081
a0800e70:	ac40d914 	sw	zero,-9964(v0)
a0800e74:	3c02a081 	lui	v0,0xa081
a0800e78:	8c42d914 	lw	v0,-9964(v0)
a0800e7c:	28420028 	slti	v0,v0,40
a0800e80:	1440000a 	bnez	v0,a0800eac <screen_write_ch+0x1d0>
a0800e84:	00000000 	nop
a0800e88:	24040015 	li	a0,21
a0800e8c:	24050027 	li	a1,39
a0800e90:	0c2002d1 	jal	a0800b44 <screen_scroll>
a0800e94:	00000000 	nop
a0800e98:	3c02a081 	lui	v0,0xa081
a0800e9c:	ac40d910 	sw	zero,-9968(v0)
a0800ea0:	3c03a081 	lui	v1,0xa081
a0800ea4:	24020027 	li	v0,39
a0800ea8:	ac62d914 	sw	v0,-9964(v1)
a0800eac:	03c0e821 	move	sp,s8
a0800eb0:	8fbf0014 	lw	ra,20(sp)
a0800eb4:	8fbe0010 	lw	s8,16(sp)
a0800eb8:	27bd0018 	addiu	sp,sp,24
a0800ebc:	03e00008 	jr	ra
a0800ec0:	00000000 	nop

a0800ec4 <init_screen>:
a0800ec4:	27bdffe8 	addiu	sp,sp,-24
a0800ec8:	afbf0014 	sw	ra,20(sp)
a0800ecc:	afbe0010 	sw	s8,16(sp)
a0800ed0:	03a0f021 	move	s8,sp
a0800ed4:	0c2002c2 	jal	a0800b08 <vt100_hidden_cursor>
a0800ed8:	00000000 	nop
a0800edc:	0c2002b3 	jal	a0800acc <vt100_clear>
a0800ee0:	00000000 	nop
a0800ee4:	3c02a081 	lui	v0,0xa081
a0800ee8:	ac40d910 	sw	zero,-9968(v0)
a0800eec:	3c02a081 	lui	v0,0xa081
a0800ef0:	ac40d914 	sw	zero,-9964(v0)
a0800ef4:	0c200436 	jal	a08010d8 <screen_reflush>
a0800ef8:	00000000 	nop
a0800efc:	03c0e821 	move	sp,s8
a0800f00:	8fbf0014 	lw	ra,20(sp)
a0800f04:	8fbe0010 	lw	s8,16(sp)
a0800f08:	27bd0018 	addiu	sp,sp,24
a0800f0c:	03e00008 	jr	ra
a0800f10:	00000000 	nop

a0800f14 <screen_clear>:
a0800f14:	27bdffe0 	addiu	sp,sp,-32
a0800f18:	afbf001c 	sw	ra,28(sp)
a0800f1c:	afbe0018 	sw	s8,24(sp)
a0800f20:	03a0f021 	move	s8,sp
a0800f24:	afc40020 	sw	a0,32(s8)
a0800f28:	afc50024 	sw	a1,36(s8)
a0800f2c:	8fc20020 	lw	v0,32(s8)
a0800f30:	afc20014 	sw	v0,20(s8)
a0800f34:	082003f1 	j	a0800fc4 <screen_clear+0xb0>
a0800f38:	00000000 	nop
a0800f3c:	afc00010 	sw	zero,16(s8)
a0800f40:	082003ea 	j	a0800fa8 <screen_clear+0x94>
a0800f44:	00000000 	nop
a0800f48:	8fc20014 	lw	v0,20(s8)
a0800f4c:	00021900 	sll	v1,v0,0x4
a0800f50:	00031080 	sll	v0,v1,0x2
a0800f54:	00621821 	addu	v1,v1,v0
a0800f58:	8fc20010 	lw	v0,16(s8)
a0800f5c:	00621821 	addu	v1,v1,v0
a0800f60:	3c02a081 	lui	v0,0xa081
a0800f64:	2442d960 	addiu	v0,v0,-9888
a0800f68:	00621821 	addu	v1,v1,v0
a0800f6c:	24020020 	li	v0,32
a0800f70:	a0620000 	sb	v0,0(v1)
a0800f74:	8fc20014 	lw	v0,20(s8)
a0800f78:	00021900 	sll	v1,v0,0x4
a0800f7c:	00031080 	sll	v0,v1,0x2
a0800f80:	00621821 	addu	v1,v1,v0
a0800f84:	8fc20010 	lw	v0,16(s8)
a0800f88:	00621821 	addu	v1,v1,v0
a0800f8c:	3c02a081 	lui	v0,0xa081
a0800f90:	2442e5e0 	addiu	v0,v0,-6688
a0800f94:	00621021 	addu	v0,v1,v0
a0800f98:	a0400000 	sb	zero,0(v0)
a0800f9c:	8fc20010 	lw	v0,16(s8)
a0800fa0:	24420001 	addiu	v0,v0,1
a0800fa4:	afc20010 	sw	v0,16(s8)
a0800fa8:	8fc20010 	lw	v0,16(s8)
a0800fac:	28420050 	slti	v0,v0,80
a0800fb0:	1440ffe5 	bnez	v0,a0800f48 <screen_clear+0x34>
a0800fb4:	00000000 	nop
a0800fb8:	8fc20014 	lw	v0,20(s8)
a0800fbc:	24420001 	addiu	v0,v0,1
a0800fc0:	afc20014 	sw	v0,20(s8)
a0800fc4:	8fc20014 	lw	v0,20(s8)
a0800fc8:	8fc30024 	lw	v1,36(s8)
a0800fcc:	0062102a 	slt	v0,v1,v0
a0800fd0:	1040ffda 	beqz	v0,a0800f3c <screen_clear+0x28>
a0800fd4:	00000000 	nop
a0800fd8:	3c02a081 	lui	v0,0xa081
a0800fdc:	ac40d910 	sw	zero,-9968(v0)
a0800fe0:	3c02a081 	lui	v0,0xa081
a0800fe4:	ac40d914 	sw	zero,-9964(v0)
a0800fe8:	0c200436 	jal	a08010d8 <screen_reflush>
a0800fec:	00000000 	nop
a0800ff0:	03c0e821 	move	sp,s8
a0800ff4:	8fbf001c 	lw	ra,28(sp)
a0800ff8:	8fbe0018 	lw	s8,24(sp)
a0800ffc:	27bd0020 	addiu	sp,sp,32
a0801000:	03e00008 	jr	ra
a0801004:	00000000 	nop

a0801008 <screen_move_cursor>:
a0801008:	27bdfff8 	addiu	sp,sp,-8
a080100c:	afbe0004 	sw	s8,4(sp)
a0801010:	03a0f021 	move	s8,sp
a0801014:	afc40008 	sw	a0,8(s8)
a0801018:	afc5000c 	sw	a1,12(s8)
a080101c:	3c03a081 	lui	v1,0xa081
a0801020:	8fc20008 	lw	v0,8(s8)
a0801024:	ac62d910 	sw	v0,-9968(v1)
a0801028:	3c03a081 	lui	v1,0xa081
a080102c:	8fc2000c 	lw	v0,12(s8)
a0801030:	ac62d914 	sw	v0,-9964(v1)
a0801034:	03c0e821 	move	sp,s8
a0801038:	8fbe0004 	lw	s8,4(sp)
a080103c:	27bd0008 	addiu	sp,sp,8
a0801040:	03e00008 	jr	ra
a0801044:	00000000 	nop

a0801048 <screen_write>:
a0801048:	27bdffe0 	addiu	sp,sp,-32
a080104c:	afbf001c 	sw	ra,28(sp)
a0801050:	afbe0018 	sw	s8,24(sp)
a0801054:	03a0f021 	move	s8,sp
a0801058:	afc40020 	sw	a0,32(s8)
a080105c:	afc00014 	sw	zero,20(s8)
a0801060:	8fc40020 	lw	a0,32(s8)
a0801064:	0c201634 	jal	a08058d0 <strlen>
a0801068:	00000000 	nop
a080106c:	afc20010 	sw	v0,16(s8)
a0801070:	afc00014 	sw	zero,20(s8)
a0801074:	08200429 	j	a08010a4 <screen_write+0x5c>
a0801078:	00000000 	nop
a080107c:	8fc30014 	lw	v1,20(s8)
a0801080:	8fc20020 	lw	v0,32(s8)
a0801084:	00431021 	addu	v0,v0,v1
a0801088:	80420000 	lb	v0,0(v0)
a080108c:	00402021 	move	a0,v0
a0801090:	0c200337 	jal	a0800cdc <screen_write_ch>
a0801094:	00000000 	nop
a0801098:	8fc20014 	lw	v0,20(s8)
a080109c:	24420001 	addiu	v0,v0,1
a08010a0:	afc20014 	sw	v0,20(s8)
a08010a4:	8fc20014 	lw	v0,20(s8)
a08010a8:	8fc30010 	lw	v1,16(s8)
a08010ac:	0043102a 	slt	v0,v0,v1
a08010b0:	1440fff2 	bnez	v0,a080107c <screen_write+0x34>
a08010b4:	00000000 	nop
a08010b8:	0c200436 	jal	a08010d8 <screen_reflush>
a08010bc:	00000000 	nop
a08010c0:	03c0e821 	move	sp,s8
a08010c4:	8fbf001c 	lw	ra,28(sp)
a08010c8:	8fbe0018 	lw	s8,24(sp)
a08010cc:	27bd0020 	addiu	sp,sp,32
a08010d0:	03e00008 	jr	ra
a08010d4:	00000000 	nop

a08010d8 <screen_reflush>:
a08010d8:	27bdffe0 	addiu	sp,sp,-32
a08010dc:	afbf001c 	sw	ra,28(sp)
a08010e0:	afbe0018 	sw	s8,24(sp)
a08010e4:	03a0f021 	move	s8,sp
a08010e8:	afc00014 	sw	zero,20(s8)
a08010ec:	08200489 	j	a0801224 <screen_reflush+0x14c>
a08010f0:	00000000 	nop
a08010f4:	afc00010 	sw	zero,16(s8)
a08010f8:	08200482 	j	a0801208 <screen_reflush+0x130>
a08010fc:	00000000 	nop
a0801100:	8fc20014 	lw	v0,20(s8)
a0801104:	00021900 	sll	v1,v0,0x4
a0801108:	00031080 	sll	v0,v1,0x2
a080110c:	00621821 	addu	v1,v1,v0
a0801110:	8fc20010 	lw	v0,16(s8)
a0801114:	00621821 	addu	v1,v1,v0
a0801118:	3c02a081 	lui	v0,0xa081
a080111c:	2442d960 	addiu	v0,v0,-9888
a0801120:	00621021 	addu	v0,v1,v0
a0801124:	80440000 	lb	a0,0(v0)
a0801128:	8fc20014 	lw	v0,20(s8)
a080112c:	00021900 	sll	v1,v0,0x4
a0801130:	00031080 	sll	v0,v1,0x2
a0801134:	00621821 	addu	v1,v1,v0
a0801138:	8fc20010 	lw	v0,16(s8)
a080113c:	00621821 	addu	v1,v1,v0
a0801140:	3c02a081 	lui	v0,0xa081
a0801144:	2442e5e0 	addiu	v0,v0,-6688
a0801148:	00621021 	addu	v0,v1,v0
a080114c:	80420000 	lb	v0,0(v0)
a0801150:	1082002a 	beq	a0,v0,a08011fc <screen_reflush+0x124>
a0801154:	00000000 	nop
a0801158:	8fc20010 	lw	v0,16(s8)
a080115c:	24430001 	addiu	v1,v0,1
a0801160:	8fc20014 	lw	v0,20(s8)
a0801164:	24420001 	addiu	v0,v0,1
a0801168:	00602021 	move	a0,v1
a080116c:	00402821 	move	a1,v0
a0801170:	0c2002a0 	jal	a0800a80 <vt100_move_cursor>
a0801174:	00000000 	nop
a0801178:	8fc20014 	lw	v0,20(s8)
a080117c:	00021900 	sll	v1,v0,0x4
a0801180:	00031080 	sll	v0,v1,0x2
a0801184:	00621821 	addu	v1,v1,v0
a0801188:	8fc20010 	lw	v0,16(s8)
a080118c:	00621821 	addu	v1,v1,v0
a0801190:	3c02a081 	lui	v0,0xa081
a0801194:	2442d960 	addiu	v0,v0,-9888
a0801198:	00621021 	addu	v0,v1,v0
a080119c:	80420000 	lb	v0,0(v0)
a08011a0:	00402021 	move	a0,v0
a08011a4:	0c200278 	jal	a08009e0 <port_write_ch>
a08011a8:	00000000 	nop
a08011ac:	8fc20014 	lw	v0,20(s8)
a08011b0:	00021900 	sll	v1,v0,0x4
a08011b4:	00031080 	sll	v0,v1,0x2
a08011b8:	00621821 	addu	v1,v1,v0
a08011bc:	8fc20010 	lw	v0,16(s8)
a08011c0:	00622021 	addu	a0,v1,v0
a08011c4:	8fc20014 	lw	v0,20(s8)
a08011c8:	00021900 	sll	v1,v0,0x4
a08011cc:	00031080 	sll	v0,v1,0x2
a08011d0:	00621821 	addu	v1,v1,v0
a08011d4:	8fc20010 	lw	v0,16(s8)
a08011d8:	00621821 	addu	v1,v1,v0
a08011dc:	3c02a081 	lui	v0,0xa081
a08011e0:	2442d960 	addiu	v0,v0,-9888
a08011e4:	00621021 	addu	v0,v1,v0
a08011e8:	80430000 	lb	v1,0(v0)
a08011ec:	3c02a081 	lui	v0,0xa081
a08011f0:	2442e5e0 	addiu	v0,v0,-6688
a08011f4:	00821021 	addu	v0,a0,v0
a08011f8:	a0430000 	sb	v1,0(v0)
a08011fc:	8fc20010 	lw	v0,16(s8)
a0801200:	24420001 	addiu	v0,v0,1
a0801204:	afc20010 	sw	v0,16(s8)
a0801208:	8fc20010 	lw	v0,16(s8)
a080120c:	28420050 	slti	v0,v0,80
a0801210:	1440ffbb 	bnez	v0,a0801100 <screen_reflush+0x28>
a0801214:	00000000 	nop
a0801218:	8fc20014 	lw	v0,20(s8)
a080121c:	24420001 	addiu	v0,v0,1
a0801220:	afc20014 	sw	v0,20(s8)
a0801224:	8fc20014 	lw	v0,20(s8)
a0801228:	28420028 	slti	v0,v0,40
a080122c:	1440ffb1 	bnez	v0,a08010f4 <screen_reflush+0x1c>
a0801230:	00000000 	nop
a0801234:	3c02a081 	lui	v0,0xa081
a0801238:	8c43d910 	lw	v1,-9968(v0)
a080123c:	3c02a081 	lui	v0,0xa081
a0801240:	8c42d914 	lw	v0,-9964(v0)
a0801244:	00602021 	move	a0,v1
a0801248:	00402821 	move	a1,v0
a080124c:	0c2002a0 	jal	a0800a80 <vt100_move_cursor>
a0801250:	00000000 	nop
a0801254:	03c0e821 	move	sp,s8
a0801258:	8fbf001c 	lw	ra,28(sp)
a080125c:	8fbe0018 	lw	s8,24(sp)
a0801260:	27bd0020 	addiu	sp,sp,32
a0801264:	03e00008 	jr	ra
a0801268:	00000000 	nop
a080126c:	00000000 	nop

a0801270 <reg_read_32>:
a0801270:	27bdfff8 	addiu	sp,sp,-8
a0801274:	afbe0004 	sw	s8,4(sp)
a0801278:	03a0f021 	move	s8,sp
a080127c:	afc40008 	sw	a0,8(s8)
a0801280:	8fc20008 	lw	v0,8(s8)
a0801284:	8c420000 	lw	v0,0(v0)
a0801288:	03c0e821 	move	sp,s8
a080128c:	8fbe0004 	lw	s8,4(sp)
a0801290:	27bd0008 	addiu	sp,sp,8
a0801294:	03e00008 	jr	ra
a0801298:	00000000 	nop

a080129c <read_register>:
a080129c:	27bdfff0 	addiu	sp,sp,-16
a08012a0:	afbe000c 	sw	s8,12(sp)
a08012a4:	03a0f021 	move	s8,sp
a08012a8:	afc40010 	sw	a0,16(s8)
a08012ac:	afc50014 	sw	a1,20(s8)
a08012b0:	8fc30010 	lw	v1,16(s8)
a08012b4:	8fc20014 	lw	v0,20(s8)
a08012b8:	00621021 	addu	v0,v1,v0
a08012bc:	afc20004 	sw	v0,4(s8)
a08012c0:	8fc20004 	lw	v0,4(s8)
a08012c4:	8c420000 	lw	v0,0(v0)
a08012c8:	afc20000 	sw	v0,0(s8)
a08012cc:	8fc20000 	lw	v0,0(s8)
a08012d0:	03c0e821 	move	sp,s8
a08012d4:	8fbe000c 	lw	s8,12(sp)
a08012d8:	27bd0010 	addiu	sp,sp,16
a08012dc:	03e00008 	jr	ra
a08012e0:	00000000 	nop

a08012e4 <reg_write_32>:
a08012e4:	27bdfff8 	addiu	sp,sp,-8
a08012e8:	afbe0004 	sw	s8,4(sp)
a08012ec:	03a0f021 	move	s8,sp
a08012f0:	afc40008 	sw	a0,8(s8)
a08012f4:	afc5000c 	sw	a1,12(s8)
a08012f8:	8fc30008 	lw	v1,8(s8)
a08012fc:	8fc2000c 	lw	v0,12(s8)
a0801300:	ac620000 	sw	v0,0(v1)
a0801304:	03c0e821 	move	sp,s8
a0801308:	8fbe0004 	lw	s8,4(sp)
a080130c:	27bd0008 	addiu	sp,sp,8
a0801310:	03e00008 	jr	ra
a0801314:	00000000 	nop

a0801318 <gmac_get_mac_addr>:
a0801318:	27bdffe0 	addiu	sp,sp,-32
a080131c:	afbf001c 	sw	ra,28(sp)
a0801320:	afbe0018 	sw	s8,24(sp)
a0801324:	03a0f021 	move	s8,sp
a0801328:	afc40020 	sw	a0,32(s8)
a080132c:	3c04bfe1 	lui	a0,0xbfe1
a0801330:	24050044 	li	a1,68
a0801334:	0c2004a7 	jal	a080129c <read_register>
a0801338:	00000000 	nop
a080133c:	afc20010 	sw	v0,16(s8)
a0801340:	8fc20010 	lw	v0,16(s8)
a0801344:	304300ff 	andi	v1,v0,0xff
a0801348:	8fc20020 	lw	v0,32(s8)
a080134c:	ac430000 	sw	v1,0(v0)
a0801350:	8fc20020 	lw	v0,32(s8)
a0801354:	24430004 	addiu	v1,v0,4
a0801358:	8fc20010 	lw	v0,16(s8)
a080135c:	00021202 	srl	v0,v0,0x8
a0801360:	304200ff 	andi	v0,v0,0xff
a0801364:	ac620000 	sw	v0,0(v1)
a0801368:	8fc20020 	lw	v0,32(s8)
a080136c:	24430008 	addiu	v1,v0,8
a0801370:	8fc20010 	lw	v0,16(s8)
a0801374:	00021402 	srl	v0,v0,0x10
a0801378:	304200ff 	andi	v0,v0,0xff
a080137c:	ac620000 	sw	v0,0(v1)
a0801380:	8fc20020 	lw	v0,32(s8)
a0801384:	2443000c 	addiu	v1,v0,12
a0801388:	8fc20010 	lw	v0,16(s8)
a080138c:	00021602 	srl	v0,v0,0x18
a0801390:	ac620000 	sw	v0,0(v1)
a0801394:	3c04bfe1 	lui	a0,0xbfe1
a0801398:	24050040 	li	a1,64
a080139c:	0c2004a7 	jal	a080129c <read_register>
a08013a0:	00000000 	nop
a08013a4:	afc20010 	sw	v0,16(s8)
a08013a8:	8fc20020 	lw	v0,32(s8)
a08013ac:	24430010 	addiu	v1,v0,16
a08013b0:	8fc20010 	lw	v0,16(s8)
a08013b4:	304200ff 	andi	v0,v0,0xff
a08013b8:	ac620000 	sw	v0,0(v1)
a08013bc:	8fc20020 	lw	v0,32(s8)
a08013c0:	24430014 	addiu	v1,v0,20
a08013c4:	8fc20010 	lw	v0,16(s8)
a08013c8:	00021202 	srl	v0,v0,0x8
a08013cc:	304200ff 	andi	v0,v0,0xff
a08013d0:	ac620000 	sw	v0,0(v1)
a08013d4:	03c0e821 	move	sp,s8
a08013d8:	8fbf001c 	lw	ra,28(sp)
a08013dc:	8fbe0018 	lw	s8,24(sp)
a08013e0:	27bd0020 	addiu	sp,sp,32
a08013e4:	03e00008 	jr	ra
a08013e8:	00000000 	nop

a08013ec <print_tx_dscrb>:
a08013ec:	27bdffe0 	addiu	sp,sp,-32
a08013f0:	afbf001c 	sw	ra,28(sp)
a08013f4:	afbe0018 	sw	s8,24(sp)
a08013f8:	03a0f021 	move	s8,sp
a08013fc:	afc40020 	sw	a0,32(s8)
a0801400:	8fc20020 	lw	v0,32(s8)
a0801404:	8c430010 	lw	v1,16(v0)
a0801408:	3c02a081 	lui	v0,0xa081
a080140c:	2444cc30 	addiu	a0,v0,-13264
a0801410:	00602821 	move	a1,v1
a0801414:	0c2019a3 	jal	a080668c <printf>
a0801418:	00000000 	nop
a080141c:	8fc20020 	lw	v0,32(s8)
a0801420:	8c430018 	lw	v1,24(v0)
a0801424:	3c02a081 	lui	v0,0xa081
a0801428:	2444cc50 	addiu	a0,v0,-13232
a080142c:	00602821 	move	a1,v1
a0801430:	0c2019a3 	jal	a080668c <printf>
a0801434:	00000000 	nop
a0801438:	8fc20020 	lw	v0,32(s8)
a080143c:	8c430028 	lw	v1,40(v0)
a0801440:	3c02a081 	lui	v0,0xa081
a0801444:	2444cc68 	addiu	a0,v0,-13208
a0801448:	00602821 	move	a1,v1
a080144c:	0c2019a3 	jal	a080668c <printf>
a0801450:	00000000 	nop
a0801454:	03c0e821 	move	sp,s8
a0801458:	8fbf001c 	lw	ra,28(sp)
a080145c:	8fbe0018 	lw	s8,24(sp)
a0801460:	27bd0020 	addiu	sp,sp,32
a0801464:	03e00008 	jr	ra
a0801468:	00000000 	nop

a080146c <print_rx_dscrb>:
a080146c:	27bdffe0 	addiu	sp,sp,-32
a0801470:	afbf001c 	sw	ra,28(sp)
a0801474:	afbe0018 	sw	s8,24(sp)
a0801478:	03a0f021 	move	s8,sp
a080147c:	afc40020 	sw	a0,32(s8)
a0801480:	8fc20020 	lw	v0,32(s8)
a0801484:	8c430014 	lw	v1,20(v0)
a0801488:	3c02a081 	lui	v0,0xa081
a080148c:	2444cc88 	addiu	a0,v0,-13176
a0801490:	00602821 	move	a1,v1
a0801494:	0c2019a3 	jal	a080668c <printf>
a0801498:	00000000 	nop
a080149c:	8fc20020 	lw	v0,32(s8)
a08014a0:	8c43001c 	lw	v1,28(v0)
a08014a4:	3c02a081 	lui	v0,0xa081
a08014a8:	2444ccac 	addiu	a0,v0,-13140
a08014ac:	00602821 	move	a1,v1
a08014b0:	0c2019a3 	jal	a080668c <printf>
a08014b4:	00000000 	nop
a08014b8:	8fc20020 	lw	v0,32(s8)
a08014bc:	8c43002c 	lw	v1,44(v0)
a08014c0:	3c02a081 	lui	v0,0xa081
a08014c4:	2444ccc4 	addiu	a0,v0,-13116
a08014c8:	00602821 	move	a1,v1
a08014cc:	0c2019a3 	jal	a080668c <printf>
a08014d0:	00000000 	nop
a08014d4:	8fc20020 	lw	v0,32(s8)
a08014d8:	8c420024 	lw	v0,36(v0)
a08014dc:	afc20010 	sw	v0,16(s8)
a08014e0:	03c0e821 	move	sp,s8
a08014e4:	8fbf001c 	lw	ra,28(sp)
a08014e8:	8fbe0018 	lw	s8,24(sp)
a08014ec:	27bd0020 	addiu	sp,sp,32
a08014f0:	03e00008 	jr	ra
a08014f4:	00000000 	nop

a08014f8 <printf_recv_buffer>:
a08014f8:	27bdfff0 	addiu	sp,sp,-16
a08014fc:	afbe000c 	sw	s8,12(sp)
a0801500:	03a0f021 	move	s8,sp
a0801504:	afc40010 	sw	a0,16(s8)
a0801508:	03c0e821 	move	sp,s8
a080150c:	8fbe000c 	lw	s8,12(sp)
a0801510:	27bd0010 	addiu	sp,sp,16
a0801514:	03e00008 	jr	ra
a0801518:	00000000 	nop

a080151c <mac_irq_handle>:
a080151c:	27bdffe8 	addiu	sp,sp,-24
a0801520:	afbf0014 	sw	ra,20(sp)
a0801524:	afbe0010 	sw	s8,16(sp)
a0801528:	03a0f021 	move	s8,sp
a080152c:	3c02a081 	lui	v0,0xa081
a0801530:	2444d91c 	addiu	a0,v0,-9956
a0801534:	0c20122b 	jal	a08048ac <queue_is_empty>
a0801538:	00000000 	nop
a080153c:	14400005 	bnez	v0,a0801554 <mac_irq_handle+0x38>
a0801540:	00000000 	nop
a0801544:	3c02a081 	lui	v0,0xa081
a0801548:	2444d91c 	addiu	a0,v0,-9956
a080154c:	0c200e2c 	jal	a08038b0 <do_unblock_one>
a0801550:	00000000 	nop
a0801554:	0c20055d 	jal	a0801574 <clear_interrupt>
a0801558:	00000000 	nop
a080155c:	03c0e821 	move	sp,s8
a0801560:	8fbf0014 	lw	ra,20(sp)
a0801564:	8fbe0010 	lw	s8,16(sp)
a0801568:	27bd0018 	addiu	sp,sp,24
a080156c:	03e00008 	jr	ra
a0801570:	00000000 	nop

a0801574 <clear_interrupt>:
a0801574:	27bdffe0 	addiu	sp,sp,-32
a0801578:	afbf001c 	sw	ra,28(sp)
a080157c:	afbe0018 	sw	s8,24(sp)
a0801580:	03a0f021 	move	s8,sp
a0801584:	3c02bfe1 	lui	v0,0xbfe1
a0801588:	34441014 	ori	a0,v0,0x1014
a080158c:	0c20049c 	jal	a0801270 <reg_read_32>
a0801590:	00000000 	nop
a0801594:	afc20010 	sw	v0,16(s8)
a0801598:	3c02bfe1 	lui	v0,0xbfe1
a080159c:	34441014 	ori	a0,v0,0x1014
a08015a0:	8fc50010 	lw	a1,16(s8)
a08015a4:	0c2004b9 	jal	a08012e4 <reg_write_32>
a08015a8:	00000000 	nop
a08015ac:	03c0e821 	move	sp,s8
a08015b0:	8fbf001c 	lw	ra,28(sp)
a08015b4:	8fbe0018 	lw	s8,24(sp)
a08015b8:	27bd0020 	addiu	sp,sp,32
a08015bc:	03e00008 	jr	ra
a08015c0:	00000000 	nop

a08015c4 <irq_enable>:
a08015c4:	27bdffe8 	addiu	sp,sp,-24
a08015c8:	afbf0014 	sw	ra,20(sp)
a08015cc:	afbe0010 	sw	s8,16(sp)
a08015d0:	03a0f021 	move	s8,sp
a08015d4:	afc40018 	sw	a0,24(s8)
a08015d8:	3c02bfd0 	lui	v0,0xbfd0
a08015dc:	3444105c 	ori	a0,v0,0x105c
a08015e0:	24050008 	li	a1,8
a08015e4:	0c2004b9 	jal	a08012e4 <reg_write_32>
a08015e8:	00000000 	nop
a08015ec:	03c0e821 	move	sp,s8
a08015f0:	8fbf0014 	lw	ra,20(sp)
a08015f4:	8fbe0010 	lw	s8,16(sp)
a08015f8:	27bd0018 	addiu	sp,sp,24
a08015fc:	03e00008 	jr	ra
a0801600:	00000000 	nop

a0801604 <mac_recv_handle>:
a0801604:	27bdffd8 	addiu	sp,sp,-40
a0801608:	afbf0024 	sw	ra,36(sp)
a080160c:	afbe0020 	sw	s8,32(sp)
a0801610:	03a0f021 	move	s8,sp
a0801614:	afc40028 	sw	a0,40(s8)
a0801618:	8fc20028 	lw	v0,40(s8)
a080161c:	8c420024 	lw	v0,36(v0)
a0801620:	00401821 	move	v1,v0
a0801624:	3c02a081 	lui	v0,0xa081
a0801628:	ac43d878 	sw	v1,-10120(v0)
a080162c:	8fc20028 	lw	v0,40(s8)
a0801630:	8c420014 	lw	v0,20(v0)
a0801634:	afc2001c 	sw	v0,28(s8)
a0801638:	afc00010 	sw	zero,16(s8)
a080163c:	082005ec 	j	a08017b0 <mac_recv_handle+0x1ac>
a0801640:	00000000 	nop
a0801644:	3c02a081 	lui	v0,0xa081
a0801648:	8c42d878 	lw	v0,-10120(v0)
a080164c:	8c420000 	lw	v0,0(v0)
a0801650:	0440004c 	bltz	v0,a0801784 <mac_recv_handle+0x180>
a0801654:	00000000 	nop
a0801658:	8fc20010 	lw	v0,16(s8)
a080165c:	00021280 	sll	v0,v0,0xa
a0801660:	00401821 	move	v1,v0
a0801664:	8fc2001c 	lw	v0,28(s8)
a0801668:	00621021 	addu	v0,v1,v0
a080166c:	afc20018 	sw	v0,24(s8)
a0801670:	8fc20018 	lw	v0,24(s8)
a0801674:	8c430000 	lw	v1,0(v0)
a0801678:	3c02b57b 	lui	v0,0xb57b
a080167c:	34425500 	ori	v0,v0,0x5500
a0801680:	14620040 	bne	v1,v0,a0801784 <mac_recv_handle+0x180>
a0801684:	00000000 	nop
a0801688:	8fc20018 	lw	v0,24(s8)
a080168c:	24420004 	addiu	v0,v0,4
a0801690:	8c430000 	lw	v1,0(v0)
a0801694:	3c025a70 	lui	v0,0x5a70
a0801698:	3442f77d 	ori	v0,v0,0xf77d
a080169c:	14620039 	bne	v1,v0,a0801784 <mac_recv_handle+0x180>
a08016a0:	00000000 	nop
a08016a4:	8fc20018 	lw	v0,24(s8)
a08016a8:	24420008 	addiu	v0,v0,8
a08016ac:	8c430000 	lw	v1,0(v0)
a08016b0:	3c020e42 	lui	v0,0xe42
a08016b4:	3442d30f 	ori	v0,v0,0xd30f
a08016b8:	14620032 	bne	v1,v0,a0801784 <mac_recv_handle+0x180>
a08016bc:	00000000 	nop
a08016c0:	24040001 	li	a0,1
a08016c4:	24050004 	li	a1,4
a08016c8:	0c201472 	jal	a08051c8 <sys_move_cursor>
a08016cc:	00000000 	nop
a08016d0:	afc00014 	sw	zero,20(s8)
a08016d4:	082005c9 	j	a0801724 <mac_recv_handle+0x120>
a08016d8:	00000000 	nop
a08016dc:	3c02a081 	lui	v0,0xa081
a08016e0:	8c45f364 	lw	a1,-3228(v0)
a08016e4:	8fc60014 	lw	a2,20(s8)
a08016e8:	8fc20014 	lw	v0,20(s8)
a08016ec:	00021880 	sll	v1,v0,0x2
a08016f0:	8fc20018 	lw	v0,24(s8)
a08016f4:	00431021 	addu	v0,v0,v1
a08016f8:	8c470000 	lw	a3,0(v0)
a08016fc:	3c04a083 	lui	a0,0xa083
a0801700:	00051200 	sll	v0,a1,0x8
a0801704:	00461021 	addu	v0,v0,a2
a0801708:	00021880 	sll	v1,v0,0x2
a080170c:	24820090 	addiu	v0,a0,144
a0801710:	00621021 	addu	v0,v1,v0
a0801714:	ac470000 	sw	a3,0(v0)
a0801718:	8fc20014 	lw	v0,20(s8)
a080171c:	24420001 	addiu	v0,v0,1
a0801720:	afc20014 	sw	v0,20(s8)
a0801724:	8fc20014 	lw	v0,20(s8)
a0801728:	28420100 	slti	v0,v0,256
a080172c:	1440ffeb 	bnez	v0,a08016dc <mac_recv_handle+0xd8>
a0801730:	00000000 	nop
a0801734:	3c02a081 	lui	v0,0xa081
a0801738:	8c43f364 	lw	v1,-3228(v0)
a080173c:	3c02a081 	lui	v0,0xa081
a0801740:	8c42d878 	lw	v0,-10120(v0)
a0801744:	8c440000 	lw	a0,0(v0)
a0801748:	3c02a084 	lui	v0,0xa084
a080174c:	00031880 	sll	v1,v1,0x2
a0801750:	24420890 	addiu	v0,v0,2192
a0801754:	00621021 	addu	v0,v1,v0
a0801758:	ac440000 	sw	a0,0(v0)
a080175c:	3c02a081 	lui	v0,0xa081
a0801760:	8c42f364 	lw	v0,-3228(v0)
a0801764:	24430001 	addiu	v1,v0,1
a0801768:	3c02a081 	lui	v0,0xa081
a080176c:	ac43f364 	sw	v1,-3228(v0)
a0801770:	3c02a081 	lui	v0,0xa081
a0801774:	8c42f364 	lw	v0,-3228(v0)
a0801778:	28420040 	slti	v0,v0,64
a080177c:	10400010 	beqz	v0,a08017c0 <mac_recv_handle+0x1bc>
a0801780:	00000000 	nop
a0801784:	3c02a081 	lui	v0,0xa081
a0801788:	8c42d878 	lw	v0,-10120(v0)
a080178c:	8c43000c 	lw	v1,12(v0)
a0801790:	3c02a000 	lui	v0,0xa000
a0801794:	00621025 	or	v0,v1,v0
a0801798:	00401821 	move	v1,v0
a080179c:	3c02a081 	lui	v0,0xa081
a08017a0:	ac43d878 	sw	v1,-10120(v0)
a08017a4:	8fc20010 	lw	v0,16(s8)
a08017a8:	24420001 	addiu	v0,v0,1
a08017ac:	afc20010 	sw	v0,16(s8)
a08017b0:	8fc20010 	lw	v0,16(s8)
a08017b4:	28420040 	slti	v0,v0,64
a08017b8:	1440ffa2 	bnez	v0,a0801644 <mac_recv_handle+0x40>
a08017bc:	00000000 	nop
a08017c0:	24040001 	li	a0,1
a08017c4:	24050009 	li	a1,9
a08017c8:	0c201472 	jal	a08051c8 <sys_move_cursor>
a08017cc:	00000000 	nop
a08017d0:	3c02a081 	lui	v0,0xa081
a08017d4:	8c43f364 	lw	v1,-3228(v0)
a08017d8:	3c02a081 	lui	v0,0xa081
a08017dc:	2444ccec 	addiu	a0,v0,-13076
a08017e0:	00602821 	move	a1,v1
a08017e4:	0c2019a3 	jal	a080668c <printf>
a08017e8:	00000000 	nop
a08017ec:	03c0e821 	move	sp,s8
a08017f0:	8fbf0024 	lw	ra,36(sp)
a08017f4:	8fbe0020 	lw	s8,32(sp)
a08017f8:	27bd0028 	addiu	sp,sp,40
a08017fc:	03e00008 	jr	ra
a0801800:	00000000 	nop

a0801804 <printk_recv_buffer>:
a0801804:	27bdfff0 	addiu	sp,sp,-16
a0801808:	afbe000c 	sw	s8,12(sp)
a080180c:	03a0f021 	move	s8,sp
a0801810:	afc40010 	sw	a0,16(s8)
a0801814:	03c0e821 	move	sp,s8
a0801818:	8fbe000c 	lw	s8,12(sp)
a080181c:	27bd0010 	addiu	sp,sp,16
a0801820:	03e00008 	jr	ra
a0801824:	00000000 	nop

a0801828 <set_sram_ctr>:
a0801828:	27bdfff8 	addiu	sp,sp,-8
a080182c:	afbe0004 	sw	s8,4(sp)
a0801830:	03a0f021 	move	s8,sp
a0801834:	3c02bfd0 	lui	v0,0xbfd0
a0801838:	34430420 	ori	v1,v0,0x420
a080183c:	34028000 	li	v0,0x8000
a0801840:	ac620000 	sw	v0,0(v1)
a0801844:	03c0e821 	move	sp,s8
a0801848:	8fbe0004 	lw	s8,4(sp)
a080184c:	27bd0008 	addiu	sp,sp,8
a0801850:	03e00008 	jr	ra
a0801854:	00000000 	nop

a0801858 <s_reset>:
a0801858:	27bdffe0 	addiu	sp,sp,-32
a080185c:	afbf001c 	sw	ra,28(sp)
a0801860:	afbe0018 	sw	s8,24(sp)
a0801864:	03a0f021 	move	s8,sp
a0801868:	afc40020 	sw	a0,32(s8)
a080186c:	3c02000f 	lui	v0,0xf
a0801870:	34424240 	ori	v0,v0,0x4240
a0801874:	afc20010 	sw	v0,16(s8)
a0801878:	8fc20020 	lw	v0,32(s8)
a080187c:	8c42000c 	lw	v0,12(v0)
a0801880:	00402021 	move	a0,v0
a0801884:	24050001 	li	a1,1
a0801888:	0c2004b9 	jal	a08012e4 <reg_write_32>
a080188c:	00000000 	nop
a0801890:	08200634 	j	a08018d0 <s_reset+0x78>
a0801894:	00000000 	nop
a0801898:	8fc20020 	lw	v0,32(s8)
a080189c:	8c42000c 	lw	v0,12(v0)
a08018a0:	00402021 	move	a0,v0
a08018a4:	24050001 	li	a1,1
a08018a8:	0c2004b9 	jal	a08012e4 <reg_write_32>
a08018ac:	00000000 	nop
a08018b0:	08200631 	j	a08018c4 <s_reset+0x6c>
a08018b4:	00000000 	nop
a08018b8:	8fc20010 	lw	v0,16(s8)
a08018bc:	2442ffff 	addiu	v0,v0,-1
a08018c0:	afc20010 	sw	v0,16(s8)
a08018c4:	8fc20010 	lw	v0,16(s8)
a08018c8:	1440fffb 	bnez	v0,a08018b8 <s_reset+0x60>
a08018cc:	00000000 	nop
a08018d0:	8fc20020 	lw	v0,32(s8)
a08018d4:	8c42000c 	lw	v0,12(v0)
a08018d8:	00402021 	move	a0,v0
a08018dc:	0c20049c 	jal	a0801270 <reg_read_32>
a08018e0:	00000000 	nop
a08018e4:	30420001 	andi	v0,v0,0x1
a08018e8:	304200ff 	andi	v0,v0,0xff
a08018ec:	1440ffea 	bnez	v0,a0801898 <s_reset+0x40>
a08018f0:	00000000 	nop
a08018f4:	03c0e821 	move	sp,s8
a08018f8:	8fbf001c 	lw	ra,28(sp)
a08018fc:	8fbe0018 	lw	s8,24(sp)
a0801900:	27bd0020 	addiu	sp,sp,32
a0801904:	03e00008 	jr	ra
a0801908:	00000000 	nop

a080190c <disable_interrupt_all>:
a080190c:	27bdffe8 	addiu	sp,sp,-24
a0801910:	afbf0014 	sw	ra,20(sp)
a0801914:	afbe0010 	sw	s8,16(sp)
a0801918:	03a0f021 	move	s8,sp
a080191c:	afc40018 	sw	a0,24(s8)
a0801920:	8fc20018 	lw	v0,24(s8)
a0801924:	8c42000c 	lw	v0,12(v0)
a0801928:	2442001c 	addiu	v0,v0,28
a080192c:	00402021 	move	a0,v0
a0801930:	00002821 	move	a1,zero
a0801934:	0c2004b9 	jal	a08012e4 <reg_write_32>
a0801938:	00000000 	nop
a080193c:	03c0e821 	move	sp,s8
a0801940:	8fbf0014 	lw	ra,20(sp)
a0801944:	8fbe0010 	lw	s8,16(sp)
a0801948:	27bd0018 	addiu	sp,sp,24
a080194c:	03e00008 	jr	ra
a0801950:	00000000 	nop

a0801954 <set_mac_addr>:
a0801954:	27bdffc0 	addiu	sp,sp,-64
a0801958:	afbf003c 	sw	ra,60(sp)
a080195c:	afbe0038 	sw	s8,56(sp)
a0801960:	03a0f021 	move	s8,sp
a0801964:	afc40040 	sw	a0,64(s8)
a0801968:	afc0001c 	sw	zero,28(s8)
a080196c:	24020055 	li	v0,85
a0801970:	afc20020 	sw	v0,32(s8)
a0801974:	2402007b 	li	v0,123
a0801978:	afc20024 	sw	v0,36(s8)
a080197c:	240200b5 	li	v0,181
a0801980:	afc20028 	sw	v0,40(s8)
a0801984:	2402007d 	li	v0,125
a0801988:	afc2002c 	sw	v0,44(s8)
a080198c:	240200f7 	li	v0,247
a0801990:	afc20030 	sw	v0,48(s8)
a0801994:	24020040 	li	v0,64
a0801998:	afc20014 	sw	v0,20(s8)
a080199c:	24020044 	li	v0,68
a08019a0:	afc20010 	sw	v0,16(s8)
a08019a4:	8fc20030 	lw	v0,48(s8)
a08019a8:	00021a00 	sll	v1,v0,0x8
a08019ac:	8fc2002c 	lw	v0,44(s8)
a08019b0:	00621025 	or	v0,v1,v0
a08019b4:	afc20018 	sw	v0,24(s8)
a08019b8:	8fc20040 	lw	v0,64(s8)
a08019bc:	8c430008 	lw	v1,8(v0)
a08019c0:	8fc20014 	lw	v0,20(s8)
a08019c4:	00621021 	addu	v0,v1,v0
a08019c8:	00402021 	move	a0,v0
a08019cc:	8fc50018 	lw	a1,24(s8)
a08019d0:	0c2004b9 	jal	a08012e4 <reg_write_32>
a08019d4:	00000000 	nop
a08019d8:	8fc20028 	lw	v0,40(s8)
a08019dc:	00021e00 	sll	v1,v0,0x18
a08019e0:	8fc20024 	lw	v0,36(s8)
a08019e4:	00021400 	sll	v0,v0,0x10
a08019e8:	00621825 	or	v1,v1,v0
a08019ec:	8fc20020 	lw	v0,32(s8)
a08019f0:	00021200 	sll	v0,v0,0x8
a08019f4:	00621825 	or	v1,v1,v0
a08019f8:	8fc2001c 	lw	v0,28(s8)
a08019fc:	00621025 	or	v0,v1,v0
a0801a00:	afc20018 	sw	v0,24(s8)
a0801a04:	8fc20040 	lw	v0,64(s8)
a0801a08:	8c430008 	lw	v1,8(v0)
a0801a0c:	8fc20010 	lw	v0,16(s8)
a0801a10:	00621021 	addu	v0,v1,v0
a0801a14:	00402021 	move	a0,v0
a0801a18:	8fc50018 	lw	a1,24(s8)
a0801a1c:	0c2004b9 	jal	a08012e4 <reg_write_32>
a0801a20:	00000000 	nop
a0801a24:	03c0e821 	move	sp,s8
a0801a28:	8fbf003c 	lw	ra,60(sp)
a0801a2c:	8fbe0038 	lw	s8,56(sp)
a0801a30:	27bd0040 	addiu	sp,sp,64
a0801a34:	03e00008 	jr	ra
a0801a38:	00000000 	nop

a0801a3c <do_net_recv>:
a0801a3c:	27bdffd0 	addiu	sp,sp,-48
a0801a40:	afbf002c 	sw	ra,44(sp)
a0801a44:	afbe0028 	sw	s8,40(sp)
a0801a48:	03a0f021 	move	s8,sp
a0801a4c:	afc40030 	sw	a0,48(s8)
a0801a50:	afc50034 	sw	a1,52(s8)
a0801a54:	afc60038 	sw	a2,56(s8)
a0801a58:	8fc20030 	lw	v0,48(s8)
a0801a5c:	afc20014 	sw	v0,20(s8)
a0801a60:	3c02bfe1 	lui	v0,0xbfe1
a0801a64:	3444100c 	ori	a0,v0,0x100c
a0801a68:	8fc50034 	lw	a1,52(s8)
a0801a6c:	0c2004b9 	jal	a08012e4 <reg_write_32>
a0801a70:	00000000 	nop
a0801a74:	3c04bfe1 	lui	a0,0xbfe1
a0801a78:	0c20049c 	jal	a0801270 <reg_read_32>
a0801a7c:	00000000 	nop
a0801a80:	34420004 	ori	v0,v0,0x4
a0801a84:	3c04bfe1 	lui	a0,0xbfe1
a0801a88:	00402821 	move	a1,v0
a0801a8c:	0c2004b9 	jal	a08012e4 <reg_write_32>
a0801a90:	00000000 	nop
a0801a94:	3c02bfe1 	lui	v0,0xbfe1
a0801a98:	34441018 	ori	a0,v0,0x1018
a0801a9c:	0c20049c 	jal	a0801270 <reg_read_32>
a0801aa0:	00000000 	nop
a0801aa4:	00401821 	move	v1,v0
a0801aa8:	3c020220 	lui	v0,0x220
a0801aac:	34420002 	ori	v0,v0,0x2
a0801ab0:	00621825 	or	v1,v1,v0
a0801ab4:	3c02bfe1 	lui	v0,0xbfe1
a0801ab8:	34441018 	ori	a0,v0,0x1018
a0801abc:	00602821 	move	a1,v1
a0801ac0:	0c2004b9 	jal	a08012e4 <reg_write_32>
a0801ac4:	00000000 	nop
a0801ac8:	3c02bfe1 	lui	v0,0xbfe1
a0801acc:	3444101c 	ori	a0,v0,0x101c
a0801ad0:	3c020001 	lui	v0,0x1
a0801ad4:	34450041 	ori	a1,v0,0x41
a0801ad8:	0c2004b9 	jal	a08012e4 <reg_write_32>
a0801adc:	00000000 	nop
a0801ae0:	8fc20030 	lw	v0,48(s8)
a0801ae4:	afc20014 	sw	v0,20(s8)
a0801ae8:	afc00024 	sw	zero,36(s8)
a0801aec:	082006cb 	j	a0801b2c <do_net_recv+0xf0>
a0801af0:	00000000 	nop
a0801af4:	8fc20014 	lw	v0,20(s8)
a0801af8:	8c430000 	lw	v1,0(v0)
a0801afc:	3c028000 	lui	v0,0x8000
a0801b00:	00621825 	or	v1,v1,v0
a0801b04:	8fc20014 	lw	v0,20(s8)
a0801b08:	ac430000 	sw	v1,0(v0)
a0801b0c:	8fc20014 	lw	v0,20(s8)
a0801b10:	8c43000c 	lw	v1,12(v0)
a0801b14:	3c02a000 	lui	v0,0xa000
a0801b18:	00621025 	or	v0,v1,v0
a0801b1c:	afc20014 	sw	v0,20(s8)
a0801b20:	8fc20024 	lw	v0,36(s8)
a0801b24:	24420001 	addiu	v0,v0,1
a0801b28:	afc20024 	sw	v0,36(s8)
a0801b2c:	8fc20024 	lw	v0,36(s8)
a0801b30:	28420040 	slti	v0,v0,64
a0801b34:	1440ffef 	bnez	v0,a0801af4 <do_net_recv+0xb8>
a0801b38:	00000000 	nop
a0801b3c:	afc00020 	sw	zero,32(s8)
a0801b40:	082006da 	j	a0801b68 <do_net_recv+0x12c>
a0801b44:	00000000 	nop
a0801b48:	3c02bfe1 	lui	v0,0xbfe1
a0801b4c:	34441008 	ori	a0,v0,0x1008
a0801b50:	24050001 	li	a1,1
a0801b54:	0c2004b9 	jal	a08012e4 <reg_write_32>
a0801b58:	00000000 	nop
a0801b5c:	8fc20020 	lw	v0,32(s8)
a0801b60:	24420001 	addiu	v0,v0,1
a0801b64:	afc20020 	sw	v0,32(s8)
a0801b68:	3c02a081 	lui	v0,0xa081
a0801b6c:	8c43d874 	lw	v1,-10124(v0)
a0801b70:	8fc20020 	lw	v0,32(s8)
a0801b74:	0043102a 	slt	v0,v0,v1
a0801b78:	1440fff3 	bnez	v0,a0801b48 <do_net_recv+0x10c>
a0801b7c:	00000000 	nop
a0801b80:	8fc20030 	lw	v0,48(s8)
a0801b84:	afc20014 	sw	v0,20(s8)
a0801b88:	afc00020 	sw	zero,32(s8)
a0801b8c:	afc0001c 	sw	zero,28(s8)
a0801b90:	00001021 	move	v0,zero
a0801b94:	03c0e821 	move	sp,s8
a0801b98:	8fbf002c 	lw	ra,44(sp)
a0801b9c:	8fbe0028 	lw	s8,40(sp)
a0801ba0:	27bd0030 	addiu	sp,sp,48
a0801ba4:	03e00008 	jr	ra
a0801ba8:	00000000 	nop

a0801bac <do_net_send>:
a0801bac:	27bdffd0 	addiu	sp,sp,-48
a0801bb0:	afbf002c 	sw	ra,44(sp)
a0801bb4:	afbe0028 	sw	s8,40(sp)
a0801bb8:	03a0f021 	move	s8,sp
a0801bbc:	afc40030 	sw	a0,48(s8)
a0801bc0:	afc50034 	sw	a1,52(s8)
a0801bc4:	3c02bfe1 	lui	v0,0xbfe1
a0801bc8:	34441010 	ori	a0,v0,0x1010
a0801bcc:	8fc50034 	lw	a1,52(s8)
a0801bd0:	0c2004b9 	jal	a08012e4 <reg_write_32>
a0801bd4:	00000000 	nop
a0801bd8:	3c04bfe1 	lui	a0,0xbfe1
a0801bdc:	0c20049c 	jal	a0801270 <reg_read_32>
a0801be0:	00000000 	nop
a0801be4:	34420008 	ori	v0,v0,0x8
a0801be8:	3c04bfe1 	lui	a0,0xbfe1
a0801bec:	00402821 	move	a1,v0
a0801bf0:	0c2004b9 	jal	a08012e4 <reg_write_32>
a0801bf4:	00000000 	nop
a0801bf8:	3c02bfe1 	lui	v0,0xbfe1
a0801bfc:	34441018 	ori	a0,v0,0x1018
a0801c00:	0c20049c 	jal	a0801270 <reg_read_32>
a0801c04:	00000000 	nop
a0801c08:	00401821 	move	v1,v0
a0801c0c:	3c020220 	lui	v0,0x220
a0801c10:	34422000 	ori	v0,v0,0x2000
a0801c14:	00621825 	or	v1,v1,v0
a0801c18:	3c02bfe1 	lui	v0,0xbfe1
a0801c1c:	34441018 	ori	a0,v0,0x1018
a0801c20:	00602821 	move	a1,v1
a0801c24:	0c2004b9 	jal	a08012e4 <reg_write_32>
a0801c28:	00000000 	nop
a0801c2c:	3c02bfe1 	lui	v0,0xbfe1
a0801c30:	3444101c 	ori	a0,v0,0x101c
a0801c34:	3c020001 	lui	v0,0x1
a0801c38:	34450041 	ori	a1,v0,0x41
a0801c3c:	0c2004b9 	jal	a08012e4 <reg_write_32>
a0801c40:	00000000 	nop
a0801c44:	8fc20030 	lw	v0,48(s8)
a0801c48:	afc20010 	sw	v0,16(s8)
a0801c4c:	afc00020 	sw	zero,32(s8)
a0801c50:	08200724 	j	a0801c90 <do_net_send+0xe4>
a0801c54:	00000000 	nop
a0801c58:	8fc20010 	lw	v0,16(s8)
a0801c5c:	8c430000 	lw	v1,0(v0)
a0801c60:	3c028000 	lui	v0,0x8000
a0801c64:	00621825 	or	v1,v1,v0
a0801c68:	8fc20010 	lw	v0,16(s8)
a0801c6c:	ac430000 	sw	v1,0(v0)
a0801c70:	8fc20010 	lw	v0,16(s8)
a0801c74:	8c43000c 	lw	v1,12(v0)
a0801c78:	3c02a000 	lui	v0,0xa000
a0801c7c:	00621025 	or	v0,v1,v0
a0801c80:	afc20010 	sw	v0,16(s8)
a0801c84:	8fc20020 	lw	v0,32(s8)
a0801c88:	24420001 	addiu	v0,v0,1
a0801c8c:	afc20020 	sw	v0,32(s8)
a0801c90:	8fc20020 	lw	v0,32(s8)
a0801c94:	28420040 	slti	v0,v0,64
a0801c98:	1440ffef 	bnez	v0,a0801c58 <do_net_send+0xac>
a0801c9c:	00000000 	nop
a0801ca0:	afc0001c 	sw	zero,28(s8)
a0801ca4:	08200733 	j	a0801ccc <do_net_send+0x120>
a0801ca8:	00000000 	nop
a0801cac:	3c02bfe1 	lui	v0,0xbfe1
a0801cb0:	34441004 	ori	a0,v0,0x1004
a0801cb4:	24050001 	li	a1,1
a0801cb8:	0c2004b9 	jal	a08012e4 <reg_write_32>
a0801cbc:	00000000 	nop
a0801cc0:	8fc2001c 	lw	v0,28(s8)
a0801cc4:	24420001 	addiu	v0,v0,1
a0801cc8:	afc2001c 	sw	v0,28(s8)
a0801ccc:	3c02a081 	lui	v0,0xa081
a0801cd0:	8c43d870 	lw	v1,-10128(v0)
a0801cd4:	8fc2001c 	lw	v0,28(s8)
a0801cd8:	0043102a 	slt	v0,v0,v1
a0801cdc:	1440fff3 	bnez	v0,a0801cac <do_net_send+0x100>
a0801ce0:	00000000 	nop
a0801ce4:	03c0e821 	move	sp,s8
a0801ce8:	8fbf002c 	lw	ra,44(sp)
a0801cec:	8fbe0028 	lw	s8,40(sp)
a0801cf0:	27bd0030 	addiu	sp,sp,48
a0801cf4:	03e00008 	jr	ra
a0801cf8:	00000000 	nop

a0801cfc <do_init_mac>:
a0801cfc:	27bdffb0 	addiu	sp,sp,-80
a0801d00:	afbf004c 	sw	ra,76(sp)
a0801d04:	afbe0048 	sw	s8,72(sp)
a0801d08:	03a0f021 	move	s8,sp
a0801d0c:	3c02bfe1 	lui	v0,0xbfe1
a0801d10:	afc2001c 	sw	v0,28(s8)
a0801d14:	3c02bfe1 	lui	v0,0xbfe1
a0801d18:	34421000 	ori	v0,v0,0x1000
a0801d1c:	afc20020 	sw	v0,32(s8)
a0801d20:	24020400 	li	v0,1024
a0801d24:	afc20014 	sw	v0,20(s8)
a0801d28:	24020040 	li	v0,64
a0801d2c:	afc20018 	sw	v0,24(s8)
a0801d30:	0c20060a 	jal	a0801828 <set_sram_ctr>
a0801d34:	00000000 	nop
a0801d38:	27c20014 	addiu	v0,s8,20
a0801d3c:	00402021 	move	a0,v0
a0801d40:	0c200616 	jal	a0801858 <s_reset>
a0801d44:	00000000 	nop
a0801d48:	27c20014 	addiu	v0,s8,20
a0801d4c:	00402021 	move	a0,v0
a0801d50:	0c200643 	jal	a080190c <disable_interrupt_all>
a0801d54:	00000000 	nop
a0801d58:	27c20014 	addiu	v0,s8,20
a0801d5c:	00402021 	move	a0,v0
a0801d60:	0c200655 	jal	a0801954 <set_mac_addr>
a0801d64:	00000000 	nop
a0801d68:	3c02bfd0 	lui	v0,0xbfd0
a0801d6c:	34441064 	ori	a0,v0,0x1064
a0801d70:	2405ffff 	li	a1,-1
a0801d74:	0c2004b9 	jal	a08012e4 <reg_write_32>
a0801d78:	00000000 	nop
a0801d7c:	3c02bfd0 	lui	v0,0xbfd0
a0801d80:	34441068 	ori	a0,v0,0x1068
a0801d84:	2405ffff 	li	a1,-1
a0801d88:	0c2004b9 	jal	a08012e4 <reg_write_32>
a0801d8c:	00000000 	nop
a0801d90:	3c02bfd0 	lui	v0,0xbfd0
a0801d94:	3444106c 	ori	a0,v0,0x106c
a0801d98:	00002821 	move	a1,zero
a0801d9c:	0c2004b9 	jal	a08012e4 <reg_write_32>
a0801da0:	00000000 	nop
a0801da4:	03c0e821 	move	sp,s8
a0801da8:	8fbf004c 	lw	ra,76(sp)
a0801dac:	8fbe0048 	lw	s8,72(sp)
a0801db0:	27bd0050 	addiu	sp,sp,80
a0801db4:	03e00008 	jr	ra
a0801db8:	00000000 	nop

a0801dbc <do_wait_recv_package>:
a0801dbc:	27bdffe8 	addiu	sp,sp,-24
a0801dc0:	afbf0014 	sw	ra,20(sp)
a0801dc4:	afbe0010 	sw	s8,16(sp)
a0801dc8:	03a0f021 	move	s8,sp
a0801dcc:	3c02a081 	lui	v0,0xa081
a0801dd0:	2444d91c 	addiu	a0,v0,-9956
a0801dd4:	0c200df2 	jal	a08037c8 <do_block>
a0801dd8:	00000000 	nop
a0801ddc:	03c0e821 	move	sp,s8
a0801de0:	8fbf0014 	lw	ra,20(sp)
a0801de4:	8fbe0010 	lw	s8,16(sp)
a0801de8:	27bd0018 	addiu	sp,sp,24
a0801dec:	03e00008 	jr	ra
a0801df0:	00000000 	nop

a0801df4 <do_print_buffer>:
a0801df4:	27bdffd8 	addiu	sp,sp,-40
a0801df8:	afbf0024 	sw	ra,36(sp)
a0801dfc:	afbe0020 	sw	s8,32(sp)
a0801e00:	03a0f021 	move	s8,sp
a0801e04:	afc00018 	sw	zero,24(s8)
a0801e08:	082007d0 	j	a0801f40 <do_print_buffer+0x14c>
a0801e0c:	00000000 	nop
a0801e10:	afc00010 	sw	zero,16(s8)
a0801e14:	24040001 	li	a0,1
a0801e18:	24050003 	li	a1,3
a0801e1c:	0c2002a0 	jal	a0800a80 <vt100_move_cursor>
a0801e20:	00000000 	nop
a0801e24:	8fc20018 	lw	v0,24(s8)
a0801e28:	3c03a084 	lui	v1,0xa084
a0801e2c:	00022080 	sll	a0,v0,0x2
a0801e30:	24620890 	addiu	v0,v1,2192
a0801e34:	00821021 	addu	v0,a0,v0
a0801e38:	8c430000 	lw	v1,0(v0)
a0801e3c:	3c02a081 	lui	v0,0xa081
a0801e40:	2444cd08 	addiu	a0,v0,-13048
a0801e44:	8fc50018 	lw	a1,24(s8)
a0801e48:	00603021 	move	a2,v1
a0801e4c:	0c201981 	jal	a0806604 <printk>
a0801e50:	00000000 	nop
a0801e54:	24040001 	li	a0,1
a0801e58:	24050004 	li	a1,4
a0801e5c:	0c2002a0 	jal	a0800a80 <vt100_move_cursor>
a0801e60:	00000000 	nop
a0801e64:	afc00014 	sw	zero,20(s8)
a0801e68:	082007c9 	j	a0801f24 <do_print_buffer+0x130>
a0801e6c:	00000000 	nop
a0801e70:	8fc20018 	lw	v0,24(s8)
a0801e74:	8fc30014 	lw	v1,20(s8)
a0801e78:	3c04a083 	lui	a0,0xa083
a0801e7c:	00021200 	sll	v0,v0,0x8
a0801e80:	00431021 	addu	v0,v0,v1
a0801e84:	00021880 	sll	v1,v0,0x2
a0801e88:	24820090 	addiu	v0,a0,144
a0801e8c:	00621021 	addu	v0,v1,v0
a0801e90:	8c420000 	lw	v0,0(v0)
a0801e94:	10400012 	beqz	v0,a0801ee0 <do_print_buffer+0xec>
a0801e98:	00000000 	nop
a0801e9c:	8fc20018 	lw	v0,24(s8)
a0801ea0:	8fc30014 	lw	v1,20(s8)
a0801ea4:	3c04a083 	lui	a0,0xa083
a0801ea8:	00021200 	sll	v0,v0,0x8
a0801eac:	00431021 	addu	v0,v0,v1
a0801eb0:	00021880 	sll	v1,v0,0x2
a0801eb4:	24820090 	addiu	v0,a0,144
a0801eb8:	00621021 	addu	v0,v1,v0
a0801ebc:	8c430000 	lw	v1,0(v0)
a0801ec0:	3c02a081 	lui	v0,0xa081
a0801ec4:	2444cd28 	addiu	a0,v0,-13016
a0801ec8:	00602821 	move	a1,v1
a0801ecc:	0c201981 	jal	a0806604 <printk>
a0801ed0:	00000000 	nop
a0801ed4:	8fc20010 	lw	v0,16(s8)
a0801ed8:	24420001 	addiu	v0,v0,1
a0801edc:	afc20010 	sw	v0,16(s8)
a0801ee0:	8fc30010 	lw	v1,16(s8)
a0801ee4:	000317c3 	sra	v0,v1,0x1f
a0801ee8:	00022702 	srl	a0,v0,0x1c
a0801eec:	00641021 	addu	v0,v1,a0
a0801ef0:	3042000f 	andi	v0,v0,0xf
a0801ef4:	00441023 	subu	v0,v0,a0
a0801ef8:	00401821 	move	v1,v0
a0801efc:	2402000f 	li	v0,15
a0801f00:	14620005 	bne	v1,v0,a0801f18 <do_print_buffer+0x124>
a0801f04:	00000000 	nop
a0801f08:	3c02a081 	lui	v0,0xa081
a0801f0c:	2444cd2c 	addiu	a0,v0,-13012
a0801f10:	0c201981 	jal	a0806604 <printk>
a0801f14:	00000000 	nop
a0801f18:	8fc20014 	lw	v0,20(s8)
a0801f1c:	24420001 	addiu	v0,v0,1
a0801f20:	afc20014 	sw	v0,20(s8)
a0801f24:	8fc20014 	lw	v0,20(s8)
a0801f28:	28420100 	slti	v0,v0,256
a0801f2c:	1440ffd0 	bnez	v0,a0801e70 <do_print_buffer+0x7c>
a0801f30:	00000000 	nop
a0801f34:	8fc20018 	lw	v0,24(s8)
a0801f38:	24420001 	addiu	v0,v0,1
a0801f3c:	afc20018 	sw	v0,24(s8)
a0801f40:	8fc20018 	lw	v0,24(s8)
a0801f44:	28420040 	slti	v0,v0,64
a0801f48:	1440ffb1 	bnez	v0,a0801e10 <do_print_buffer+0x1c>
a0801f4c:	00000000 	nop
a0801f50:	03c0e821 	move	sp,s8
a0801f54:	8fbf0024 	lw	ra,36(sp)
a0801f58:	8fbe0020 	lw	s8,32(sp)
a0801f5c:	27bd0028 	addiu	sp,sp,40
a0801f60:	03e00008 	jr	ra
a0801f64:	00000000 	nop
	...

a0801f70 <init_memory>:
a0801f70:	27bdfff8 	addiu	sp,sp,-8
a0801f74:	afbe0004 	sw	s8,4(sp)
a0801f78:	03a0f021 	move	s8,sp
a0801f7c:	03c0e821 	move	sp,s8
a0801f80:	8fbe0004 	lw	s8,4(sp)
a0801f84:	27bd0008 	addiu	sp,sp,8
a0801f88:	03e00008 	jr	ra
a0801f8c:	00000000 	nop

a0801f90 <init_pcb>:
a0801f90:	27bdffe0 	addiu	sp,sp,-32
a0801f94:	afbf001c 	sw	ra,28(sp)
a0801f98:	afbe0018 	sw	s8,24(sp)
a0801f9c:	03a0f021 	move	s8,sp
a0801fa0:	afc00014 	sw	zero,20(s8)
a0801fa4:	08200830 	j	a08020c0 <init_pcb+0x130>
a0801fa8:	00000000 	nop
a0801fac:	8fc40014 	lw	a0,20(s8)
a0801fb0:	00801021 	move	v0,a0
a0801fb4:	00021900 	sll	v1,v0,0x4
a0801fb8:	000310c0 	sll	v0,v1,0x3
a0801fbc:	00431023 	subu	v0,v0,v1
a0801fc0:	00441023 	subu	v0,v0,a0
a0801fc4:	00021080 	sll	v0,v0,0x2
a0801fc8:	00401821 	move	v1,v0
a0801fcc:	3c02a084 	lui	v0,0xa084
a0801fd0:	24425028 	addiu	v0,v0,20520
a0801fd4:	00621021 	addu	v0,v1,v0
a0801fd8:	00402021 	move	a0,v0
a0801fdc:	00002821 	move	a1,zero
a0801fe0:	240601bc 	li	a2,444
a0801fe4:	0c2016ff 	jal	a0805bfc <memset>
a0801fe8:	00000000 	nop
a0801fec:	8fc40014 	lw	a0,20(s8)
a0801ff0:	3c05a084 	lui	a1,0xa084
a0801ff4:	00801021 	move	v0,a0
a0801ff8:	00021900 	sll	v1,v0,0x4
a0801ffc:	000310c0 	sll	v0,v1,0x3
a0802000:	00431023 	subu	v0,v0,v1
a0802004:	00441023 	subu	v0,v0,a0
a0802008:	00021880 	sll	v1,v0,0x2
a080200c:	24a25028 	addiu	v0,a1,20520
a0802010:	00621821 	addu	v1,v1,v0
a0802014:	24020005 	li	v0,5
a0802018:	ac620150 	sw	v0,336(v1)
a080201c:	8fc40014 	lw	a0,20(s8)
a0802020:	3c02a084 	lui	v0,0xa084
a0802024:	24455028 	addiu	a1,v0,20520
a0802028:	00801021 	move	v0,a0
a080202c:	00021900 	sll	v1,v0,0x4
a0802030:	000310c0 	sll	v0,v1,0x3
a0802034:	00431023 	subu	v0,v0,v1
a0802038:	00441023 	subu	v0,v0,a0
a080203c:	00021080 	sll	v0,v0,0x2
a0802040:	00a21821 	addu	v1,a1,v0
a0802044:	24020001 	li	v0,1
a0802048:	ac62015c 	sw	v0,348(v1)
a080204c:	8fc40014 	lw	a0,20(s8)
a0802050:	3c02a084 	lui	v0,0xa084
a0802054:	24455028 	addiu	a1,v0,20520
a0802058:	00801021 	move	v0,a0
a080205c:	00021900 	sll	v1,v0,0x4
a0802060:	000310c0 	sll	v0,v1,0x3
a0802064:	00431023 	subu	v0,v0,v1
a0802068:	00441023 	subu	v0,v0,a0
a080206c:	00021080 	sll	v0,v0,0x2
a0802070:	00a21021 	addu	v0,a1,v0
a0802074:	ac40014c 	sw	zero,332(v0)
a0802078:	8fc40014 	lw	a0,20(s8)
a080207c:	00801021 	move	v0,a0
a0802080:	00021900 	sll	v1,v0,0x4
a0802084:	000310c0 	sll	v0,v1,0x3
a0802088:	00431023 	subu	v0,v0,v1
a080208c:	00441023 	subu	v0,v0,a0
a0802090:	00021080 	sll	v0,v0,0x2
a0802094:	244301a8 	addiu	v1,v0,424
a0802098:	3c02a084 	lui	v0,0xa084
a080209c:	24425028 	addiu	v0,v0,20520
a08020a0:	00621021 	addu	v0,v1,v0
a08020a4:	24420004 	addiu	v0,v0,4
a08020a8:	00402021 	move	a0,v0
a08020ac:	0c20121c 	jal	a0804870 <queue_init>
a08020b0:	00000000 	nop
a08020b4:	8fc20014 	lw	v0,20(s8)
a08020b8:	24420001 	addiu	v0,v0,1
a08020bc:	afc20014 	sw	v0,20(s8)
a08020c0:	8fc20014 	lw	v0,20(s8)
a08020c4:	28420010 	slti	v0,v0,16
a08020c8:	1440ffb8 	bnez	v0,a0801fac <init_pcb+0x1c>
a08020cc:	00000000 	nop
a08020d0:	3c02a084 	lui	v0,0xa084
a08020d4:	24435028 	addiu	v1,v0,20520
a08020d8:	3c02a0ef 	lui	v0,0xa0ef
a08020dc:	34428000 	ori	v0,v0,0x8000
a08020e0:	ac620230 	sw	v0,560(v1)
a08020e4:	3c02a080 	lui	v0,0xa080
a08020e8:	24420728 	addiu	v0,v0,1832
a08020ec:	00401821 	move	v1,v0
a08020f0:	3c02a084 	lui	v0,0xa084
a08020f4:	24425028 	addiu	v0,v0,20520
a08020f8:	ac430238 	sw	v1,568(v0)
a08020fc:	3c02a084 	lui	v0,0xa084
a0802100:	24435028 	addiu	v1,v0,20520
a0802104:	3c02a0ef 	lui	v0,0xa0ef
a0802108:	34428000 	ori	v0,v0,0x8000
a080210c:	ac6202f4 	sw	v0,756(v1)
a0802110:	3c02a084 	lui	v0,0xa084
a0802114:	24435028 	addiu	v1,v0,20520
a0802118:	24020001 	li	v0,1
a080211c:	ac620308 	sw	v0,776(v1)
a0802120:	3c02a084 	lui	v0,0xa084
a0802124:	24435028 	addiu	v1,v0,20520
a0802128:	24020002 	li	v0,2
a080212c:	ac62030c 	sw	v0,780(v1)
a0802130:	3c02a084 	lui	v0,0xa084
a0802134:	24435028 	addiu	v1,v0,20520
a0802138:	3c021000 	lui	v0,0x1000
a080213c:	34428002 	ori	v0,v0,0x8002
a0802140:	ac62023c 	sw	v0,572(v1)
a0802144:	3c02a084 	lui	v0,0xa084
a0802148:	24425028 	addiu	v0,v0,20520
a080214c:	8c4202f4 	lw	v0,756(v0)
a0802150:	2443c000 	addiu	v1,v0,-16384
a0802154:	3c02a084 	lui	v0,0xa084
a0802158:	24425028 	addiu	v0,v0,20520
a080215c:	ac4302cc 	sw	v1,716(v0)
a0802160:	3c02a081 	lui	v0,0xa081
a0802164:	244382f8 	addiu	v1,v0,-32008
a0802168:	3c02a084 	lui	v0,0xa084
a080216c:	24425028 	addiu	v0,v0,20520
a0802170:	ac4302d4 	sw	v1,724(v0)
a0802174:	3c02a084 	lui	v0,0xa084
a0802178:	24425028 	addiu	v0,v0,20520
a080217c:	8c4202f4 	lw	v0,756(v0)
a0802180:	2443c000 	addiu	v1,v0,-16384
a0802184:	3c02a084 	lui	v0,0xa084
a0802188:	24425028 	addiu	v0,v0,20520
a080218c:	ac4302f8 	sw	v1,760(v0)
a0802190:	3c02a084 	lui	v0,0xa084
a0802194:	24435028 	addiu	v1,v0,20520
a0802198:	3c021000 	lui	v0,0x1000
a080219c:	34428002 	ori	v0,v0,0x8002
a08021a0:	ac6202d8 	sw	v0,728(v1)
a08021a4:	3c02a081 	lui	v0,0xa081
a08021a8:	244382f8 	addiu	v1,v0,-32008
a08021ac:	3c02a084 	lui	v0,0xa084
a08021b0:	24425028 	addiu	v0,v0,20520
a08021b4:	ac4302ec 	sw	v1,748(v0)
a08021b8:	3c02a084 	lui	v0,0xa084
a08021bc:	24435028 	addiu	v1,v0,20520
a08021c0:	24020001 	li	v0,1
a08021c4:	ac620324 	sw	v0,804(v1)
a08021c8:	3c02a084 	lui	v0,0xa084
a08021cc:	24435028 	addiu	v1,v0,20520
a08021d0:	24020001 	li	v0,1
a08021d4:	ac620304 	sw	v0,772(v1)
a08021d8:	3c02a081 	lui	v0,0xa081
a08021dc:	2444d938 	addiu	a0,v0,-9928
a08021e0:	3c02a084 	lui	v0,0xa084
a08021e4:	244551e4 	addiu	a1,v0,20964
a08021e8:	0c20123e 	jal	a08048f8 <queue_push>
a08021ec:	00000000 	nop
a08021f0:	3c02a084 	lui	v0,0xa084
a08021f4:	24435028 	addiu	v1,v0,20520
a08021f8:	3c02a0f0 	lui	v0,0xa0f0
a08021fc:	ac620074 	sw	v0,116(v1)
a0802200:	3c02a084 	lui	v0,0xa084
a0802204:	24435028 	addiu	v1,v0,20520
a0802208:	3c02a0f0 	lui	v0,0xa0f0
a080220c:	ac620138 	sw	v0,312(v1)
a0802210:	3c02a084 	lui	v0,0xa084
a0802214:	24425028 	addiu	v0,v0,20520
a0802218:	8c430074 	lw	v1,116(v0)
a080221c:	3c02a084 	lui	v0,0xa084
a0802220:	24425028 	addiu	v0,v0,20520
a0802224:	ac430110 	sw	v1,272(v0)
a0802228:	3c02a084 	lui	v0,0xa084
a080222c:	24435028 	addiu	v1,v0,20520
a0802230:	3c02a0ef 	lui	v0,0xa0ef
a0802234:	3442e000 	ori	v0,v0,0xe000
a0802238:	ac62013c 	sw	v0,316(v1)
a080223c:	3c02a084 	lui	v0,0xa084
a0802240:	24425028 	addiu	v0,v0,20520
a0802244:	ac400140 	sw	zero,320(v0)
a0802248:	3c02a084 	lui	v0,0xa084
a080224c:	24425028 	addiu	v0,v0,20520
a0802250:	ac400144 	sw	zero,324(v0)
a0802254:	3c02a084 	lui	v0,0xa084
a0802258:	24425028 	addiu	v0,v0,20520
a080225c:	ac400148 	sw	zero,328(v0)
a0802260:	3c02a084 	lui	v0,0xa084
a0802264:	24425028 	addiu	v0,v0,20520
a0802268:	ac40014c 	sw	zero,332(v0)
a080226c:	3c02a084 	lui	v0,0xa084
a0802270:	24435028 	addiu	v1,v0,20520
a0802274:	24020001 	li	v0,1
a0802278:	ac620150 	sw	v0,336(v1)
a080227c:	3c02a084 	lui	v0,0xa084
a0802280:	24425028 	addiu	v0,v0,20520
a0802284:	ac400160 	sw	zero,352(v0)
a0802288:	3c02a084 	lui	v0,0xa084
a080228c:	24425028 	addiu	v0,v0,20520
a0802290:	ac40015c 	sw	zero,348(v0)
a0802294:	3c03a081 	lui	v1,0xa081
a0802298:	3c02a084 	lui	v0,0xa084
a080229c:	24425028 	addiu	v0,v0,20520
a08022a0:	ac62d940 	sw	v0,-9920(v1)
a08022a4:	03c0e821 	move	sp,s8
a08022a8:	8fbf001c 	lw	ra,28(sp)
a08022ac:	8fbe0018 	lw	s8,24(sp)
a08022b0:	27bd0020 	addiu	sp,sp,32
a08022b4:	03e00008 	jr	ra
a08022b8:	00000000 	nop

a08022bc <init_queue>:
a08022bc:	27bdffe8 	addiu	sp,sp,-24
a08022c0:	afbf0014 	sw	ra,20(sp)
a08022c4:	afbe0010 	sw	s8,16(sp)
a08022c8:	03a0f021 	move	s8,sp
a08022cc:	3c02a081 	lui	v0,0xa081
a08022d0:	2444d938 	addiu	a0,v0,-9928
a08022d4:	0c20121c 	jal	a0804870 <queue_init>
a08022d8:	00000000 	nop
a08022dc:	3c02a081 	lui	v0,0xa081
a08022e0:	2444d944 	addiu	a0,v0,-9916
a08022e4:	0c20121c 	jal	a0804870 <queue_init>
a08022e8:	00000000 	nop
a08022ec:	03c0e821 	move	sp,s8
a08022f0:	8fbf0014 	lw	ra,20(sp)
a08022f4:	8fbe0010 	lw	s8,16(sp)
a08022f8:	27bd0018 	addiu	sp,sp,24
a08022fc:	03e00008 	jr	ra
a0802300:	00000000 	nop

a0802304 <init_exception_handler>:
a0802304:	27bdfff8 	addiu	sp,sp,-8
a0802308:	afbe0004 	sw	s8,4(sp)
a080230c:	03a0f021 	move	s8,sp
a0802310:	03c0e821 	move	sp,s8
a0802314:	8fbe0004 	lw	s8,4(sp)
a0802318:	27bd0008 	addiu	sp,sp,8
a080231c:	03e00008 	jr	ra
a0802320:	00000000 	nop

a0802324 <init_exception>:
a0802324:	27bdffe0 	addiu	sp,sp,-32
a0802328:	afbf001c 	sw	ra,28(sp)
a080232c:	afbe0018 	sw	s8,24(sp)
a0802330:	03a0f021 	move	s8,sp
a0802334:	0c2000b9 	jal	a08002e4 <get_cp0_status>
a0802338:	00000000 	nop
a080233c:	afc20010 	sw	v0,16(s8)
a0802340:	0c2000bc 	jal	a08002f0 <disable_all_interrupt>
a0802344:	00000000 	nop
a0802348:	3c02a080 	lui	v0,0xa080
a080234c:	24430714 	addiu	v1,v0,1812
a0802350:	3c02a080 	lui	v0,0xa080
a0802354:	24420564 	addiu	v0,v0,1380
a0802358:	00621823 	subu	v1,v1,v0
a080235c:	3c028000 	lui	v0,0x8000
a0802360:	34440180 	ori	a0,v0,0x180
a0802364:	3c02a080 	lui	v0,0xa080
a0802368:	24450564 	addiu	a1,v0,1380
a080236c:	00603021 	move	a2,v1
a0802370:	0c201660 	jal	a0805980 <memcpy>
a0802374:	00000000 	nop
a0802378:	3c02a080 	lui	v0,0xa080
a080237c:	24430564 	addiu	v1,v0,1380
a0802380:	3c02a080 	lui	v0,0xa080
a0802384:	2442055c 	addiu	v0,v0,1372
a0802388:	00621823 	subu	v1,v1,v0
a080238c:	3c048000 	lui	a0,0x8000
a0802390:	3c02a080 	lui	v0,0xa080
a0802394:	2445055c 	addiu	a1,v0,1372
a0802398:	00603021 	move	a2,v1
a080239c:	0c201660 	jal	a0805980 <memcpy>
a08023a0:	00000000 	nop
a08023a4:	8fc30010 	lw	v1,16(s8)
a08023a8:	3c021000 	lui	v0,0x1000
a08023ac:	3442fc00 	ori	v0,v0,0xfc00
a08023b0:	00621025 	or	v0,v1,v0
a08023b4:	afc20010 	sw	v0,16(s8)
a08023b8:	0c2000c8 	jal	a0800320 <reset_timer>
a08023bc:	00000000 	nop
a08023c0:	8fc40010 	lw	a0,16(s8)
a08023c4:	0c2000ce 	jal	a0800338 <set_cp0_status>
a08023c8:	00000000 	nop
a08023cc:	03c0e821 	move	sp,s8
a08023d0:	8fbf001c 	lw	ra,28(sp)
a08023d4:	8fbe0018 	lw	s8,24(sp)
a08023d8:	27bd0020 	addiu	sp,sp,32
a08023dc:	03e00008 	jr	ra
a08023e0:	00000000 	nop

a08023e4 <init_syscall>:
a08023e4:	27bdfff8 	addiu	sp,sp,-8
a08023e8:	afbe0004 	sw	s8,4(sp)
a08023ec:	03a0f021 	move	s8,sp
a08023f0:	3c02a080 	lui	v0,0xa080
a08023f4:	24433740 	addiu	v1,v0,14144
a08023f8:	3c02a081 	lui	v0,0xa081
a08023fc:	2442ff90 	addiu	v0,v0,-112
a0802400:	ac430008 	sw	v1,8(v0)
a0802404:	3c02a080 	lui	v0,0xa080
a0802408:	24433990 	addiu	v1,v0,14736
a080240c:	3c02a081 	lui	v0,0xa081
a0802410:	2442ff90 	addiu	v0,v0,-112
a0802414:	ac43000c 	sw	v1,12(v0)
a0802418:	3c02a080 	lui	v0,0xa080
a080241c:	24433ca0 	addiu	v1,v0,15520
a0802420:	3c02a081 	lui	v0,0xa081
a0802424:	2442ff90 	addiu	v0,v0,-112
a0802428:	ac430010 	sw	v1,16(v0)
a080242c:	3c02a080 	lui	v0,0xa080
a0802430:	244341cc 	addiu	v1,v0,16844
a0802434:	3c02a081 	lui	v0,0xa081
a0802438:	2442ff90 	addiu	v0,v0,-112
a080243c:	ac430014 	sw	v1,20(v0)
a0802440:	3c02a080 	lui	v0,0xa080
a0802444:	244344dc 	addiu	v1,v0,17628
a0802448:	3c02a081 	lui	v0,0xa081
a080244c:	2442ff90 	addiu	v0,v0,-112
a0802450:	ac430018 	sw	v1,24(v0)
a0802454:	3c02a080 	lui	v0,0xa080
a0802458:	244346fc 	addiu	v1,v0,18172
a080245c:	3c02a081 	lui	v0,0xa081
a0802460:	2442ff90 	addiu	v0,v0,-112
a0802464:	ac43001c 	sw	v1,28(v0)
a0802468:	3c02a080 	lui	v0,0xa080
a080246c:	244337c8 	addiu	v1,v0,14280
a0802470:	3c02a081 	lui	v0,0xa081
a0802474:	2442ff90 	addiu	v0,v0,-112
a0802478:	ac430028 	sw	v1,40(v0)
a080247c:	3c02a080 	lui	v0,0xa080
a0802480:	244338b0 	addiu	v1,v0,14512
a0802484:	3c02a081 	lui	v0,0xa081
a0802488:	2442ff90 	addiu	v0,v0,-112
a080248c:	ac43002c 	sw	v1,44(v0)
a0802490:	3c02a080 	lui	v0,0xa080
a0802494:	2443393c 	addiu	v1,v0,14652
a0802498:	3c02a081 	lui	v0,0xa081
a080249c:	2442ff90 	addiu	v0,v0,-112
a08024a0:	ac430030 	sw	v1,48(v0)
a08024a4:	3c02a080 	lui	v0,0xa080
a08024a8:	24432ca0 	addiu	v1,v0,11424
a08024ac:	3c02a081 	lui	v0,0xa081
a08024b0:	2442ff90 	addiu	v0,v0,-112
a08024b4:	ac430034 	sw	v1,52(v0)
a08024b8:	3c02a080 	lui	v0,0xa080
a08024bc:	24432d14 	addiu	v1,v0,11540
a08024c0:	3c02a081 	lui	v0,0xa081
a08024c4:	2442ff90 	addiu	v0,v0,-112
a08024c8:	ac430038 	sw	v1,56(v0)
a08024cc:	3c02a080 	lui	v0,0xa080
a08024d0:	24432d78 	addiu	v1,v0,11640
a08024d4:	3c02a081 	lui	v0,0xa081
a08024d8:	2442ff90 	addiu	v0,v0,-112
a08024dc:	ac43003c 	sw	v1,60(v0)
a08024e0:	3c02a080 	lui	v0,0xa080
a08024e4:	24432e10 	addiu	v1,v0,11792
a08024e8:	3c02a081 	lui	v0,0xa081
a08024ec:	2442ff90 	addiu	v0,v0,-112
a08024f0:	ac430040 	sw	v1,64(v0)
a08024f4:	3c02a080 	lui	v0,0xa080
a08024f8:	24432e4c 	addiu	v1,v0,11852
a08024fc:	3c02a081 	lui	v0,0xa081
a0802500:	2442ff90 	addiu	v0,v0,-112
a0802504:	ac430044 	sw	v1,68(v0)
a0802508:	3c02a080 	lui	v0,0xa080
a080250c:	24432f88 	addiu	v1,v0,12168
a0802510:	3c02a081 	lui	v0,0xa081
a0802514:	2442ff90 	addiu	v0,v0,-112
a0802518:	ac430048 	sw	v1,72(v0)
a080251c:	3c02a080 	lui	v0,0xa080
a0802520:	24432fc4 	addiu	v1,v0,12228
a0802524:	3c02a081 	lui	v0,0xa081
a0802528:	2442ff90 	addiu	v0,v0,-112
a080252c:	ac43004c 	sw	v1,76(v0)
a0802530:	3c02a080 	lui	v0,0xa080
a0802534:	24431048 	addiu	v1,v0,4168
a0802538:	3c02a081 	lui	v0,0xa081
a080253c:	2442ff90 	addiu	v0,v0,-112
a0802540:	ac430050 	sw	v1,80(v0)
a0802544:	3c02a080 	lui	v0,0xa080
a0802548:	24431008 	addiu	v1,v0,4104
a080254c:	3c02a081 	lui	v0,0xa081
a0802550:	2442ff90 	addiu	v0,v0,-112
a0802554:	ac430058 	sw	v1,88(v0)
a0802558:	3c02a080 	lui	v0,0xa080
a080255c:	244310d8 	addiu	v1,v0,4312
a0802560:	3c02a081 	lui	v0,0xa081
a0802564:	2442ff90 	addiu	v0,v0,-112
a0802568:	ac43005c 	sw	v1,92(v0)
a080256c:	3c02a080 	lui	v0,0xa080
a0802570:	24430f14 	addiu	v1,v0,3860
a0802574:	3c02a081 	lui	v0,0xa081
a0802578:	2442ff90 	addiu	v0,v0,-112
a080257c:	ac430060 	sw	v1,96(v0)
a0802580:	3c02a080 	lui	v0,0xa080
a0802584:	24433000 	addiu	v1,v0,12288
a0802588:	3c02a081 	lui	v0,0xa081
a080258c:	2442ff90 	addiu	v0,v0,-112
a0802590:	ac430064 	sw	v1,100(v0)
a0802594:	3c02a080 	lui	v0,0xa080
a0802598:	24433054 	addiu	v1,v0,12372
a080259c:	3c02a081 	lui	v0,0xa081
a08025a0:	2442ff90 	addiu	v0,v0,-112
a08025a4:	ac430068 	sw	v1,104(v0)
a08025a8:	3c02a081 	lui	v0,0xa081
a08025ac:	2443ff90 	addiu	v1,v0,-112
a08025b0:	3c02a080 	lui	v0,0xa080
a08025b4:	24424840 	addiu	v0,v0,18496
a08025b8:	ac62006c 	sw	v0,108(v1)
a08025bc:	3c02a080 	lui	v0,0xa080
a08025c0:	24432a0c 	addiu	v1,v0,10764
a08025c4:	3c02a081 	lui	v0,0xa081
a08025c8:	2442ff90 	addiu	v0,v0,-112
a08025cc:	ac430078 	sw	v1,120(v0)
a08025d0:	3c02a080 	lui	v0,0xa080
a08025d4:	24432a64 	addiu	v1,v0,10852
a08025d8:	3c02a081 	lui	v0,0xa081
a08025dc:	2442ff90 	addiu	v0,v0,-112
a08025e0:	ac43007c 	sw	v1,124(v0)
a08025e4:	3c02a080 	lui	v0,0xa080
a08025e8:	24432be0 	addiu	v1,v0,11232
a08025ec:	3c02a081 	lui	v0,0xa081
a08025f0:	2442ff90 	addiu	v0,v0,-112
a08025f4:	ac430080 	sw	v1,128(v0)
a08025f8:	3c02a080 	lui	v0,0xa080
a08025fc:	24431a3c 	addiu	v1,v0,6716
a0802600:	3c02a081 	lui	v0,0xa081
a0802604:	2442ff90 	addiu	v0,v0,-112
a0802608:	ac4300a4 	sw	v1,164(v0)
a080260c:	3c02a080 	lui	v0,0xa080
a0802610:	24431bac 	addiu	v1,v0,7084
a0802614:	3c02a081 	lui	v0,0xa081
a0802618:	2442ff90 	addiu	v0,v0,-112
a080261c:	ac4300a8 	sw	v1,168(v0)
a0802620:	3c02a080 	lui	v0,0xa080
a0802624:	24431cfc 	addiu	v1,v0,7420
a0802628:	3c02a081 	lui	v0,0xa081
a080262c:	2442ff90 	addiu	v0,v0,-112
a0802630:	ac4300a0 	sw	v1,160(v0)
a0802634:	3c02a080 	lui	v0,0xa080
a0802638:	24431dbc 	addiu	v1,v0,7612
a080263c:	3c02a081 	lui	v0,0xa081
a0802640:	2442ff90 	addiu	v0,v0,-112
a0802644:	ac4300ac 	sw	v1,172(v0)
a0802648:	3c02a081 	lui	v0,0xa081
a080264c:	24438ef8 	addiu	v1,v0,-28936
a0802650:	3c02a081 	lui	v0,0xa081
a0802654:	2442ff90 	addiu	v0,v0,-112
a0802658:	ac4300b0 	sw	v1,176(v0)
a080265c:	3c02a081 	lui	v0,0xa081
a0802660:	24439948 	addiu	v1,v0,-26296
a0802664:	3c02a081 	lui	v0,0xa081
a0802668:	2442ff90 	addiu	v0,v0,-112
a080266c:	ac4300bc 	sw	v1,188(v0)
a0802670:	3c02a081 	lui	v0,0xa081
a0802674:	24439708 	addiu	v1,v0,-26872
a0802678:	3c02a081 	lui	v0,0xa081
a080267c:	2442ff90 	addiu	v0,v0,-112
a0802680:	ac4300b4 	sw	v1,180(v0)
a0802684:	3c02a081 	lui	v0,0xa081
a0802688:	2443a2e0 	addiu	v1,v0,-23840
a080268c:	3c02a081 	lui	v0,0xa081
a0802690:	2442ff90 	addiu	v0,v0,-112
a0802694:	ac4300c0 	sw	v1,192(v0)
a0802698:	3c02a081 	lui	v0,0xa081
a080269c:	2443a978 	addiu	v1,v0,-22152
a08026a0:	3c02a081 	lui	v0,0xa081
a08026a4:	2442ff90 	addiu	v0,v0,-112
a08026a8:	ac4300b8 	sw	v1,184(v0)
a08026ac:	3c02a081 	lui	v0,0xa081
a08026b0:	2443b0fc 	addiu	v1,v0,-20228
a08026b4:	3c02a081 	lui	v0,0xa081
a08026b8:	2442ff90 	addiu	v0,v0,-112
a08026bc:	ac4300c4 	sw	v1,196(v0)
a08026c0:	3c02a081 	lui	v0,0xa081
a08026c4:	2443b404 	addiu	v1,v0,-19452
a08026c8:	3c02a081 	lui	v0,0xa081
a08026cc:	2442ff90 	addiu	v0,v0,-112
a08026d0:	ac4300c8 	sw	v1,200(v0)
a08026d4:	3c02a081 	lui	v0,0xa081
a08026d8:	2443bbd4 	addiu	v1,v0,-17452
a08026dc:	3c02a081 	lui	v0,0xa081
a08026e0:	2442ff90 	addiu	v0,v0,-112
a08026e4:	ac4300cc 	sw	v1,204(v0)
a08026e8:	3c02a081 	lui	v0,0xa081
a08026ec:	2443bed4 	addiu	v1,v0,-16684
a08026f0:	3c02a081 	lui	v0,0xa081
a08026f4:	2442ff90 	addiu	v0,v0,-112
a08026f8:	ac4300d0 	sw	v1,208(v0)
a08026fc:	3c02a081 	lui	v0,0xa081
a0802700:	2443c294 	addiu	v1,v0,-15724
a0802704:	3c02a081 	lui	v0,0xa081
a0802708:	2442ff90 	addiu	v0,v0,-112
a080270c:	ac4300d4 	sw	v1,212(v0)
a0802710:	3c02a081 	lui	v0,0xa081
a0802714:	2443c554 	addiu	v1,v0,-15020
a0802718:	3c02a081 	lui	v0,0xa081
a080271c:	2442ff90 	addiu	v0,v0,-112
a0802720:	ac4300d8 	sw	v1,216(v0)
a0802724:	3c02a081 	lui	v0,0xa081
a0802728:	2443c938 	addiu	v1,v0,-14024
a080272c:	3c02a081 	lui	v0,0xa081
a0802730:	2442ff90 	addiu	v0,v0,-112
a0802734:	ac4300dc 	sw	v1,220(v0)
a0802738:	3c02a080 	lui	v0,0xa080
a080273c:	24431df4 	addiu	v1,v0,7668
a0802740:	3c02a081 	lui	v0,0xa081
a0802744:	2442ff90 	addiu	v0,v0,-112
a0802748:	ac4300fc 	sw	v1,252(v0)
a080274c:	03c0e821 	move	sp,s8
a0802750:	8fbe0004 	lw	s8,4(sp)
a0802754:	27bd0008 	addiu	sp,sp,8
a0802758:	03e00008 	jr	ra
a080275c:	00000000 	nop

a0802760 <irq_timer>:
a0802760:	27bdffe8 	addiu	sp,sp,-24
a0802764:	afbf0014 	sw	ra,20(sp)
a0802768:	afbe0010 	sw	s8,16(sp)
a080276c:	03a0f021 	move	s8,sp
a0802770:	3c02a081 	lui	v0,0xa081
a0802774:	8c42d940 	lw	v0,-9920(v0)
a0802778:	8c430148 	lw	v1,328(v0)
a080277c:	24020001 	li	v0,1
a0802780:	14620005 	bne	v1,v0,a0802798 <irq_timer+0x38>
a0802784:	00000000 	nop
a0802788:	3c02a081 	lui	v0,0xa081
a080278c:	8c43d94c 	lw	v1,-9908(v0)
a0802790:	3c02a081 	lui	v0,0xa081
a0802794:	ac43d930 	sw	v1,-9936(v0)
a0802798:	0c2000f8 	jal	a08003e0 <do_scheduler>
a080279c:	00000000 	nop
a08027a0:	3c02a081 	lui	v0,0xa081
a08027a4:	8c43f380 	lw	v1,-3200(v0)
a08027a8:	3c020001 	lui	v0,0x1
a08027ac:	344286a0 	ori	v0,v0,0x86a0
a08027b0:	00621821 	addu	v1,v1,v0
a08027b4:	3c02a081 	lui	v0,0xa081
a08027b8:	ac43f380 	sw	v1,-3200(v0)
a08027bc:	0c2000c8 	jal	a0800320 <reset_timer>
a08027c0:	00000000 	nop
a08027c4:	0c200436 	jal	a08010d8 <screen_reflush>
a08027c8:	00000000 	nop
a08027cc:	3c02a081 	lui	v0,0xa081
a08027d0:	8c42d940 	lw	v0,-9920(v0)
a08027d4:	8c430148 	lw	v1,328(v0)
a08027d8:	24020001 	li	v0,1
a08027dc:	14620005 	bne	v1,v0,a08027f4 <irq_timer+0x94>
a08027e0:	00000000 	nop
a08027e4:	3c02a081 	lui	v0,0xa081
a08027e8:	8c43d930 	lw	v1,-9936(v0)
a08027ec:	3c02a081 	lui	v0,0xa081
a08027f0:	ac43d94c 	sw	v1,-9908(v0)
a08027f4:	03c0e821 	move	sp,s8
a08027f8:	8fbf0014 	lw	ra,20(sp)
a08027fc:	8fbe0010 	lw	s8,16(sp)
a0802800:	27bd0018 	addiu	sp,sp,24
a0802804:	03e00008 	jr	ra
a0802808:	00000000 	nop

a080280c <interrupt_helper>:
a080280c:	27bdffe0 	addiu	sp,sp,-32
a0802810:	afbf001c 	sw	ra,28(sp)
a0802814:	afbe0018 	sw	s8,24(sp)
a0802818:	03a0f021 	move	s8,sp
a080281c:	afc40020 	sw	a0,32(s8)
a0802820:	afc50024 	sw	a1,36(s8)
a0802824:	8fc30020 	lw	v1,32(s8)
a0802828:	8fc20024 	lw	v0,36(s8)
a080282c:	00621024 	and	v0,v1,v0
a0802830:	3042ff00 	andi	v0,v0,0xff00
a0802834:	afc20010 	sw	v0,16(s8)
a0802838:	8fc30010 	lw	v1,16(s8)
a080283c:	34028000 	li	v0,0x8000
a0802840:	14620005 	bne	v1,v0,a0802858 <interrupt_helper+0x4c>
a0802844:	00000000 	nop
a0802848:	0c2009d8 	jal	a0802760 <irq_timer>
a080284c:	00000000 	nop
a0802850:	08200a2b 	j	a08028ac <interrupt_helper+0xa0>
a0802854:	00000000 	nop
a0802858:	8fc30010 	lw	v1,16(s8)
a080285c:	24020800 	li	v0,2048
a0802860:	1462000c 	bne	v1,v0,a0802894 <interrupt_helper+0x88>
a0802864:	00000000 	nop
a0802868:	3c02bfd0 	lui	v0,0xbfd0
a080286c:	34441058 	ori	a0,v0,0x1058
a0802870:	0c20049c 	jal	a0801270 <reg_read_32>
a0802874:	00000000 	nop
a0802878:	30420008 	andi	v0,v0,0x8
a080287c:	10400005 	beqz	v0,a0802894 <interrupt_helper+0x88>
a0802880:	00000000 	nop
a0802884:	0c200547 	jal	a080151c <mac_irq_handle>
a0802888:	00000000 	nop
a080288c:	08200a2b 	j	a08028ac <interrupt_helper+0xa0>
a0802890:	00000000 	nop
a0802894:	3c02a081 	lui	v0,0xa081
a0802898:	2444ce30 	addiu	a0,v0,-12752
a080289c:	0c201981 	jal	a0806604 <printk>
a08028a0:	00000000 	nop
a08028a4:	08200a29 	j	a08028a4 <interrupt_helper+0x98>
a08028a8:	00000000 	nop
a08028ac:	03c0e821 	move	sp,s8
a08028b0:	8fbf001c 	lw	ra,28(sp)
a08028b4:	8fbe0018 	lw	s8,24(sp)
a08028b8:	27bd0020 	addiu	sp,sp,32
a08028bc:	03e00008 	jr	ra
a08028c0:	00000000 	nop

a08028c4 <other_exception_handler>:
a08028c4:	27bdffd0 	addiu	sp,sp,-48
a08028c8:	afbf002c 	sw	ra,44(sp)
a08028cc:	afbe0028 	sw	s8,40(sp)
a08028d0:	03a0f021 	move	s8,sp
a08028d4:	24040001 	li	a0,1
a08028d8:	24050010 	li	a1,16
a08028dc:	0c2002a0 	jal	a0800a80 <vt100_move_cursor>
a08028e0:	00000000 	nop
a08028e4:	3c02a081 	lui	v0,0xa081
a08028e8:	8c42d940 	lw	v0,-9920(v0)
a08028ec:	8c43012c 	lw	v1,300(v0)
a08028f0:	3c02a081 	lui	v0,0xa081
a08028f4:	2444ce40 	addiu	a0,v0,-12736
a08028f8:	00602821 	move	a1,v1
a08028fc:	0c201981 	jal	a0806604 <printk>
a0802900:	00000000 	nop
a0802904:	3c02a081 	lui	v0,0xa081
a0802908:	8c42d940 	lw	v0,-9920(v0)
a080290c:	8c42012c 	lw	v0,300(v0)
a0802910:	00021882 	srl	v1,v0,0x2
a0802914:	3c02a081 	lui	v0,0xa081
a0802918:	2444ce4c 	addiu	a0,v0,-12724
a080291c:	00602821 	move	a1,v1
a0802920:	0c201981 	jal	a0806604 <printk>
a0802924:	00000000 	nop
a0802928:	0c2000e6 	jal	a0800398 <get_cp0_badvaddr>
a080292c:	00000000 	nop
a0802930:	00401821 	move	v1,v0
a0802934:	3c02a081 	lui	v0,0xa081
a0802938:	2444ce58 	addiu	a0,v0,-12712
a080293c:	00602821 	move	a1,v1
a0802940:	0c201981 	jal	a0806604 <printk>
a0802944:	00000000 	nop
a0802948:	3c02a081 	lui	v0,0xa081
a080294c:	8c42d940 	lw	v0,-9920(v0)
a0802950:	8c430130 	lw	v1,304(v0)
a0802954:	3c02a081 	lui	v0,0xa081
a0802958:	2444ce68 	addiu	a0,v0,-12696
a080295c:	00602821 	move	a1,v1
a0802960:	0c201981 	jal	a0806604 <printk>
a0802964:	00000000 	nop
a0802968:	08200a5a 	j	a0802968 <other_exception_handler+0xa4>
a080296c:	00000000 	nop

a0802970 <spin_lock_init>:
a0802970:	27bdfff8 	addiu	sp,sp,-8
a0802974:	afbe0004 	sw	s8,4(sp)
a0802978:	03a0f021 	move	s8,sp
a080297c:	afc40008 	sw	a0,8(s8)
a0802980:	8fc20008 	lw	v0,8(s8)
a0802984:	ac400000 	sw	zero,0(v0)
a0802988:	03c0e821 	move	sp,s8
a080298c:	8fbe0004 	lw	s8,4(sp)
a0802990:	27bd0008 	addiu	sp,sp,8
a0802994:	03e00008 	jr	ra
a0802998:	00000000 	nop

a080299c <spin_lock_acquire>:
a080299c:	27bdfff8 	addiu	sp,sp,-8
a08029a0:	afbe0004 	sw	s8,4(sp)
a08029a4:	03a0f021 	move	s8,sp
a08029a8:	afc40008 	sw	a0,8(s8)
a08029ac:	8fc20008 	lw	v0,8(s8)
a08029b0:	8c430000 	lw	v1,0(v0)
a08029b4:	24020001 	li	v0,1
a08029b8:	1062fffc 	beq	v1,v0,a08029ac <spin_lock_acquire+0x10>
a08029bc:	00000000 	nop
a08029c0:	8fc30008 	lw	v1,8(s8)
a08029c4:	24020001 	li	v0,1
a08029c8:	ac620000 	sw	v0,0(v1)
a08029cc:	03c0e821 	move	sp,s8
a08029d0:	8fbe0004 	lw	s8,4(sp)
a08029d4:	27bd0008 	addiu	sp,sp,8
a08029d8:	03e00008 	jr	ra
a08029dc:	00000000 	nop

a08029e0 <spin_lock_release>:
a08029e0:	27bdfff8 	addiu	sp,sp,-8
a08029e4:	afbe0004 	sw	s8,4(sp)
a08029e8:	03a0f021 	move	s8,sp
a08029ec:	afc40008 	sw	a0,8(s8)
a08029f0:	8fc20008 	lw	v0,8(s8)
a08029f4:	ac400000 	sw	zero,0(v0)
a08029f8:	03c0e821 	move	sp,s8
a08029fc:	8fbe0004 	lw	s8,4(sp)
a0802a00:	27bd0008 	addiu	sp,sp,8
a0802a04:	03e00008 	jr	ra
a0802a08:	00000000 	nop

a0802a0c <do_mutex_lock_init>:
a0802a0c:	27bdffe8 	addiu	sp,sp,-24
a0802a10:	afbf0014 	sw	ra,20(sp)
a0802a14:	afbe0010 	sw	s8,16(sp)
a0802a18:	03a0f021 	move	s8,sp
a0802a1c:	afc40018 	sw	a0,24(s8)
a0802a20:	8fc20018 	lw	v0,24(s8)
a0802a24:	ac400004 	sw	zero,4(v0)
a0802a28:	8fc20018 	lw	v0,24(s8)
a0802a2c:	24420008 	addiu	v0,v0,8
a0802a30:	00402021 	move	a0,v0
a0802a34:	0c20121c 	jal	a0804870 <queue_init>
a0802a38:	00000000 	nop
a0802a3c:	8fc20018 	lw	v0,24(s8)
a0802a40:	ac400010 	sw	zero,16(v0)
a0802a44:	8fc20018 	lw	v0,24(s8)
a0802a48:	ac400014 	sw	zero,20(v0)
a0802a4c:	03c0e821 	move	sp,s8
a0802a50:	8fbf0014 	lw	ra,20(sp)
a0802a54:	8fbe0010 	lw	s8,16(sp)
a0802a58:	27bd0018 	addiu	sp,sp,24
a0802a5c:	03e00008 	jr	ra
a0802a60:	00000000 	nop

a0802a64 <do_mutex_lock_acquire>:
a0802a64:	27bdffe0 	addiu	sp,sp,-32
a0802a68:	afbf001c 	sw	ra,28(sp)
a0802a6c:	afbe0018 	sw	s8,24(sp)
a0802a70:	03a0f021 	move	s8,sp
a0802a74:	afc40020 	sw	a0,32(s8)
a0802a78:	3c02a081 	lui	v0,0xa081
a0802a7c:	8c43d940 	lw	v1,-9920(v0)
a0802a80:	8fc20020 	lw	v0,32(s8)
a0802a84:	8c420000 	lw	v0,0(v0)
a0802a88:	2442005a 	addiu	v0,v0,90
a0802a8c:	00021080 	sll	v0,v0,0x2
a0802a90:	00621021 	addu	v0,v1,v0
a0802a94:	24030001 	li	v1,1
a0802a98:	ac430004 	sw	v1,4(v0)
a0802a9c:	8fc20020 	lw	v0,32(s8)
a0802aa0:	8c420004 	lw	v0,4(v0)
a0802aa4:	14400019 	bnez	v0,a0802b0c <do_mutex_lock_acquire+0xa8>
a0802aa8:	00000000 	nop
a0802aac:	8fc30020 	lw	v1,32(s8)
a0802ab0:	24020001 	li	v0,1
a0802ab4:	ac620004 	sw	v0,4(v1)
a0802ab8:	3c02a081 	lui	v0,0xa081
a0802abc:	8c42d940 	lw	v0,-9920(v0)
a0802ac0:	8c430148 	lw	v1,328(v0)
a0802ac4:	8fc20020 	lw	v0,32(s8)
a0802ac8:	ac430010 	sw	v1,16(v0)
a0802acc:	3c02a081 	lui	v0,0xa081
a0802ad0:	8c42d940 	lw	v0,-9920(v0)
a0802ad4:	00401821 	move	v1,v0
a0802ad8:	8fc20020 	lw	v0,32(s8)
a0802adc:	ac430014 	sw	v1,20(v0)
a0802ae0:	3c02a081 	lui	v0,0xa081
a0802ae4:	8c43d940 	lw	v1,-9920(v0)
a0802ae8:	8fc20020 	lw	v0,32(s8)
a0802aec:	8c420000 	lw	v0,0(v0)
a0802af0:	2442005a 	addiu	v0,v0,90
a0802af4:	00021080 	sll	v0,v0,0x2
a0802af8:	00621021 	addu	v0,v1,v0
a0802afc:	24030002 	li	v1,2
a0802b00:	ac430004 	sw	v1,4(v0)
a0802b04:	08200af2 	j	a0802bc8 <do_mutex_lock_acquire+0x164>
a0802b08:	00000000 	nop
a0802b0c:	afc00010 	sw	zero,16(s8)
a0802b10:	08200ae0 	j	a0802b80 <do_mutex_lock_acquire+0x11c>
a0802b14:	00000000 	nop
a0802b18:	3c02a081 	lui	v0,0xa081
a0802b1c:	8c43d940 	lw	v1,-9920(v0)
a0802b20:	8fc20010 	lw	v0,16(s8)
a0802b24:	2442005a 	addiu	v0,v0,90
a0802b28:	00021080 	sll	v0,v0,0x2
a0802b2c:	00621021 	addu	v0,v1,v0
a0802b30:	8c430004 	lw	v1,4(v0)
a0802b34:	24020002 	li	v0,2
a0802b38:	1462000e 	bne	v1,v0,a0802b74 <do_mutex_lock_acquire+0x110>
a0802b3c:	00000000 	nop
a0802b40:	8fc20010 	lw	v0,16(s8)
a0802b44:	000218c0 	sll	v1,v0,0x3
a0802b48:	00031080 	sll	v0,v1,0x2
a0802b4c:	00431823 	subu	v1,v0,v1
a0802b50:	3c02a084 	lui	v0,0xa084
a0802b54:	24424e90 	addiu	v0,v0,20112
a0802b58:	00621821 	addu	v1,v1,v0
a0802b5c:	3c02a081 	lui	v0,0xa081
a0802b60:	8c42d940 	lw	v0,-9920(v0)
a0802b64:	00602021 	move	a0,v1
a0802b68:	00402821 	move	a1,v0
a0802b6c:	0c200af8 	jal	a0802be0 <do_mutex_lock_release>
a0802b70:	00000000 	nop
a0802b74:	8fc20010 	lw	v0,16(s8)
a0802b78:	24420001 	addiu	v0,v0,1
a0802b7c:	afc20010 	sw	v0,16(s8)
a0802b80:	8fc20010 	lw	v0,16(s8)
a0802b84:	28420010 	slti	v0,v0,16
a0802b88:	1440ffe3 	bnez	v0,a0802b18 <do_mutex_lock_acquire+0xb4>
a0802b8c:	00000000 	nop
a0802b90:	3c02a081 	lui	v0,0xa081
a0802b94:	8c43d940 	lw	v1,-9920(v0)
a0802b98:	8fc20020 	lw	v0,32(s8)
a0802b9c:	8c420000 	lw	v0,0(v0)
a0802ba0:	2442005a 	addiu	v0,v0,90
a0802ba4:	00021080 	sll	v0,v0,0x2
a0802ba8:	00621021 	addu	v0,v1,v0
a0802bac:	24030003 	li	v1,3
a0802bb0:	ac430004 	sw	v1,4(v0)
a0802bb4:	8fc20020 	lw	v0,32(s8)
a0802bb8:	24420008 	addiu	v0,v0,8
a0802bbc:	00402021 	move	a0,v0
a0802bc0:	0c200df2 	jal	a08037c8 <do_block>
a0802bc4:	00000000 	nop
a0802bc8:	03c0e821 	move	sp,s8
a0802bcc:	8fbf001c 	lw	ra,28(sp)
a0802bd0:	8fbe0018 	lw	s8,24(sp)
a0802bd4:	27bd0020 	addiu	sp,sp,32
a0802bd8:	03e00008 	jr	ra
a0802bdc:	00000000 	nop

a0802be0 <do_mutex_lock_release>:
a0802be0:	27bdffe8 	addiu	sp,sp,-24
a0802be4:	afbf0014 	sw	ra,20(sp)
a0802be8:	afbe0010 	sw	s8,16(sp)
a0802bec:	03a0f021 	move	s8,sp
a0802bf0:	afc40018 	sw	a0,24(s8)
a0802bf4:	afc5001c 	sw	a1,28(s8)
a0802bf8:	8fc20018 	lw	v0,24(s8)
a0802bfc:	ac400014 	sw	zero,20(v0)
a0802c00:	8fc20018 	lw	v0,24(s8)
a0802c04:	ac400010 	sw	zero,16(v0)
a0802c08:	8fc20018 	lw	v0,24(s8)
a0802c0c:	ac400004 	sw	zero,4(v0)
a0802c10:	8fc20018 	lw	v0,24(s8)
a0802c14:	24420008 	addiu	v0,v0,8
a0802c18:	00402021 	move	a0,v0
a0802c1c:	0c200e2c 	jal	a08038b0 <do_unblock_one>
a0802c20:	00000000 	nop
a0802c24:	8fc20018 	lw	v0,24(s8)
a0802c28:	8c420000 	lw	v0,0(v0)
a0802c2c:	8fc3001c 	lw	v1,28(s8)
a0802c30:	2442005a 	addiu	v0,v0,90
a0802c34:	00021080 	sll	v0,v0,0x2
a0802c38:	00621021 	addu	v0,v1,v0
a0802c3c:	8c430004 	lw	v1,4(v0)
a0802c40:	24020002 	li	v0,2
a0802c44:	1462000f 	bne	v1,v0,a0802c84 <do_mutex_lock_release+0xa4>
a0802c48:	00000000 	nop
a0802c4c:	8fc20018 	lw	v0,24(s8)
a0802c50:	8c420000 	lw	v0,0(v0)
a0802c54:	8fc3001c 	lw	v1,28(s8)
a0802c58:	2442005a 	addiu	v0,v0,90
a0802c5c:	00021080 	sll	v0,v0,0x2
a0802c60:	00621021 	addu	v0,v1,v0
a0802c64:	24030001 	li	v1,1
a0802c68:	ac430004 	sw	v1,4(v0)
a0802c6c:	03c0e821 	move	sp,s8
a0802c70:	8fbf0014 	lw	ra,20(sp)
a0802c74:	8fbe0010 	lw	s8,16(sp)
a0802c78:	27bd0018 	addiu	sp,sp,24
a0802c7c:	03e00008 	jr	ra
a0802c80:	00000000 	nop
a0802c84:	3c02a081 	lui	v0,0xa081
a0802c88:	2444ce70 	addiu	a0,v0,-12688
a0802c8c:	0c201981 	jal	a0806604 <printk>
a0802c90:	00000000 	nop
a0802c94:	08200b25 	j	a0802c94 <do_mutex_lock_release+0xb4>
a0802c98:	00000000 	nop
a0802c9c:	00000000 	nop

a0802ca0 <do_semaphore_init>:
a0802ca0:	27bdffe8 	addiu	sp,sp,-24
a0802ca4:	afbf0014 	sw	ra,20(sp)
a0802ca8:	afbe0010 	sw	s8,16(sp)
a0802cac:	03a0f021 	move	s8,sp
a0802cb0:	afc40018 	sw	a0,24(s8)
a0802cb4:	afc5001c 	sw	a1,28(s8)
a0802cb8:	8fc2001c 	lw	v0,28(s8)
a0802cbc:	04410007 	bgez	v0,a0802cdc <do_semaphore_init+0x3c>
a0802cc0:	00000000 	nop
a0802cc4:	3c02a081 	lui	v0,0xa081
a0802cc8:	2444ce90 	addiu	a0,v0,-12656
a0802ccc:	0c201981 	jal	a0806604 <printk>
a0802cd0:	00000000 	nop
a0802cd4:	08200b35 	j	a0802cd4 <do_semaphore_init+0x34>
a0802cd8:	00000000 	nop
a0802cdc:	8fc30018 	lw	v1,24(s8)
a0802ce0:	8fc2001c 	lw	v0,28(s8)
a0802ce4:	ac620000 	sw	v0,0(v1)
a0802ce8:	8fc20018 	lw	v0,24(s8)
a0802cec:	24420004 	addiu	v0,v0,4
a0802cf0:	00402021 	move	a0,v0
a0802cf4:	0c20121c 	jal	a0804870 <queue_init>
a0802cf8:	00000000 	nop
a0802cfc:	03c0e821 	move	sp,s8
a0802d00:	8fbf0014 	lw	ra,20(sp)
a0802d04:	8fbe0010 	lw	s8,16(sp)
a0802d08:	27bd0018 	addiu	sp,sp,24
a0802d0c:	03e00008 	jr	ra
a0802d10:	00000000 	nop

a0802d14 <do_semaphore_up>:
a0802d14:	27bdffe8 	addiu	sp,sp,-24
a0802d18:	afbf0014 	sw	ra,20(sp)
a0802d1c:	afbe0010 	sw	s8,16(sp)
a0802d20:	03a0f021 	move	s8,sp
a0802d24:	afc40018 	sw	a0,24(s8)
a0802d28:	8fc20018 	lw	v0,24(s8)
a0802d2c:	8c420000 	lw	v0,0(v0)
a0802d30:	24430001 	addiu	v1,v0,1
a0802d34:	8fc20018 	lw	v0,24(s8)
a0802d38:	ac430000 	sw	v1,0(v0)
a0802d3c:	8fc20018 	lw	v0,24(s8)
a0802d40:	8c420000 	lw	v0,0(v0)
a0802d44:	1c400006 	bgtz	v0,a0802d60 <do_semaphore_up+0x4c>
a0802d48:	00000000 	nop
a0802d4c:	8fc20018 	lw	v0,24(s8)
a0802d50:	24420004 	addiu	v0,v0,4
a0802d54:	00402021 	move	a0,v0
a0802d58:	0c200e2c 	jal	a08038b0 <do_unblock_one>
a0802d5c:	00000000 	nop
a0802d60:	03c0e821 	move	sp,s8
a0802d64:	8fbf0014 	lw	ra,20(sp)
a0802d68:	8fbe0010 	lw	s8,16(sp)
a0802d6c:	27bd0018 	addiu	sp,sp,24
a0802d70:	03e00008 	jr	ra
a0802d74:	00000000 	nop

a0802d78 <do_semaphore_down>:
a0802d78:	27bdffe8 	addiu	sp,sp,-24
a0802d7c:	afbf0014 	sw	ra,20(sp)
a0802d80:	afbe0010 	sw	s8,16(sp)
a0802d84:	03a0f021 	move	s8,sp
a0802d88:	afc40018 	sw	a0,24(s8)
a0802d8c:	8fc20018 	lw	v0,24(s8)
a0802d90:	8c420000 	lw	v0,0(v0)
a0802d94:	2443ffff 	addiu	v1,v0,-1
a0802d98:	8fc20018 	lw	v0,24(s8)
a0802d9c:	ac430000 	sw	v1,0(v0)
a0802da0:	8fc20018 	lw	v0,24(s8)
a0802da4:	8c420000 	lw	v0,0(v0)
a0802da8:	04410011 	bgez	v0,a0802df0 <do_semaphore_down+0x78>
a0802dac:	00000000 	nop
a0802db0:	3c02a081 	lui	v0,0xa081
a0802db4:	8c42d940 	lw	v0,-9920(v0)
a0802db8:	ac400150 	sw	zero,336(v0)
a0802dbc:	3c02a081 	lui	v0,0xa081
a0802dc0:	8c43d940 	lw	v1,-9920(v0)
a0802dc4:	8fc20018 	lw	v0,24(s8)
a0802dc8:	24420004 	addiu	v0,v0,4
a0802dcc:	ac6201b8 	sw	v0,440(v1)
a0802dd0:	8fc20018 	lw	v0,24(s8)
a0802dd4:	24430004 	addiu	v1,v0,4
a0802dd8:	3c02a081 	lui	v0,0xa081
a0802ddc:	8c42d940 	lw	v0,-9920(v0)
a0802de0:	00602021 	move	a0,v1
a0802de4:	00402821 	move	a1,v0
a0802de8:	0c20123e 	jal	a08048f8 <queue_push>
a0802dec:	00000000 	nop
a0802df0:	0c2000f8 	jal	a08003e0 <do_scheduler>
a0802df4:	00000000 	nop
a0802df8:	03c0e821 	move	sp,s8
a0802dfc:	8fbf0014 	lw	ra,20(sp)
a0802e00:	8fbe0010 	lw	s8,16(sp)
a0802e04:	27bd0018 	addiu	sp,sp,24
a0802e08:	03e00008 	jr	ra
a0802e0c:	00000000 	nop

a0802e10 <do_condition_init>:
a0802e10:	27bdffe8 	addiu	sp,sp,-24
a0802e14:	afbf0014 	sw	ra,20(sp)
a0802e18:	afbe0010 	sw	s8,16(sp)
a0802e1c:	03a0f021 	move	s8,sp
a0802e20:	afc40018 	sw	a0,24(s8)
a0802e24:	8fc20018 	lw	v0,24(s8)
a0802e28:	00402021 	move	a0,v0
a0802e2c:	0c20121c 	jal	a0804870 <queue_init>
a0802e30:	00000000 	nop
a0802e34:	03c0e821 	move	sp,s8
a0802e38:	8fbf0014 	lw	ra,20(sp)
a0802e3c:	8fbe0010 	lw	s8,16(sp)
a0802e40:	27bd0018 	addiu	sp,sp,24
a0802e44:	03e00008 	jr	ra
a0802e48:	00000000 	nop

a0802e4c <do_condition_wait>:
a0802e4c:	27bdffe0 	addiu	sp,sp,-32
a0802e50:	afbf001c 	sw	ra,28(sp)
a0802e54:	afbe0018 	sw	s8,24(sp)
a0802e58:	03a0f021 	move	s8,sp
a0802e5c:	afc40020 	sw	a0,32(s8)
a0802e60:	afc50024 	sw	a1,36(s8)
a0802e64:	3c02a081 	lui	v0,0xa081
a0802e68:	8c42d940 	lw	v0,-9920(v0)
a0802e6c:	8fc40020 	lw	a0,32(s8)
a0802e70:	00402821 	move	a1,v0
a0802e74:	0c200af8 	jal	a0802be0 <do_mutex_lock_release>
a0802e78:	00000000 	nop
a0802e7c:	afc00010 	sw	zero,16(s8)
a0802e80:	08200bbc 	j	a0802ef0 <do_condition_wait+0xa4>
a0802e84:	00000000 	nop
a0802e88:	3c02a081 	lui	v0,0xa081
a0802e8c:	8c43d940 	lw	v1,-9920(v0)
a0802e90:	8fc20010 	lw	v0,16(s8)
a0802e94:	2442005a 	addiu	v0,v0,90
a0802e98:	00021080 	sll	v0,v0,0x2
a0802e9c:	00621021 	addu	v0,v1,v0
a0802ea0:	8c430004 	lw	v1,4(v0)
a0802ea4:	24020002 	li	v0,2
a0802ea8:	1462000e 	bne	v1,v0,a0802ee4 <do_condition_wait+0x98>
a0802eac:	00000000 	nop
a0802eb0:	8fc20010 	lw	v0,16(s8)
a0802eb4:	000218c0 	sll	v1,v0,0x3
a0802eb8:	00031080 	sll	v0,v1,0x2
a0802ebc:	00431823 	subu	v1,v0,v1
a0802ec0:	3c02a084 	lui	v0,0xa084
a0802ec4:	24424e90 	addiu	v0,v0,20112
a0802ec8:	00621821 	addu	v1,v1,v0
a0802ecc:	3c02a081 	lui	v0,0xa081
a0802ed0:	8c42d940 	lw	v0,-9920(v0)
a0802ed4:	00602021 	move	a0,v1
a0802ed8:	00402821 	move	a1,v0
a0802edc:	0c200af8 	jal	a0802be0 <do_mutex_lock_release>
a0802ee0:	00000000 	nop
a0802ee4:	8fc20010 	lw	v0,16(s8)
a0802ee8:	24420001 	addiu	v0,v0,1
a0802eec:	afc20010 	sw	v0,16(s8)
a0802ef0:	8fc20010 	lw	v0,16(s8)
a0802ef4:	28420010 	slti	v0,v0,16
a0802ef8:	1440ffe3 	bnez	v0,a0802e88 <do_condition_wait+0x3c>
a0802efc:	00000000 	nop
a0802f00:	3c02a081 	lui	v0,0xa081
a0802f04:	8c43d940 	lw	v1,-9920(v0)
a0802f08:	8fc20020 	lw	v0,32(s8)
a0802f0c:	8c420000 	lw	v0,0(v0)
a0802f10:	2442005a 	addiu	v0,v0,90
a0802f14:	00021080 	sll	v0,v0,0x2
a0802f18:	00621021 	addu	v0,v1,v0
a0802f1c:	24030003 	li	v1,3
a0802f20:	ac430004 	sw	v1,4(v0)
a0802f24:	3c02a081 	lui	v0,0xa081
a0802f28:	8c42d940 	lw	v0,-9920(v0)
a0802f2c:	ac400150 	sw	zero,336(v0)
a0802f30:	3c02a081 	lui	v0,0xa081
a0802f34:	8c43d940 	lw	v1,-9920(v0)
a0802f38:	8fc20024 	lw	v0,36(s8)
a0802f3c:	ac6201b8 	sw	v0,440(v1)
a0802f40:	8fc30024 	lw	v1,36(s8)
a0802f44:	3c02a081 	lui	v0,0xa081
a0802f48:	8c42d940 	lw	v0,-9920(v0)
a0802f4c:	00602021 	move	a0,v1
a0802f50:	00402821 	move	a1,v0
a0802f54:	0c20123e 	jal	a08048f8 <queue_push>
a0802f58:	00000000 	nop
a0802f5c:	0c2000f8 	jal	a08003e0 <do_scheduler>
a0802f60:	00000000 	nop
a0802f64:	8fc40020 	lw	a0,32(s8)
a0802f68:	0c200a99 	jal	a0802a64 <do_mutex_lock_acquire>
a0802f6c:	00000000 	nop
a0802f70:	03c0e821 	move	sp,s8
a0802f74:	8fbf001c 	lw	ra,28(sp)
a0802f78:	8fbe0018 	lw	s8,24(sp)
a0802f7c:	27bd0020 	addiu	sp,sp,32
a0802f80:	03e00008 	jr	ra
a0802f84:	00000000 	nop

a0802f88 <do_condition_signal>:
a0802f88:	27bdffe8 	addiu	sp,sp,-24
a0802f8c:	afbf0014 	sw	ra,20(sp)
a0802f90:	afbe0010 	sw	s8,16(sp)
a0802f94:	03a0f021 	move	s8,sp
a0802f98:	afc40018 	sw	a0,24(s8)
a0802f9c:	8fc20018 	lw	v0,24(s8)
a0802fa0:	00402021 	move	a0,v0
a0802fa4:	0c200e2c 	jal	a08038b0 <do_unblock_one>
a0802fa8:	00000000 	nop
a0802fac:	03c0e821 	move	sp,s8
a0802fb0:	8fbf0014 	lw	ra,20(sp)
a0802fb4:	8fbe0010 	lw	s8,16(sp)
a0802fb8:	27bd0018 	addiu	sp,sp,24
a0802fbc:	03e00008 	jr	ra
a0802fc0:	00000000 	nop

a0802fc4 <do_condition_broadcast>:
a0802fc4:	27bdffe8 	addiu	sp,sp,-24
a0802fc8:	afbf0014 	sw	ra,20(sp)
a0802fcc:	afbe0010 	sw	s8,16(sp)
a0802fd0:	03a0f021 	move	s8,sp
a0802fd4:	afc40018 	sw	a0,24(s8)
a0802fd8:	8fc20018 	lw	v0,24(s8)
a0802fdc:	00402021 	move	a0,v0
a0802fe0:	0c200e4f 	jal	a080393c <do_unblock_all>
a0802fe4:	00000000 	nop
a0802fe8:	03c0e821 	move	sp,s8
a0802fec:	8fbf0014 	lw	ra,20(sp)
a0802ff0:	8fbe0010 	lw	s8,16(sp)
a0802ff4:	27bd0018 	addiu	sp,sp,24
a0802ff8:	03e00008 	jr	ra
a0802ffc:	00000000 	nop

a0803000 <do_barrier_init>:
a0803000:	27bdffe8 	addiu	sp,sp,-24
a0803004:	afbf0014 	sw	ra,20(sp)
a0803008:	afbe0010 	sw	s8,16(sp)
a080300c:	03a0f021 	move	s8,sp
a0803010:	afc40018 	sw	a0,24(s8)
a0803014:	afc5001c 	sw	a1,28(s8)
a0803018:	8fc20018 	lw	v0,24(s8)
a080301c:	00402021 	move	a0,v0
a0803020:	0c20121c 	jal	a0804870 <queue_init>
a0803024:	00000000 	nop
a0803028:	8fc30018 	lw	v1,24(s8)
a080302c:	8fc2001c 	lw	v0,28(s8)
a0803030:	ac62000c 	sw	v0,12(v1)
a0803034:	8fc20018 	lw	v0,24(s8)
a0803038:	ac400008 	sw	zero,8(v0)
a080303c:	03c0e821 	move	sp,s8
a0803040:	8fbf0014 	lw	ra,20(sp)
a0803044:	8fbe0010 	lw	s8,16(sp)
a0803048:	27bd0018 	addiu	sp,sp,24
a080304c:	03e00008 	jr	ra
a0803050:	00000000 	nop

a0803054 <do_barrier_wait>:
a0803054:	27bdffe0 	addiu	sp,sp,-32
a0803058:	afbf001c 	sw	ra,28(sp)
a080305c:	afbe0018 	sw	s8,24(sp)
a0803060:	03a0f021 	move	s8,sp
a0803064:	afc40020 	sw	a0,32(s8)
a0803068:	8fc20020 	lw	v0,32(s8)
a080306c:	8c420008 	lw	v0,8(v0)
a0803070:	24430001 	addiu	v1,v0,1
a0803074:	8fc20020 	lw	v0,32(s8)
a0803078:	ac430008 	sw	v1,8(v0)
a080307c:	8fc20020 	lw	v0,32(s8)
a0803080:	8c430008 	lw	v1,8(v0)
a0803084:	8fc20020 	lw	v0,32(s8)
a0803088:	8c42000c 	lw	v0,12(v0)
a080308c:	0062102a 	slt	v0,v1,v0
a0803090:	14400009 	bnez	v0,a08030b8 <do_barrier_wait+0x64>
a0803094:	00000000 	nop
a0803098:	8fc20020 	lw	v0,32(s8)
a080309c:	00402021 	move	a0,v0
a08030a0:	0c200e4f 	jal	a080393c <do_unblock_all>
a08030a4:	00000000 	nop
a08030a8:	8fc20020 	lw	v0,32(s8)
a08030ac:	ac400008 	sw	zero,8(v0)
a08030b0:	08200c5f 	j	a080317c <do_barrier_wait+0x128>
a08030b4:	00000000 	nop
a08030b8:	afc00010 	sw	zero,16(s8)
a08030bc:	08200c4b 	j	a080312c <do_barrier_wait+0xd8>
a08030c0:	00000000 	nop
a08030c4:	3c02a081 	lui	v0,0xa081
a08030c8:	8c43d940 	lw	v1,-9920(v0)
a08030cc:	8fc20010 	lw	v0,16(s8)
a08030d0:	2442005a 	addiu	v0,v0,90
a08030d4:	00021080 	sll	v0,v0,0x2
a08030d8:	00621021 	addu	v0,v1,v0
a08030dc:	8c430004 	lw	v1,4(v0)
a08030e0:	24020002 	li	v0,2
a08030e4:	1462000e 	bne	v1,v0,a0803120 <do_barrier_wait+0xcc>
a08030e8:	00000000 	nop
a08030ec:	8fc20010 	lw	v0,16(s8)
a08030f0:	000218c0 	sll	v1,v0,0x3
a08030f4:	00031080 	sll	v0,v1,0x2
a08030f8:	00431823 	subu	v1,v0,v1
a08030fc:	3c02a084 	lui	v0,0xa084
a0803100:	24424e90 	addiu	v0,v0,20112
a0803104:	00621821 	addu	v1,v1,v0
a0803108:	3c02a081 	lui	v0,0xa081
a080310c:	8c42d940 	lw	v0,-9920(v0)
a0803110:	00602021 	move	a0,v1
a0803114:	00402821 	move	a1,v0
a0803118:	0c200af8 	jal	a0802be0 <do_mutex_lock_release>
a080311c:	00000000 	nop
a0803120:	8fc20010 	lw	v0,16(s8)
a0803124:	24420001 	addiu	v0,v0,1
a0803128:	afc20010 	sw	v0,16(s8)
a080312c:	8fc20010 	lw	v0,16(s8)
a0803130:	28420010 	slti	v0,v0,16
a0803134:	1440ffe3 	bnez	v0,a08030c4 <do_barrier_wait+0x70>
a0803138:	00000000 	nop
a080313c:	3c02a081 	lui	v0,0xa081
a0803140:	8c42d940 	lw	v0,-9920(v0)
a0803144:	ac400150 	sw	zero,336(v0)
a0803148:	3c02a081 	lui	v0,0xa081
a080314c:	8c43d940 	lw	v1,-9920(v0)
a0803150:	8fc20020 	lw	v0,32(s8)
a0803154:	ac6201b8 	sw	v0,440(v1)
a0803158:	8fc30020 	lw	v1,32(s8)
a080315c:	3c02a081 	lui	v0,0xa081
a0803160:	8c42d940 	lw	v0,-9920(v0)
a0803164:	00602021 	move	a0,v1
a0803168:	00402821 	move	a1,v0
a080316c:	0c20123e 	jal	a08048f8 <queue_push>
a0803170:	00000000 	nop
a0803174:	0c2000f8 	jal	a08003e0 <do_scheduler>
a0803178:	00000000 	nop
a080317c:	03c0e821 	move	sp,s8
a0803180:	8fbf001c 	lw	ra,28(sp)
a0803184:	8fbe0018 	lw	s8,24(sp)
a0803188:	27bd0020 	addiu	sp,sp,32
a080318c:	03e00008 	jr	ra
a0803190:	00000000 	nop
	...

a08031a0 <quick_sort>:
a08031a0:	27bdffd8 	addiu	sp,sp,-40
a08031a4:	afbf0024 	sw	ra,36(sp)
a08031a8:	afbe0020 	sw	s8,32(sp)
a08031ac:	03a0f021 	move	s8,sp
a08031b0:	afc40028 	sw	a0,40(s8)
a08031b4:	afc5002c 	sw	a1,44(s8)
a08031b8:	afc60030 	sw	a2,48(s8)
a08031bc:	8fc2002c 	lw	v0,44(s8)
a08031c0:	8fc30030 	lw	v1,48(s8)
a08031c4:	0043102a 	slt	v0,v0,v1
a08031c8:	10400072 	beqz	v0,a0803394 <quick_sort+0x1f4>
a08031cc:	00000000 	nop
a08031d0:	8fc2002c 	lw	v0,44(s8)
a08031d4:	afc20018 	sw	v0,24(s8)
a08031d8:	8fc20030 	lw	v0,48(s8)
a08031dc:	afc20014 	sw	v0,20(s8)
a08031e0:	8fc2002c 	lw	v0,44(s8)
a08031e4:	00021880 	sll	v1,v0,0x2
a08031e8:	8fc20028 	lw	v0,40(s8)
a08031ec:	00431021 	addu	v0,v0,v1
a08031f0:	8c420000 	lw	v0,0(v0)
a08031f4:	afc20010 	sw	v0,16(s8)
a08031f8:	08200ccc 	j	a0803330 <quick_sort+0x190>
a08031fc:	00000000 	nop
a0803200:	8fc20014 	lw	v0,20(s8)
a0803204:	2442ffff 	addiu	v0,v0,-1
a0803208:	afc20014 	sw	v0,20(s8)
a080320c:	8fc20018 	lw	v0,24(s8)
a0803210:	8fc30014 	lw	v1,20(s8)
a0803214:	0043102a 	slt	v0,v0,v1
a0803218:	1040000c 	beqz	v0,a080324c <quick_sort+0xac>
a080321c:	00000000 	nop
a0803220:	8fc20014 	lw	v0,20(s8)
a0803224:	00021880 	sll	v1,v0,0x2
a0803228:	8fc20028 	lw	v0,40(s8)
a080322c:	00431021 	addu	v0,v0,v1
a0803230:	8c420000 	lw	v0,0(v0)
a0803234:	8c430168 	lw	v1,360(v0)
a0803238:	8fc20010 	lw	v0,16(s8)
a080323c:	8c420168 	lw	v0,360(v0)
a0803240:	0062102b 	sltu	v0,v1,v0
a0803244:	1040ffee 	beqz	v0,a0803200 <quick_sort+0x60>
a0803248:	00000000 	nop
a080324c:	8fc20018 	lw	v0,24(s8)
a0803250:	8fc30014 	lw	v1,20(s8)
a0803254:	0043102a 	slt	v0,v0,v1
a0803258:	10400013 	beqz	v0,a08032a8 <quick_sort+0x108>
a080325c:	00000000 	nop
a0803260:	8fc20018 	lw	v0,24(s8)
a0803264:	00021880 	sll	v1,v0,0x2
a0803268:	8fc20028 	lw	v0,40(s8)
a080326c:	00432021 	addu	a0,v0,v1
a0803270:	8fc20014 	lw	v0,20(s8)
a0803274:	00021880 	sll	v1,v0,0x2
a0803278:	8fc20028 	lw	v0,40(s8)
a080327c:	00431021 	addu	v0,v0,v1
a0803280:	8c420000 	lw	v0,0(v0)
a0803284:	ac820000 	sw	v0,0(a0)
a0803288:	8fc20018 	lw	v0,24(s8)
a080328c:	24420001 	addiu	v0,v0,1
a0803290:	afc20018 	sw	v0,24(s8)
a0803294:	08200caa 	j	a08032a8 <quick_sort+0x108>
a0803298:	00000000 	nop
a080329c:	8fc20018 	lw	v0,24(s8)
a08032a0:	24420001 	addiu	v0,v0,1
a08032a4:	afc20018 	sw	v0,24(s8)
a08032a8:	8fc20018 	lw	v0,24(s8)
a08032ac:	8fc30014 	lw	v1,20(s8)
a08032b0:	0043102a 	slt	v0,v0,v1
a08032b4:	1040000c 	beqz	v0,a08032e8 <quick_sort+0x148>
a08032b8:	00000000 	nop
a08032bc:	8fc20018 	lw	v0,24(s8)
a08032c0:	00021880 	sll	v1,v0,0x2
a08032c4:	8fc20028 	lw	v0,40(s8)
a08032c8:	00431021 	addu	v0,v0,v1
a08032cc:	8c420000 	lw	v0,0(v0)
a08032d0:	8c430168 	lw	v1,360(v0)
a08032d4:	8fc20010 	lw	v0,16(s8)
a08032d8:	8c420168 	lw	v0,360(v0)
a08032dc:	0062102b 	sltu	v0,v1,v0
a08032e0:	1440ffee 	bnez	v0,a080329c <quick_sort+0xfc>
a08032e4:	00000000 	nop
a08032e8:	8fc20018 	lw	v0,24(s8)
a08032ec:	8fc30014 	lw	v1,20(s8)
a08032f0:	0043102a 	slt	v0,v0,v1
a08032f4:	1040000e 	beqz	v0,a0803330 <quick_sort+0x190>
a08032f8:	00000000 	nop
a08032fc:	8fc20014 	lw	v0,20(s8)
a0803300:	00021880 	sll	v1,v0,0x2
a0803304:	8fc20028 	lw	v0,40(s8)
a0803308:	00432021 	addu	a0,v0,v1
a080330c:	8fc20018 	lw	v0,24(s8)
a0803310:	00021880 	sll	v1,v0,0x2
a0803314:	8fc20028 	lw	v0,40(s8)
a0803318:	00431021 	addu	v0,v0,v1
a080331c:	8c420000 	lw	v0,0(v0)
a0803320:	ac820000 	sw	v0,0(a0)
a0803324:	8fc20014 	lw	v0,20(s8)
a0803328:	2442ffff 	addiu	v0,v0,-1
a080332c:	afc20014 	sw	v0,20(s8)
a0803330:	8fc20018 	lw	v0,24(s8)
a0803334:	8fc30014 	lw	v1,20(s8)
a0803338:	0043102a 	slt	v0,v0,v1
a080333c:	1440ffb3 	bnez	v0,a080320c <quick_sort+0x6c>
a0803340:	00000000 	nop
a0803344:	8fc20018 	lw	v0,24(s8)
a0803348:	00021880 	sll	v1,v0,0x2
a080334c:	8fc20028 	lw	v0,40(s8)
a0803350:	00431821 	addu	v1,v0,v1
a0803354:	8fc20010 	lw	v0,16(s8)
a0803358:	ac620000 	sw	v0,0(v1)
a080335c:	8fc20018 	lw	v0,24(s8)
a0803360:	2442ffff 	addiu	v0,v0,-1
a0803364:	8fc40028 	lw	a0,40(s8)
a0803368:	8fc5002c 	lw	a1,44(s8)
a080336c:	00403021 	move	a2,v0
a0803370:	0c200c68 	jal	a08031a0 <quick_sort>
a0803374:	00000000 	nop
a0803378:	8fc20018 	lw	v0,24(s8)
a080337c:	24420001 	addiu	v0,v0,1
a0803380:	8fc40028 	lw	a0,40(s8)
a0803384:	00402821 	move	a1,v0
a0803388:	8fc60030 	lw	a2,48(s8)
a080338c:	0c200c68 	jal	a08031a0 <quick_sort>
a0803390:	00000000 	nop
a0803394:	03c0e821 	move	sp,s8
a0803398:	8fbf0024 	lw	ra,36(sp)
a080339c:	8fbe0020 	lw	s8,32(sp)
a08033a0:	27bd0028 	addiu	sp,sp,40
a08033a4:	03e00008 	jr	ra
a08033a8:	00000000 	nop

a08033ac <queue_sort>:
a08033ac:	27bdff98 	addiu	sp,sp,-104
a08033b0:	afbf0064 	sw	ra,100(sp)
a08033b4:	afbe0060 	sw	s8,96(sp)
a08033b8:	afb0005c 	sw	s0,92(sp)
a08033bc:	03a0f021 	move	s8,sp
a08033c0:	afc40068 	sw	a0,104(s8)
a08033c4:	afc00014 	sw	zero,20(s8)
a08033c8:	08200d00 	j	a0803400 <queue_sort+0x54>
a08033cc:	00000000 	nop
a08033d0:	8fd00014 	lw	s0,20(s8)
a08033d4:	8fc40068 	lw	a0,104(s8)
a08033d8:	0c201268 	jal	a08049a0 <queue_dequeue>
a08033dc:	00000000 	nop
a08033e0:	00402021 	move	a0,v0
a08033e4:	00101080 	sll	v0,s0,0x2
a08033e8:	27c30010 	addiu	v1,s8,16
a08033ec:	00621021 	addu	v0,v1,v0
a08033f0:	ac440008 	sw	a0,8(v0)
a08033f4:	8fc20014 	lw	v0,20(s8)
a08033f8:	24420001 	addiu	v0,v0,1
a08033fc:	afc20014 	sw	v0,20(s8)
a0803400:	8fc40068 	lw	a0,104(s8)
a0803404:	0c20122b 	jal	a08048ac <queue_is_empty>
a0803408:	00000000 	nop
a080340c:	1040fff0 	beqz	v0,a08033d0 <queue_sort+0x24>
a0803410:	00000000 	nop
a0803414:	8fc20014 	lw	v0,20(s8)
a0803418:	2443ffff 	addiu	v1,v0,-1
a080341c:	27c20018 	addiu	v0,s8,24
a0803420:	00402021 	move	a0,v0
a0803424:	00002821 	move	a1,zero
a0803428:	00603021 	move	a2,v1
a080342c:	0c200c68 	jal	a08031a0 <quick_sort>
a0803430:	00000000 	nop
a0803434:	afc00010 	sw	zero,16(s8)
a0803438:	08200d2e 	j	a08034b8 <queue_sort+0x10c>
a080343c:	00000000 	nop
a0803440:	8fc20010 	lw	v0,16(s8)
a0803444:	00021080 	sll	v0,v0,0x2
a0803448:	27c30010 	addiu	v1,s8,16
a080344c:	00621021 	addu	v0,v1,v0
a0803450:	8c420008 	lw	v0,8(v0)
a0803454:	8c430150 	lw	v1,336(v0)
a0803458:	24020002 	li	v0,2
a080345c:	1062000a 	beq	v1,v0,a0803488 <queue_sort+0xdc>
a0803460:	00000000 	nop
a0803464:	8fc20010 	lw	v0,16(s8)
a0803468:	00021080 	sll	v0,v0,0x2
a080346c:	27c30010 	addiu	v1,s8,16
a0803470:	00621021 	addu	v0,v1,v0
a0803474:	8c420008 	lw	v0,8(v0)
a0803478:	8c430150 	lw	v1,336(v0)
a080347c:	24020001 	li	v0,1
a0803480:	1462000a 	bne	v1,v0,a08034ac <queue_sort+0x100>
a0803484:	00000000 	nop
a0803488:	8fc20010 	lw	v0,16(s8)
a080348c:	00021080 	sll	v0,v0,0x2
a0803490:	27c30010 	addiu	v1,s8,16
a0803494:	00621021 	addu	v0,v1,v0
a0803498:	8c420008 	lw	v0,8(v0)
a080349c:	8fc40068 	lw	a0,104(s8)
a08034a0:	00402821 	move	a1,v0
a08034a4:	0c20123e 	jal	a08048f8 <queue_push>
a08034a8:	00000000 	nop
a08034ac:	8fc20010 	lw	v0,16(s8)
a08034b0:	24420001 	addiu	v0,v0,1
a08034b4:	afc20010 	sw	v0,16(s8)
a08034b8:	8fc20010 	lw	v0,16(s8)
a08034bc:	8fc30014 	lw	v1,20(s8)
a08034c0:	0043102a 	slt	v0,v0,v1
a08034c4:	1440ffde 	bnez	v0,a0803440 <queue_sort+0x94>
a08034c8:	00000000 	nop
a08034cc:	03c0e821 	move	sp,s8
a08034d0:	8fbf0064 	lw	ra,100(sp)
a08034d4:	8fbe0060 	lw	s8,96(sp)
a08034d8:	8fb0005c 	lw	s0,92(sp)
a08034dc:	27bd0068 	addiu	sp,sp,104
a08034e0:	03e00008 	jr	ra
a08034e4:	00000000 	nop

a08034e8 <check_sleeping>:
a08034e8:	27bdffd8 	addiu	sp,sp,-40
a08034ec:	afbf0024 	sw	ra,36(sp)
a08034f0:	afbe0020 	sw	s8,32(sp)
a08034f4:	03a0f021 	move	s8,sp
a08034f8:	0c2012e6 	jal	a0804b98 <get_timer>
a08034fc:	00000000 	nop
a0803500:	afc20010 	sw	v0,16(s8)
a0803504:	afc00014 	sw	zero,20(s8)
a0803508:	3c02a081 	lui	v0,0xa081
a080350c:	8c42d944 	lw	v0,-9916(v0)
a0803510:	afc20018 	sw	v0,24(s8)
a0803514:	08200d68 	j	a08035a0 <check_sleeping+0xb8>
a0803518:	00000000 	nop
a080351c:	8fc20018 	lw	v0,24(s8)
a0803520:	8c430164 	lw	v1,356(v0)
a0803524:	8fc20010 	lw	v0,16(s8)
a0803528:	0043102b 	sltu	v0,v0,v1
a080352c:	14400019 	bnez	v0,a0803594 <check_sleeping+0xac>
a0803530:	00000000 	nop
a0803534:	8fc20018 	lw	v0,24(s8)
a0803538:	afc20014 	sw	v0,20(s8)
a080353c:	3c02a081 	lui	v0,0xa081
a0803540:	2444d944 	addiu	a0,v0,-9916
a0803544:	8fc50014 	lw	a1,20(s8)
a0803548:	0c20128d 	jal	a0804a34 <queue_remove>
a080354c:	00000000 	nop
a0803550:	afc20018 	sw	v0,24(s8)
a0803554:	8fc30014 	lw	v1,20(s8)
a0803558:	24020002 	li	v0,2
a080355c:	ac620150 	sw	v0,336(v1)
a0803560:	8fc20014 	lw	v0,20(s8)
a0803564:	ac400164 	sw	zero,356(v0)
a0803568:	3c02a081 	lui	v0,0xa081
a080356c:	2444d938 	addiu	a0,v0,-9928
a0803570:	8fc50014 	lw	a1,20(s8)
a0803574:	0c20123e 	jal	a08048f8 <queue_push>
a0803578:	00000000 	nop
a080357c:	3c02a081 	lui	v0,0xa081
a0803580:	2444d938 	addiu	a0,v0,-9928
a0803584:	0c200ceb 	jal	a08033ac <queue_sort>
a0803588:	00000000 	nop
a080358c:	08200d68 	j	a08035a0 <check_sleeping+0xb8>
a0803590:	00000000 	nop
a0803594:	8fc20018 	lw	v0,24(s8)
a0803598:	8c420144 	lw	v0,324(v0)
a080359c:	afc20018 	sw	v0,24(s8)
a08035a0:	8fc20018 	lw	v0,24(s8)
a08035a4:	1440ffdd 	bnez	v0,a080351c <check_sleeping+0x34>
a08035a8:	00000000 	nop
a08035ac:	03c0e821 	move	sp,s8
a08035b0:	8fbf0024 	lw	ra,36(sp)
a08035b4:	8fbe0020 	lw	s8,32(sp)
a08035b8:	27bd0028 	addiu	sp,sp,40
a08035bc:	03e00008 	jr	ra
a08035c0:	00000000 	nop

a08035c4 <switch_pcb>:
a08035c4:	27bdffd8 	addiu	sp,sp,-40
a08035c8:	afbf0024 	sw	ra,36(sp)
a08035cc:	afbe0020 	sw	s8,32(sp)
a08035d0:	03a0f021 	move	s8,sp
a08035d4:	3c02a081 	lui	v0,0xa081
a08035d8:	8c42d940 	lw	v0,-9920(v0)
a08035dc:	afc20018 	sw	v0,24(s8)
a08035e0:	24020001 	li	v0,1
a08035e4:	afc20010 	sw	v0,16(s8)
a08035e8:	0c200d3a 	jal	a08034e8 <check_sleeping>
a08035ec:	00000000 	nop
a08035f0:	3c02a081 	lui	v0,0xa081
a08035f4:	8c42d940 	lw	v0,-9920(v0)
a08035f8:	10400016 	beqz	v0,a0803654 <switch_pcb+0x90>
a08035fc:	00000000 	nop
a0803600:	3c02a081 	lui	v0,0xa081
a0803604:	8c42d940 	lw	v0,-9920(v0)
a0803608:	8c430150 	lw	v1,336(v0)
a080360c:	24020001 	li	v0,1
a0803610:	14620010 	bne	v1,v0,a0803654 <switch_pcb+0x90>
a0803614:	00000000 	nop
a0803618:	3c02a081 	lui	v0,0xa081
a080361c:	8c43d940 	lw	v1,-9920(v0)
a0803620:	24020002 	li	v0,2
a0803624:	ac620150 	sw	v0,336(v1)
a0803628:	3c02a081 	lui	v0,0xa081
a080362c:	8c43d940 	lw	v1,-9920(v0)
a0803630:	3c02a081 	lui	v0,0xa081
a0803634:	2444d938 	addiu	a0,v0,-9928
a0803638:	00602821 	move	a1,v1
a080363c:	0c20123e 	jal	a08048f8 <queue_push>
a0803640:	00000000 	nop
a0803644:	3c02a081 	lui	v0,0xa081
a0803648:	2444d938 	addiu	a0,v0,-9928
a080364c:	0c200ceb 	jal	a08033ac <queue_sort>
a0803650:	00000000 	nop
a0803654:	3c02a081 	lui	v0,0xa081
a0803658:	2444d938 	addiu	a0,v0,-9928
a080365c:	0c201268 	jal	a08049a0 <queue_dequeue>
a0803660:	00000000 	nop
a0803664:	00401821 	move	v1,v0
a0803668:	3c02a081 	lui	v0,0xa081
a080366c:	ac43d940 	sw	v1,-9920(v0)
a0803670:	3c02a081 	lui	v0,0xa081
a0803674:	8c43d940 	lw	v1,-9920(v0)
a0803678:	8c620168 	lw	v0,360(v1)
a080367c:	24420001 	addiu	v0,v0,1
a0803680:	ac620168 	sw	v0,360(v1)
a0803684:	03c0e821 	move	sp,s8
a0803688:	8fbf0024 	lw	ra,36(sp)
a080368c:	8fbe0020 	lw	s8,32(sp)
a0803690:	27bd0028 	addiu	sp,sp,40
a0803694:	03e00008 	jr	ra
a0803698:	00000000 	nop

a080369c <scheduler>:
a080369c:	27bdffe8 	addiu	sp,sp,-24
a08036a0:	afbf0014 	sw	ra,20(sp)
a08036a4:	afbe0010 	sw	s8,16(sp)
a08036a8:	03a0f021 	move	s8,sp
a08036ac:	3c02a081 	lui	v0,0xa081
a08036b0:	8c43d940 	lw	v1,-9920(v0)
a08036b4:	3c02a081 	lui	v0,0xa081
a08036b8:	8c42d910 	lw	v0,-9968(v0)
a08036bc:	ac620154 	sw	v0,340(v1)
a08036c0:	3c02a081 	lui	v0,0xa081
a08036c4:	8c43d940 	lw	v1,-9920(v0)
a08036c8:	3c02a081 	lui	v0,0xa081
a08036cc:	8c42d914 	lw	v0,-9964(v0)
a08036d0:	ac620158 	sw	v0,344(v1)
a08036d4:	0c200d71 	jal	a08035c4 <switch_pcb>
a08036d8:	00000000 	nop
a08036dc:	3c02a081 	lui	v0,0xa081
a08036e0:	8c42d940 	lw	v0,-9920(v0)
a08036e4:	8c430148 	lw	v1,328(v0)
a08036e8:	3c02a081 	lui	v0,0xa081
a08036ec:	ac43d880 	sw	v1,-10112(v0)
a08036f0:	3c02a081 	lui	v0,0xa081
a08036f4:	8c43d940 	lw	v1,-9920(v0)
a08036f8:	24020001 	li	v0,1
a08036fc:	ac620150 	sw	v0,336(v1)
a0803700:	3c02a081 	lui	v0,0xa081
a0803704:	8c42d940 	lw	v0,-9920(v0)
a0803708:	8c430154 	lw	v1,340(v0)
a080370c:	3c02a081 	lui	v0,0xa081
a0803710:	ac43d910 	sw	v1,-9968(v0)
a0803714:	3c02a081 	lui	v0,0xa081
a0803718:	8c42d940 	lw	v0,-9920(v0)
a080371c:	8c430158 	lw	v1,344(v0)
a0803720:	3c02a081 	lui	v0,0xa081
a0803724:	ac43d914 	sw	v1,-9964(v0)
a0803728:	03c0e821 	move	sp,s8
a080372c:	8fbf0014 	lw	ra,20(sp)
a0803730:	8fbe0010 	lw	s8,16(sp)
a0803734:	27bd0018 	addiu	sp,sp,24
a0803738:	03e00008 	jr	ra
a080373c:	00000000 	nop

a0803740 <do_sleep>:
a0803740:	27bdffe0 	addiu	sp,sp,-32
a0803744:	afbf001c 	sw	ra,28(sp)
a0803748:	afbe0018 	sw	s8,24(sp)
a080374c:	afb00014 	sw	s0,20(sp)
a0803750:	03a0f021 	move	s8,sp
a0803754:	afc40020 	sw	a0,32(s8)
a0803758:	3c02a081 	lui	v0,0xa081
a080375c:	8c43d940 	lw	v1,-9920(v0)
a0803760:	24020004 	li	v0,4
a0803764:	ac620150 	sw	v0,336(v1)
a0803768:	3c02a081 	lui	v0,0xa081
a080376c:	8c50d940 	lw	s0,-9920(v0)
a0803770:	0c2012e6 	jal	a0804b98 <get_timer>
a0803774:	00000000 	nop
a0803778:	00401821 	move	v1,v0
a080377c:	8fc20020 	lw	v0,32(s8)
a0803780:	00621021 	addu	v0,v1,v0
a0803784:	ae020164 	sw	v0,356(s0)
a0803788:	3c02a081 	lui	v0,0xa081
a080378c:	8c43d940 	lw	v1,-9920(v0)
a0803790:	3c02a081 	lui	v0,0xa081
a0803794:	2444d944 	addiu	a0,v0,-9916
a0803798:	00602821 	move	a1,v1
a080379c:	0c20123e 	jal	a08048f8 <queue_push>
a08037a0:	00000000 	nop
a08037a4:	0c2000f8 	jal	a08003e0 <do_scheduler>
a08037a8:	00000000 	nop
a08037ac:	03c0e821 	move	sp,s8
a08037b0:	8fbf001c 	lw	ra,28(sp)
a08037b4:	8fbe0018 	lw	s8,24(sp)
a08037b8:	8fb00014 	lw	s0,20(sp)
a08037bc:	27bd0020 	addiu	sp,sp,32
a08037c0:	03e00008 	jr	ra
a08037c4:	00000000 	nop

a08037c8 <do_block>:
a08037c8:	27bdffe0 	addiu	sp,sp,-32
a08037cc:	afbf001c 	sw	ra,28(sp)
a08037d0:	afbe0018 	sw	s8,24(sp)
a08037d4:	03a0f021 	move	s8,sp
a08037d8:	afc40020 	sw	a0,32(s8)
a08037dc:	3c02a081 	lui	v0,0xa081
a08037e0:	8c42d940 	lw	v0,-9920(v0)
a08037e4:	ac400150 	sw	zero,336(v0)
a08037e8:	3c02a081 	lui	v0,0xa081
a08037ec:	8c43d940 	lw	v1,-9920(v0)
a08037f0:	8fc20020 	lw	v0,32(s8)
a08037f4:	ac6201b8 	sw	v0,440(v1)
a08037f8:	3c02a081 	lui	v0,0xa081
a08037fc:	8c42d940 	lw	v0,-9920(v0)
a0803800:	8fc40020 	lw	a0,32(s8)
a0803804:	00402821 	move	a1,v0
a0803808:	0c20123e 	jal	a08048f8 <queue_push>
a080380c:	00000000 	nop
a0803810:	0c2000f8 	jal	a08003e0 <do_scheduler>
a0803814:	00000000 	nop
a0803818:	afc00010 	sw	zero,16(s8)
a080381c:	08200e22 	j	a0803888 <do_block+0xc0>
a0803820:	00000000 	nop
a0803824:	3c02a081 	lui	v0,0xa081
a0803828:	8c43d940 	lw	v1,-9920(v0)
a080382c:	8fc20010 	lw	v0,16(s8)
a0803830:	2442005a 	addiu	v0,v0,90
a0803834:	00021080 	sll	v0,v0,0x2
a0803838:	00621021 	addu	v0,v1,v0
a080383c:	8c430004 	lw	v1,4(v0)
a0803840:	24020003 	li	v0,3
a0803844:	1462000d 	bne	v1,v0,a080387c <do_block+0xb4>
a0803848:	00000000 	nop
a080384c:	8fc20010 	lw	v0,16(s8)
a0803850:	000218c0 	sll	v1,v0,0x3
a0803854:	00031080 	sll	v0,v1,0x2
a0803858:	00431823 	subu	v1,v0,v1
a080385c:	3c02a084 	lui	v0,0xa084
a0803860:	24424e90 	addiu	v0,v0,20112
a0803864:	00621021 	addu	v0,v1,v0
a0803868:	00402021 	move	a0,v0
a080386c:	0c200a99 	jal	a0802a64 <do_mutex_lock_acquire>
a0803870:	00000000 	nop
a0803874:	08200e26 	j	a0803898 <do_block+0xd0>
a0803878:	00000000 	nop
a080387c:	8fc20010 	lw	v0,16(s8)
a0803880:	24420001 	addiu	v0,v0,1
a0803884:	afc20010 	sw	v0,16(s8)
a0803888:	8fc20010 	lw	v0,16(s8)
a080388c:	28420010 	slti	v0,v0,16
a0803890:	1440ffe4 	bnez	v0,a0803824 <do_block+0x5c>
a0803894:	00000000 	nop
a0803898:	03c0e821 	move	sp,s8
a080389c:	8fbf001c 	lw	ra,28(sp)
a08038a0:	8fbe0018 	lw	s8,24(sp)
a08038a4:	27bd0020 	addiu	sp,sp,32
a08038a8:	03e00008 	jr	ra
a08038ac:	00000000 	nop

a08038b0 <do_unblock_one>:
a08038b0:	27bdffe0 	addiu	sp,sp,-32
a08038b4:	afbf001c 	sw	ra,28(sp)
a08038b8:	afbe0018 	sw	s8,24(sp)
a08038bc:	03a0f021 	move	s8,sp
a08038c0:	afc40020 	sw	a0,32(s8)
a08038c4:	afc00010 	sw	zero,16(s8)
a08038c8:	8fc40020 	lw	a0,32(s8)
a08038cc:	0c20122b 	jal	a08048ac <queue_is_empty>
a08038d0:	00000000 	nop
a08038d4:	14400013 	bnez	v0,a0803924 <do_unblock_one+0x74>
a08038d8:	00000000 	nop
a08038dc:	8fc40020 	lw	a0,32(s8)
a08038e0:	0c201268 	jal	a08049a0 <queue_dequeue>
a08038e4:	00000000 	nop
a08038e8:	afc20010 	sw	v0,16(s8)
a08038ec:	8fc30010 	lw	v1,16(s8)
a08038f0:	24020002 	li	v0,2
a08038f4:	ac620150 	sw	v0,336(v1)
a08038f8:	8fc20010 	lw	v0,16(s8)
a08038fc:	ac4001b8 	sw	zero,440(v0)
a0803900:	3c02a081 	lui	v0,0xa081
a0803904:	2444d938 	addiu	a0,v0,-9928
a0803908:	8fc50010 	lw	a1,16(s8)
a080390c:	0c20123e 	jal	a08048f8 <queue_push>
a0803910:	00000000 	nop
a0803914:	3c02a081 	lui	v0,0xa081
a0803918:	2444d938 	addiu	a0,v0,-9928
a080391c:	0c200ceb 	jal	a08033ac <queue_sort>
a0803920:	00000000 	nop
a0803924:	03c0e821 	move	sp,s8
a0803928:	8fbf001c 	lw	ra,28(sp)
a080392c:	8fbe0018 	lw	s8,24(sp)
a0803930:	27bd0020 	addiu	sp,sp,32
a0803934:	03e00008 	jr	ra
a0803938:	00000000 	nop

a080393c <do_unblock_all>:
a080393c:	27bdffe8 	addiu	sp,sp,-24
a0803940:	afbf0014 	sw	ra,20(sp)
a0803944:	afbe0010 	sw	s8,16(sp)
a0803948:	03a0f021 	move	s8,sp
a080394c:	afc40018 	sw	a0,24(s8)
a0803950:	08200e59 	j	a0803964 <do_unblock_all+0x28>
a0803954:	00000000 	nop
a0803958:	8fc40018 	lw	a0,24(s8)
a080395c:	0c200e2c 	jal	a08038b0 <do_unblock_one>
a0803960:	00000000 	nop
a0803964:	8fc40018 	lw	a0,24(s8)
a0803968:	0c20122b 	jal	a08048ac <queue_is_empty>
a080396c:	00000000 	nop
a0803970:	1040fff9 	beqz	v0,a0803958 <do_unblock_all+0x1c>
a0803974:	00000000 	nop
a0803978:	03c0e821 	move	sp,s8
a080397c:	8fbf0014 	lw	ra,20(sp)
a0803980:	8fbe0010 	lw	s8,16(sp)
a0803984:	27bd0018 	addiu	sp,sp,24
a0803988:	03e00008 	jr	ra
a080398c:	00000000 	nop

a0803990 <do_process_show>:
a0803990:	27bdffe0 	addiu	sp,sp,-32
a0803994:	afbf001c 	sw	ra,28(sp)
a0803998:	afbe0018 	sw	s8,24(sp)
a080399c:	03a0f021 	move	s8,sp
a08039a0:	afc00010 	sw	zero,16(s8)
a08039a4:	3c02a081 	lui	v0,0xa081
a08039a8:	8c42d94c 	lw	v0,-9908(v0)
a08039ac:	24420002 	addiu	v0,v0,2
a08039b0:	24040001 	li	a0,1
a08039b4:	00402821 	move	a1,v0
a08039b8:	0c2002a0 	jal	a0800a80 <vt100_move_cursor>
a08039bc:	00000000 	nop
a08039c0:	3c02a081 	lui	v0,0xa081
a08039c4:	2444ceb0 	addiu	a0,v0,-12624
a08039c8:	0c201981 	jal	a0806604 <printk>
a08039cc:	00000000 	nop
a08039d0:	afc00014 	sw	zero,20(s8)
a08039d4:	08200f17 	j	a0803c5c <do_process_show+0x2cc>
a08039d8:	00000000 	nop
a08039dc:	8fc40014 	lw	a0,20(s8)
a08039e0:	3c05a084 	lui	a1,0xa084
a08039e4:	00801021 	move	v0,a0
a08039e8:	00021900 	sll	v1,v0,0x4
a08039ec:	000310c0 	sll	v0,v1,0x3
a08039f0:	00431023 	subu	v0,v0,v1
a08039f4:	00441023 	subu	v0,v0,a0
a08039f8:	00021880 	sll	v1,v0,0x2
a08039fc:	24a25028 	addiu	v0,a1,20520
a0803a00:	00621021 	addu	v0,v1,v0
a0803a04:	8c430150 	lw	v1,336(v0)
a0803a08:	24020001 	li	v0,1
a0803a0c:	1462001b 	bne	v1,v0,a0803a7c <do_process_show+0xec>
a0803a10:	00000000 	nop
a0803a14:	8fc40014 	lw	a0,20(s8)
a0803a18:	3c05a084 	lui	a1,0xa084
a0803a1c:	00801021 	move	v0,a0
a0803a20:	00021900 	sll	v1,v0,0x4
a0803a24:	000310c0 	sll	v0,v1,0x3
a0803a28:	00431023 	subu	v0,v0,v1
a0803a2c:	00441023 	subu	v0,v0,a0
a0803a30:	00021880 	sll	v1,v0,0x2
a0803a34:	24a25028 	addiu	v0,a1,20520
a0803a38:	00621021 	addu	v0,v1,v0
a0803a3c:	8c430148 	lw	v1,328(v0)
a0803a40:	3c02a081 	lui	v0,0xa081
a0803a44:	2444cec4 	addiu	a0,v0,-12604
a0803a48:	8fc50014 	lw	a1,20(s8)
a0803a4c:	00603021 	move	a2,v1
a0803a50:	0c201981 	jal	a0806604 <printk>
a0803a54:	00000000 	nop
a0803a58:	3c02a081 	lui	v0,0xa081
a0803a5c:	2444cedc 	addiu	a0,v0,-12580
a0803a60:	0c201981 	jal	a0806604 <printk>
a0803a64:	00000000 	nop
a0803a68:	8fc20010 	lw	v0,16(s8)
a0803a6c:	24420001 	addiu	v0,v0,1
a0803a70:	afc20010 	sw	v0,16(s8)
a0803a74:	08200f14 	j	a0803c50 <do_process_show+0x2c0>
a0803a78:	00000000 	nop
a0803a7c:	8fc40014 	lw	a0,20(s8)
a0803a80:	3c05a084 	lui	a1,0xa084
a0803a84:	00801021 	move	v0,a0
a0803a88:	00021900 	sll	v1,v0,0x4
a0803a8c:	000310c0 	sll	v0,v1,0x3
a0803a90:	00431023 	subu	v0,v0,v1
a0803a94:	00441023 	subu	v0,v0,a0
a0803a98:	00021880 	sll	v1,v0,0x2
a0803a9c:	24a25028 	addiu	v0,a1,20520
a0803aa0:	00621021 	addu	v0,v1,v0
a0803aa4:	8c420150 	lw	v0,336(v0)
a0803aa8:	1440001b 	bnez	v0,a0803b18 <do_process_show+0x188>
a0803aac:	00000000 	nop
a0803ab0:	8fc40014 	lw	a0,20(s8)
a0803ab4:	3c05a084 	lui	a1,0xa084
a0803ab8:	00801021 	move	v0,a0
a0803abc:	00021900 	sll	v1,v0,0x4
a0803ac0:	000310c0 	sll	v0,v1,0x3
a0803ac4:	00431023 	subu	v0,v0,v1
a0803ac8:	00441023 	subu	v0,v0,a0
a0803acc:	00021880 	sll	v1,v0,0x2
a0803ad0:	24a25028 	addiu	v0,a1,20520
a0803ad4:	00621021 	addu	v0,v1,v0
a0803ad8:	8c430148 	lw	v1,328(v0)
a0803adc:	3c02a081 	lui	v0,0xa081
a0803ae0:	2444cec4 	addiu	a0,v0,-12604
a0803ae4:	8fc50014 	lw	a1,20(s8)
a0803ae8:	00603021 	move	a2,v1
a0803aec:	0c201981 	jal	a0806604 <printk>
a0803af0:	00000000 	nop
a0803af4:	3c02a081 	lui	v0,0xa081
a0803af8:	2444cee8 	addiu	a0,v0,-12568
a0803afc:	0c201981 	jal	a0806604 <printk>
a0803b00:	00000000 	nop
a0803b04:	8fc20010 	lw	v0,16(s8)
a0803b08:	24420001 	addiu	v0,v0,1
a0803b0c:	afc20010 	sw	v0,16(s8)
a0803b10:	08200f14 	j	a0803c50 <do_process_show+0x2c0>
a0803b14:	00000000 	nop
a0803b18:	8fc40014 	lw	a0,20(s8)
a0803b1c:	3c05a084 	lui	a1,0xa084
a0803b20:	00801021 	move	v0,a0
a0803b24:	00021900 	sll	v1,v0,0x4
a0803b28:	000310c0 	sll	v0,v1,0x3
a0803b2c:	00431023 	subu	v0,v0,v1
a0803b30:	00441023 	subu	v0,v0,a0
a0803b34:	00021880 	sll	v1,v0,0x2
a0803b38:	24a25028 	addiu	v0,a1,20520
a0803b3c:	00621021 	addu	v0,v1,v0
a0803b40:	8c430150 	lw	v1,336(v0)
a0803b44:	24020002 	li	v0,2
a0803b48:	1462001b 	bne	v1,v0,a0803bb8 <do_process_show+0x228>
a0803b4c:	00000000 	nop
a0803b50:	8fc40014 	lw	a0,20(s8)
a0803b54:	3c05a084 	lui	a1,0xa084
a0803b58:	00801021 	move	v0,a0
a0803b5c:	00021900 	sll	v1,v0,0x4
a0803b60:	000310c0 	sll	v0,v1,0x3
a0803b64:	00431023 	subu	v0,v0,v1
a0803b68:	00441023 	subu	v0,v0,a0
a0803b6c:	00021880 	sll	v1,v0,0x2
a0803b70:	24a25028 	addiu	v0,a1,20520
a0803b74:	00621021 	addu	v0,v1,v0
a0803b78:	8c430148 	lw	v1,328(v0)
a0803b7c:	3c02a081 	lui	v0,0xa081
a0803b80:	2444cec4 	addiu	a0,v0,-12604
a0803b84:	8fc50014 	lw	a1,20(s8)
a0803b88:	00603021 	move	a2,v1
a0803b8c:	0c201981 	jal	a0806604 <printk>
a0803b90:	00000000 	nop
a0803b94:	3c02a081 	lui	v0,0xa081
a0803b98:	2444cef4 	addiu	a0,v0,-12556
a0803b9c:	0c201981 	jal	a0806604 <printk>
a0803ba0:	00000000 	nop
a0803ba4:	8fc20010 	lw	v0,16(s8)
a0803ba8:	24420001 	addiu	v0,v0,1
a0803bac:	afc20010 	sw	v0,16(s8)
a0803bb0:	08200f14 	j	a0803c50 <do_process_show+0x2c0>
a0803bb4:	00000000 	nop
a0803bb8:	8fc40014 	lw	a0,20(s8)
a0803bbc:	3c05a084 	lui	a1,0xa084
a0803bc0:	00801021 	move	v0,a0
a0803bc4:	00021900 	sll	v1,v0,0x4
a0803bc8:	000310c0 	sll	v0,v1,0x3
a0803bcc:	00431023 	subu	v0,v0,v1
a0803bd0:	00441023 	subu	v0,v0,a0
a0803bd4:	00021880 	sll	v1,v0,0x2
a0803bd8:	24a25028 	addiu	v0,a1,20520
a0803bdc:	00621021 	addu	v0,v1,v0
a0803be0:	8c430150 	lw	v1,336(v0)
a0803be4:	24020004 	li	v0,4
a0803be8:	14620019 	bne	v1,v0,a0803c50 <do_process_show+0x2c0>
a0803bec:	00000000 	nop
a0803bf0:	8fc40014 	lw	a0,20(s8)
a0803bf4:	3c05a084 	lui	a1,0xa084
a0803bf8:	00801021 	move	v0,a0
a0803bfc:	00021900 	sll	v1,v0,0x4
a0803c00:	000310c0 	sll	v0,v1,0x3
a0803c04:	00431023 	subu	v0,v0,v1
a0803c08:	00441023 	subu	v0,v0,a0
a0803c0c:	00021880 	sll	v1,v0,0x2
a0803c10:	24a25028 	addiu	v0,a1,20520
a0803c14:	00621021 	addu	v0,v1,v0
a0803c18:	8c430148 	lw	v1,328(v0)
a0803c1c:	3c02a081 	lui	v0,0xa081
a0803c20:	2444cec4 	addiu	a0,v0,-12604
a0803c24:	8fc50014 	lw	a1,20(s8)
a0803c28:	00603021 	move	a2,v1
a0803c2c:	0c201981 	jal	a0806604 <printk>
a0803c30:	00000000 	nop
a0803c34:	3c02a081 	lui	v0,0xa081
a0803c38:	2444cefc 	addiu	a0,v0,-12548
a0803c3c:	0c201981 	jal	a0806604 <printk>
a0803c40:	00000000 	nop
a0803c44:	8fc20010 	lw	v0,16(s8)
a0803c48:	24420001 	addiu	v0,v0,1
a0803c4c:	afc20010 	sw	v0,16(s8)
a0803c50:	8fc20014 	lw	v0,20(s8)
a0803c54:	24420001 	addiu	v0,v0,1
a0803c58:	afc20014 	sw	v0,20(s8)
a0803c5c:	8fc20014 	lw	v0,20(s8)
a0803c60:	28420010 	slti	v0,v0,16
a0803c64:	1440ff5d 	bnez	v0,a08039dc <do_process_show+0x4c>
a0803c68:	00000000 	nop
a0803c6c:	8fc30010 	lw	v1,16(s8)
a0803c70:	3c02a081 	lui	v0,0xa081
a0803c74:	8c42d94c 	lw	v0,-9908(v0)
a0803c78:	00621021 	addu	v0,v1,v0
a0803c7c:	24430001 	addiu	v1,v0,1
a0803c80:	3c02a081 	lui	v0,0xa081
a0803c84:	ac43d94c 	sw	v1,-9908(v0)
a0803c88:	03c0e821 	move	sp,s8
a0803c8c:	8fbf001c 	lw	ra,28(sp)
a0803c90:	8fbe0018 	lw	s8,24(sp)
a0803c94:	27bd0020 	addiu	sp,sp,32
a0803c98:	03e00008 	jr	ra
a0803c9c:	00000000 	nop

a0803ca0 <do_spawn>:
a0803ca0:	27bdffe0 	addiu	sp,sp,-32
a0803ca4:	afbf001c 	sw	ra,28(sp)
a0803ca8:	afbe0018 	sw	s8,24(sp)
a0803cac:	03a0f021 	move	s8,sp
a0803cb0:	afc40020 	sw	a0,32(s8)
a0803cb4:	afc50024 	sw	a1,36(s8)
a0803cb8:	afc00010 	sw	zero,16(s8)
a0803cbc:	08200f50 	j	a0803d40 <do_spawn+0xa0>
a0803cc0:	00000000 	nop
a0803cc4:	8fc40010 	lw	a0,16(s8)
a0803cc8:	3c05a084 	lui	a1,0xa084
a0803ccc:	00801021 	move	v0,a0
a0803cd0:	00021900 	sll	v1,v0,0x4
a0803cd4:	000310c0 	sll	v0,v1,0x3
a0803cd8:	00431023 	subu	v0,v0,v1
a0803cdc:	00441023 	subu	v0,v0,a0
a0803ce0:	00021880 	sll	v1,v0,0x2
a0803ce4:	24a25028 	addiu	v0,a1,20520
a0803ce8:	00621021 	addu	v0,v1,v0
a0803cec:	8c430150 	lw	v1,336(v0)
a0803cf0:	24020005 	li	v0,5
a0803cf4:	10620016 	beq	v1,v0,a0803d50 <do_spawn+0xb0>
a0803cf8:	00000000 	nop
a0803cfc:	8fc40010 	lw	a0,16(s8)
a0803d00:	3c05a084 	lui	a1,0xa084
a0803d04:	00801021 	move	v0,a0
a0803d08:	00021900 	sll	v1,v0,0x4
a0803d0c:	000310c0 	sll	v0,v1,0x3
a0803d10:	00431023 	subu	v0,v0,v1
a0803d14:	00441023 	subu	v0,v0,a0
a0803d18:	00021880 	sll	v1,v0,0x2
a0803d1c:	24a25028 	addiu	v0,a1,20520
a0803d20:	00621021 	addu	v0,v1,v0
a0803d24:	8c430150 	lw	v1,336(v0)
a0803d28:	24020003 	li	v0,3
a0803d2c:	10620008 	beq	v1,v0,a0803d50 <do_spawn+0xb0>
a0803d30:	00000000 	nop
a0803d34:	8fc20010 	lw	v0,16(s8)
a0803d38:	24420001 	addiu	v0,v0,1
a0803d3c:	afc20010 	sw	v0,16(s8)
a0803d40:	8fc20010 	lw	v0,16(s8)
a0803d44:	28420010 	slti	v0,v0,16
a0803d48:	1440ffde 	bnez	v0,a0803cc4 <do_spawn+0x24>
a0803d4c:	00000000 	nop
a0803d50:	8fc30010 	lw	v1,16(s8)
a0803d54:	24020010 	li	v0,16
a0803d58:	14620007 	bne	v1,v0,a0803d78 <do_spawn+0xd8>
a0803d5c:	00000000 	nop
a0803d60:	3c02a081 	lui	v0,0xa081
a0803d64:	2444cf08 	addiu	a0,v0,-12536
a0803d68:	0c201981 	jal	a0806604 <printk>
a0803d6c:	00000000 	nop
a0803d70:	0820104e 	j	a0804138 <do_spawn+0x498>
a0803d74:	00000000 	nop
a0803d78:	8fc40010 	lw	a0,16(s8)
a0803d7c:	8fc20010 	lw	v0,16(s8)
a0803d80:	000213c0 	sll	v0,v0,0xf
a0803d84:	00021823 	negu	v1,v0
a0803d88:	3c02a0f0 	lui	v0,0xa0f0
a0803d8c:	00622821 	addu	a1,v1,v0
a0803d90:	3c06a084 	lui	a2,0xa084
a0803d94:	00801021 	move	v0,a0
a0803d98:	00021900 	sll	v1,v0,0x4
a0803d9c:	000310c0 	sll	v0,v1,0x3
a0803da0:	00431023 	subu	v0,v0,v1
a0803da4:	00441023 	subu	v0,v0,a0
a0803da8:	00021880 	sll	v1,v0,0x2
a0803dac:	24c25028 	addiu	v0,a2,20520
a0803db0:	00621021 	addu	v0,v1,v0
a0803db4:	ac450074 	sw	a1,116(v0)
a0803db8:	8fc40010 	lw	a0,16(s8)
a0803dbc:	3c02a080 	lui	v0,0xa080
a0803dc0:	24420728 	addiu	v0,v0,1832
a0803dc4:	00402821 	move	a1,v0
a0803dc8:	3c06a084 	lui	a2,0xa084
a0803dcc:	00801021 	move	v0,a0
a0803dd0:	00021900 	sll	v1,v0,0x4
a0803dd4:	000310c0 	sll	v0,v1,0x3
a0803dd8:	00431023 	subu	v0,v0,v1
a0803ddc:	00441023 	subu	v0,v0,a0
a0803de0:	00021880 	sll	v1,v0,0x2
a0803de4:	24c25028 	addiu	v0,a2,20520
a0803de8:	00621021 	addu	v0,v1,v0
a0803dec:	ac45007c 	sw	a1,124(v0)
a0803df0:	8fc40010 	lw	a0,16(s8)
a0803df4:	8fc20010 	lw	v0,16(s8)
a0803df8:	000213c0 	sll	v0,v0,0xf
a0803dfc:	00021823 	negu	v1,v0
a0803e00:	3c02a0f0 	lui	v0,0xa0f0
a0803e04:	00622821 	addu	a1,v1,v0
a0803e08:	3c06a084 	lui	a2,0xa084
a0803e0c:	00801021 	move	v0,a0
a0803e10:	00021900 	sll	v1,v0,0x4
a0803e14:	000310c0 	sll	v0,v1,0x3
a0803e18:	00431023 	subu	v0,v0,v1
a0803e1c:	00441023 	subu	v0,v0,a0
a0803e20:	00021880 	sll	v1,v0,0x2
a0803e24:	24c25028 	addiu	v0,a2,20520
a0803e28:	00621021 	addu	v0,v1,v0
a0803e2c:	ac450138 	sw	a1,312(v0)
a0803e30:	8fc40010 	lw	a0,16(s8)
a0803e34:	8fc20020 	lw	v0,32(s8)
a0803e38:	8c450008 	lw	a1,8(v0)
a0803e3c:	3c02a084 	lui	v0,0xa084
a0803e40:	24465028 	addiu	a2,v0,20520
a0803e44:	00801021 	move	v0,a0
a0803e48:	00021900 	sll	v1,v0,0x4
a0803e4c:	000310c0 	sll	v0,v1,0x3
a0803e50:	00431023 	subu	v0,v0,v1
a0803e54:	00441023 	subu	v0,v0,a0
a0803e58:	00021080 	sll	v0,v0,0x2
a0803e5c:	00c21021 	addu	v0,a2,v0
a0803e60:	ac45014c 	sw	a1,332(v0)
a0803e64:	8fc40010 	lw	a0,16(s8)
a0803e68:	3c05a084 	lui	a1,0xa084
a0803e6c:	00801021 	move	v0,a0
a0803e70:	00021900 	sll	v1,v0,0x4
a0803e74:	000310c0 	sll	v0,v1,0x3
a0803e78:	00431023 	subu	v0,v0,v1
a0803e7c:	00441023 	subu	v0,v0,a0
a0803e80:	00021880 	sll	v1,v0,0x2
a0803e84:	24a25028 	addiu	v0,a1,20520
a0803e88:	00621821 	addu	v1,v1,v0
a0803e8c:	24020002 	li	v0,2
a0803e90:	ac620150 	sw	v0,336(v1)
a0803e94:	8fc40010 	lw	a0,16(s8)
a0803e98:	3c05a084 	lui	a1,0xa084
a0803e9c:	00801021 	move	v0,a0
a0803ea0:	00021900 	sll	v1,v0,0x4
a0803ea4:	000310c0 	sll	v0,v1,0x3
a0803ea8:	00431023 	subu	v0,v0,v1
a0803eac:	00441023 	subu	v0,v0,a0
a0803eb0:	00021880 	sll	v1,v0,0x2
a0803eb4:	24a25028 	addiu	v0,a1,20520
a0803eb8:	00621821 	addu	v1,v1,v0
a0803ebc:	3c021000 	lui	v0,0x1000
a0803ec0:	34428002 	ori	v0,v0,0x8002
a0803ec4:	ac620080 	sw	v0,128(v1)
a0803ec8:	8fc60010 	lw	a2,16(s8)
a0803ecc:	8fc40010 	lw	a0,16(s8)
a0803ed0:	3c05a084 	lui	a1,0xa084
a0803ed4:	00801021 	move	v0,a0
a0803ed8:	00021900 	sll	v1,v0,0x4
a0803edc:	000310c0 	sll	v0,v1,0x3
a0803ee0:	00431023 	subu	v0,v0,v1
a0803ee4:	00441023 	subu	v0,v0,a0
a0803ee8:	00021880 	sll	v1,v0,0x2
a0803eec:	24a25028 	addiu	v0,a1,20520
a0803ef0:	00621021 	addu	v0,v1,v0
a0803ef4:	8c420138 	lw	v0,312(v0)
a0803ef8:	2444c000 	addiu	a0,v0,-16384
a0803efc:	3c02a084 	lui	v0,0xa084
a0803f00:	24455028 	addiu	a1,v0,20520
a0803f04:	00c01021 	move	v0,a2
a0803f08:	00021900 	sll	v1,v0,0x4
a0803f0c:	000310c0 	sll	v0,v1,0x3
a0803f10:	00431023 	subu	v0,v0,v1
a0803f14:	00461023 	subu	v0,v0,a2
a0803f18:	00021080 	sll	v0,v0,0x2
a0803f1c:	00a21021 	addu	v0,a1,v0
a0803f20:	ac440110 	sw	a0,272(v0)
a0803f24:	8fc40010 	lw	a0,16(s8)
a0803f28:	8fc20020 	lw	v0,32(s8)
a0803f2c:	8c450004 	lw	a1,4(v0)
a0803f30:	3c02a084 	lui	v0,0xa084
a0803f34:	24465028 	addiu	a2,v0,20520
a0803f38:	00801021 	move	v0,a0
a0803f3c:	00021900 	sll	v1,v0,0x4
a0803f40:	000310c0 	sll	v0,v1,0x3
a0803f44:	00431023 	subu	v0,v0,v1
a0803f48:	00441023 	subu	v0,v0,a0
a0803f4c:	00021080 	sll	v0,v0,0x2
a0803f50:	00c21021 	addu	v0,a2,v0
a0803f54:	ac450118 	sw	a1,280(v0)
a0803f58:	8fc60010 	lw	a2,16(s8)
a0803f5c:	8fc40010 	lw	a0,16(s8)
a0803f60:	3c05a084 	lui	a1,0xa084
a0803f64:	00801021 	move	v0,a0
a0803f68:	00021900 	sll	v1,v0,0x4
a0803f6c:	000310c0 	sll	v0,v1,0x3
a0803f70:	00431023 	subu	v0,v0,v1
a0803f74:	00441023 	subu	v0,v0,a0
a0803f78:	00021880 	sll	v1,v0,0x2
a0803f7c:	24a25028 	addiu	v0,a1,20520
a0803f80:	00621021 	addu	v0,v1,v0
a0803f84:	8c420138 	lw	v0,312(v0)
a0803f88:	2444c000 	addiu	a0,v0,-16384
a0803f8c:	3c02a084 	lui	v0,0xa084
a0803f90:	24455028 	addiu	a1,v0,20520
a0803f94:	00c01021 	move	v0,a2
a0803f98:	00021900 	sll	v1,v0,0x4
a0803f9c:	000310c0 	sll	v0,v1,0x3
a0803fa0:	00431023 	subu	v0,v0,v1
a0803fa4:	00461023 	subu	v0,v0,a2
a0803fa8:	00021080 	sll	v0,v0,0x2
a0803fac:	00a21021 	addu	v0,a1,v0
a0803fb0:	ac44013c 	sw	a0,316(v0)
a0803fb4:	8fc40010 	lw	a0,16(s8)
a0803fb8:	3c02a084 	lui	v0,0xa084
a0803fbc:	24455028 	addiu	a1,v0,20520
a0803fc0:	00801021 	move	v0,a0
a0803fc4:	00021900 	sll	v1,v0,0x4
a0803fc8:	000310c0 	sll	v0,v1,0x3
a0803fcc:	00431023 	subu	v0,v0,v1
a0803fd0:	00441023 	subu	v0,v0,a0
a0803fd4:	00021080 	sll	v0,v0,0x2
a0803fd8:	00a21821 	addu	v1,a1,v0
a0803fdc:	3c021000 	lui	v0,0x1000
a0803fe0:	34428002 	ori	v0,v0,0x8002
a0803fe4:	ac62011c 	sw	v0,284(v1)
a0803fe8:	8fc40010 	lw	a0,16(s8)
a0803fec:	8fc20020 	lw	v0,32(s8)
a0803ff0:	8c450004 	lw	a1,4(v0)
a0803ff4:	3c02a084 	lui	v0,0xa084
a0803ff8:	24465028 	addiu	a2,v0,20520
a0803ffc:	00801021 	move	v0,a0
a0804000:	00021900 	sll	v1,v0,0x4
a0804004:	000310c0 	sll	v0,v1,0x3
a0804008:	00431023 	subu	v0,v0,v1
a080400c:	00441023 	subu	v0,v0,a0
a0804010:	00021080 	sll	v0,v0,0x2
a0804014:	00c21021 	addu	v0,a2,v0
a0804018:	ac450130 	sw	a1,304(v0)
a080401c:	8fc40010 	lw	a0,16(s8)
a0804020:	3c02a084 	lui	v0,0xa084
a0804024:	24425028 	addiu	v0,v0,20520
a0804028:	8c450168 	lw	a1,360(v0)
a080402c:	3c06a084 	lui	a2,0xa084
a0804030:	00801021 	move	v0,a0
a0804034:	00021900 	sll	v1,v0,0x4
a0804038:	000310c0 	sll	v0,v1,0x3
a080403c:	00431023 	subu	v0,v0,v1
a0804040:	00441023 	subu	v0,v0,a0
a0804044:	00021880 	sll	v1,v0,0x2
a0804048:	24c25028 	addiu	v0,a2,20520
a080404c:	00621021 	addu	v0,v1,v0
a0804050:	ac450168 	sw	a1,360(v0)
a0804054:	8fc40010 	lw	a0,16(s8)
a0804058:	3c02a081 	lui	v0,0xa081
a080405c:	8c45d884 	lw	a1,-10108(v0)
a0804060:	3c06a084 	lui	a2,0xa084
a0804064:	00801021 	move	v0,a0
a0804068:	00021900 	sll	v1,v0,0x4
a080406c:	000310c0 	sll	v0,v1,0x3
a0804070:	00431023 	subu	v0,v0,v1
a0804074:	00441023 	subu	v0,v0,a0
a0804078:	00021880 	sll	v1,v0,0x2
a080407c:	24c25028 	addiu	v0,a2,20520
a0804080:	00621021 	addu	v0,v1,v0
a0804084:	ac450148 	sw	a1,328(v0)
a0804088:	8fc40010 	lw	a0,16(s8)
a080408c:	3c05a084 	lui	a1,0xa084
a0804090:	00801021 	move	v0,a0
a0804094:	00021900 	sll	v1,v0,0x4
a0804098:	000310c0 	sll	v0,v1,0x3
a080409c:	00431023 	subu	v0,v0,v1
a08040a0:	00441023 	subu	v0,v0,a0
a08040a4:	00021880 	sll	v1,v0,0x2
a08040a8:	24a25028 	addiu	v0,a1,20520
a08040ac:	00621021 	addu	v0,v1,v0
a08040b0:	ac4001b8 	sw	zero,440(v0)
a08040b4:	8fc40010 	lw	a0,16(s8)
a08040b8:	00801021 	move	v0,a0
a08040bc:	00021900 	sll	v1,v0,0x4
a08040c0:	000310c0 	sll	v0,v1,0x3
a08040c4:	00431023 	subu	v0,v0,v1
a08040c8:	00441023 	subu	v0,v0,a0
a08040cc:	00021080 	sll	v0,v0,0x2
a08040d0:	00401821 	move	v1,v0
a08040d4:	3c02a084 	lui	v0,0xa084
a08040d8:	24425028 	addiu	v0,v0,20520
a08040dc:	00621821 	addu	v1,v1,v0
a08040e0:	3c02a081 	lui	v0,0xa081
a08040e4:	2444d938 	addiu	a0,v0,-9928
a08040e8:	00602821 	move	a1,v1
a08040ec:	0c20123e 	jal	a08048f8 <queue_push>
a08040f0:	00000000 	nop
a08040f4:	3c02a081 	lui	v0,0xa081
a08040f8:	8c42d884 	lw	v0,-10108(v0)
a08040fc:	24430001 	addiu	v1,v0,1
a0804100:	3c02a081 	lui	v0,0xa081
a0804104:	ac43d884 	sw	v1,-10108(v0)
a0804108:	8fc40010 	lw	a0,16(s8)
a080410c:	8fc50024 	lw	a1,36(s8)
a0804110:	3c02a084 	lui	v0,0xa084
a0804114:	24465028 	addiu	a2,v0,20520
a0804118:	00801021 	move	v0,a0
a080411c:	00021900 	sll	v1,v0,0x4
a0804120:	000310c0 	sll	v0,v1,0x3
a0804124:	00431023 	subu	v0,v0,v1
a0804128:	00441023 	subu	v0,v0,a0
a080412c:	00021080 	sll	v0,v0,0x2
a0804130:	00c21021 	addu	v0,a2,v0
a0804134:	ac4500ac 	sw	a1,172(v0)
a0804138:	03c0e821 	move	sp,s8
a080413c:	8fbf001c 	lw	ra,28(sp)
a0804140:	8fbe0018 	lw	s8,24(sp)
a0804144:	27bd0020 	addiu	sp,sp,32
a0804148:	03e00008 	jr	ra
a080414c:	00000000 	nop

a0804150 <search_queue>:
a0804150:	27bdffe8 	addiu	sp,sp,-24
a0804154:	afbe0014 	sw	s8,20(sp)
a0804158:	03a0f021 	move	s8,sp
a080415c:	afc40018 	sw	a0,24(s8)
a0804160:	afc5001c 	sw	a1,28(s8)
a0804164:	8fc20018 	lw	v0,24(s8)
a0804168:	8c420000 	lw	v0,0(v0)
a080416c:	afc20000 	sw	v0,0(s8)
a0804170:	08201069 	j	a08041a4 <search_queue+0x54>
a0804174:	00000000 	nop
a0804178:	8fc30000 	lw	v1,0(s8)
a080417c:	8fc2001c 	lw	v0,28(s8)
a0804180:	14620005 	bne	v1,v0,a0804198 <search_queue+0x48>
a0804184:	00000000 	nop
a0804188:	24020001 	li	v0,1
a080418c:	afc20008 	sw	v0,8(s8)
a0804190:	0820106d 	j	a08041b4 <search_queue+0x64>
a0804194:	00000000 	nop
a0804198:	8fc20000 	lw	v0,0(s8)
a080419c:	8c420144 	lw	v0,324(v0)
a08041a0:	afc20000 	sw	v0,0(s8)
a08041a4:	8fc20000 	lw	v0,0(s8)
a08041a8:	1440fff3 	bnez	v0,a0804178 <search_queue+0x28>
a08041ac:	00000000 	nop
a08041b0:	afc00008 	sw	zero,8(s8)
a08041b4:	8fc20008 	lw	v0,8(s8)
a08041b8:	03c0e821 	move	sp,s8
a08041bc:	8fbe0014 	lw	s8,20(sp)
a08041c0:	27bd0018 	addiu	sp,sp,24
a08041c4:	03e00008 	jr	ra
a08041c8:	00000000 	nop

a08041cc <do_kill>:
a08041cc:	27bdffd0 	addiu	sp,sp,-48
a08041d0:	afbf002c 	sw	ra,44(sp)
a08041d4:	afbe0028 	sw	s8,40(sp)
a08041d8:	03a0f021 	move	s8,sp
a08041dc:	afc40030 	sw	a0,48(s8)
a08041e0:	afc00010 	sw	zero,16(s8)
a08041e4:	afc00024 	sw	zero,36(s8)
a08041e8:	0820109b 	j	a080426c <do_kill+0xa0>
a08041ec:	00000000 	nop
a08041f0:	8fc40024 	lw	a0,36(s8)
a08041f4:	3c05a084 	lui	a1,0xa084
a08041f8:	00801021 	move	v0,a0
a08041fc:	00021900 	sll	v1,v0,0x4
a0804200:	000310c0 	sll	v0,v1,0x3
a0804204:	00431023 	subu	v0,v0,v1
a0804208:	00441023 	subu	v0,v0,a0
a080420c:	00021880 	sll	v1,v0,0x2
a0804210:	24a25028 	addiu	v0,a1,20520
a0804214:	00621021 	addu	v0,v1,v0
a0804218:	8c430148 	lw	v1,328(v0)
a080421c:	8fc20030 	lw	v0,48(s8)
a0804220:	1462000f 	bne	v1,v0,a0804260 <do_kill+0x94>
a0804224:	00000000 	nop
a0804228:	8fc40024 	lw	a0,36(s8)
a080422c:	00801021 	move	v0,a0
a0804230:	00021900 	sll	v1,v0,0x4
a0804234:	000310c0 	sll	v0,v1,0x3
a0804238:	00431023 	subu	v0,v0,v1
a080423c:	00441023 	subu	v0,v0,a0
a0804240:	00021080 	sll	v0,v0,0x2
a0804244:	00401821 	move	v1,v0
a0804248:	3c02a084 	lui	v0,0xa084
a080424c:	24425028 	addiu	v0,v0,20520
a0804250:	00621021 	addu	v0,v1,v0
a0804254:	afc20010 	sw	v0,16(s8)
a0804258:	0820109f 	j	a080427c <do_kill+0xb0>
a080425c:	00000000 	nop
a0804260:	8fc20024 	lw	v0,36(s8)
a0804264:	24420001 	addiu	v0,v0,1
a0804268:	afc20024 	sw	v0,36(s8)
a080426c:	8fc20024 	lw	v0,36(s8)
a0804270:	28420010 	slti	v0,v0,16
a0804274:	1440ffde 	bnez	v0,a08041f0 <do_kill+0x24>
a0804278:	00000000 	nop
a080427c:	8fc20010 	lw	v0,16(s8)
a0804280:	14400013 	bnez	v0,a08042d0 <do_kill+0x104>
a0804284:	00000000 	nop
a0804288:	3c02a081 	lui	v0,0xa081
a080428c:	8c42d94c 	lw	v0,-9908(v0)
a0804290:	24420002 	addiu	v0,v0,2
a0804294:	24040001 	li	a0,1
a0804298:	00402821 	move	a1,v0
a080429c:	0c2002a0 	jal	a0800a80 <vt100_move_cursor>
a08042a0:	00000000 	nop
a08042a4:	3c02a081 	lui	v0,0xa081
a08042a8:	2444cf28 	addiu	a0,v0,-12504
a08042ac:	0c201981 	jal	a0806604 <printk>
a08042b0:	00000000 	nop
a08042b4:	3c02a081 	lui	v0,0xa081
a08042b8:	8c42d94c 	lw	v0,-9908(v0)
a08042bc:	24430001 	addiu	v1,v0,1
a08042c0:	3c02a081 	lui	v0,0xa081
a08042c4:	ac43d94c 	sw	v1,-9908(v0)
a08042c8:	08201131 	j	a08044c4 <do_kill+0x2f8>
a08042cc:	00000000 	nop
a08042d0:	afc00020 	sw	zero,32(s8)
a08042d4:	082010ce 	j	a0804338 <do_kill+0x16c>
a08042d8:	00000000 	nop
a08042dc:	8fc20020 	lw	v0,32(s8)
a08042e0:	8fc30010 	lw	v1,16(s8)
a08042e4:	2442005a 	addiu	v0,v0,90
a08042e8:	00021080 	sll	v0,v0,0x2
a08042ec:	00621021 	addu	v0,v1,v0
a08042f0:	8c430004 	lw	v1,4(v0)
a08042f4:	24020002 	li	v0,2
a08042f8:	1462000c 	bne	v1,v0,a080432c <do_kill+0x160>
a08042fc:	00000000 	nop
a0804300:	8fc20020 	lw	v0,32(s8)
a0804304:	000218c0 	sll	v1,v0,0x3
a0804308:	00031080 	sll	v0,v1,0x2
a080430c:	00431823 	subu	v1,v0,v1
a0804310:	3c02a084 	lui	v0,0xa084
a0804314:	24424e90 	addiu	v0,v0,20112
a0804318:	00621021 	addu	v0,v1,v0
a080431c:	00402021 	move	a0,v0
a0804320:	8fc50010 	lw	a1,16(s8)
a0804324:	0c200af8 	jal	a0802be0 <do_mutex_lock_release>
a0804328:	00000000 	nop
a080432c:	8fc20020 	lw	v0,32(s8)
a0804330:	24420001 	addiu	v0,v0,1
a0804334:	afc20020 	sw	v0,32(s8)
a0804338:	8fc20020 	lw	v0,32(s8)
a080433c:	28420010 	slti	v0,v0,16
a0804340:	1440ffe6 	bnez	v0,a08042dc <do_kill+0x110>
a0804344:	00000000 	nop
a0804348:	8fc20010 	lw	v0,16(s8)
a080434c:	244201ac 	addiu	v0,v0,428
a0804350:	00402021 	move	a0,v0
a0804354:	0c200e4f 	jal	a080393c <do_unblock_all>
a0804358:	00000000 	nop
a080435c:	8fc20010 	lw	v0,16(s8)
a0804360:	8c430150 	lw	v1,336(v0)
a0804364:	24020002 	li	v0,2
a0804368:	10620006 	beq	v1,v0,a0804384 <do_kill+0x1b8>
a080436c:	00000000 	nop
a0804370:	8fc20010 	lw	v0,16(s8)
a0804374:	8c430150 	lw	v1,336(v0)
a0804378:	24020001 	li	v0,1
a080437c:	14620008 	bne	v1,v0,a08043a0 <do_kill+0x1d4>
a0804380:	00000000 	nop
a0804384:	3c02a081 	lui	v0,0xa081
a0804388:	2444d938 	addiu	a0,v0,-9928
a080438c:	8fc50010 	lw	a1,16(s8)
a0804390:	0c20128d 	jal	a0804a34 <queue_remove>
a0804394:	00000000 	nop
a0804398:	08201102 	j	a0804408 <do_kill+0x23c>
a080439c:	00000000 	nop
a08043a0:	8fc20010 	lw	v0,16(s8)
a08043a4:	8c420150 	lw	v0,336(v0)
a08043a8:	1440000d 	bnez	v0,a08043e0 <do_kill+0x214>
a08043ac:	00000000 	nop
a08043b0:	8fc20010 	lw	v0,16(s8)
a08043b4:	8c4201b8 	lw	v0,440(v0)
a08043b8:	10400013 	beqz	v0,a0804408 <do_kill+0x23c>
a08043bc:	00000000 	nop
a08043c0:	8fc20010 	lw	v0,16(s8)
a08043c4:	8c4201b8 	lw	v0,440(v0)
a08043c8:	00402021 	move	a0,v0
a08043cc:	8fc50010 	lw	a1,16(s8)
a08043d0:	0c20128d 	jal	a0804a34 <queue_remove>
a08043d4:	00000000 	nop
a08043d8:	08201102 	j	a0804408 <do_kill+0x23c>
a08043dc:	00000000 	nop
a08043e0:	8fc20010 	lw	v0,16(s8)
a08043e4:	8c430150 	lw	v1,336(v0)
a08043e8:	24020004 	li	v0,4
a08043ec:	14620006 	bne	v1,v0,a0804408 <do_kill+0x23c>
a08043f0:	00000000 	nop
a08043f4:	3c02a081 	lui	v0,0xa081
a08043f8:	2444d944 	addiu	a0,v0,-9916
a08043fc:	8fc50010 	lw	a1,16(s8)
a0804400:	0c20128d 	jal	a0804a34 <queue_remove>
a0804404:	00000000 	nop
a0804408:	8fc20024 	lw	v0,36(s8)
a080440c:	000213c0 	sll	v0,v0,0xf
a0804410:	00021823 	negu	v1,v0
a0804414:	3c02a0f0 	lui	v0,0xa0f0
a0804418:	00621821 	addu	v1,v1,v0
a080441c:	8fc20010 	lw	v0,16(s8)
a0804420:	ac430074 	sw	v1,116(v0)
a0804424:	8fc20024 	lw	v0,36(s8)
a0804428:	000213c0 	sll	v0,v0,0xf
a080442c:	00021823 	negu	v1,v0
a0804430:	3c02a0f0 	lui	v0,0xa0f0
a0804434:	00621821 	addu	v1,v1,v0
a0804438:	8fc20010 	lw	v0,16(s8)
a080443c:	ac430138 	sw	v1,312(v0)
a0804440:	8fc40024 	lw	a0,36(s8)
a0804444:	3c05a084 	lui	a1,0xa084
a0804448:	00801021 	move	v0,a0
a080444c:	00021900 	sll	v1,v0,0x4
a0804450:	000310c0 	sll	v0,v1,0x3
a0804454:	00431023 	subu	v0,v0,v1
a0804458:	00441023 	subu	v0,v0,a0
a080445c:	00021880 	sll	v1,v0,0x2
a0804460:	24a25028 	addiu	v0,a1,20520
a0804464:	00621021 	addu	v0,v1,v0
a0804468:	8c420138 	lw	v0,312(v0)
a080446c:	2443c000 	addiu	v1,v0,-16384
a0804470:	8fc20010 	lw	v0,16(s8)
a0804474:	ac430110 	sw	v1,272(v0)
a0804478:	8fc40024 	lw	a0,36(s8)
a080447c:	3c05a084 	lui	a1,0xa084
a0804480:	00801021 	move	v0,a0
a0804484:	00021900 	sll	v1,v0,0x4
a0804488:	000310c0 	sll	v0,v1,0x3
a080448c:	00431023 	subu	v0,v0,v1
a0804490:	00441023 	subu	v0,v0,a0
a0804494:	00021880 	sll	v1,v0,0x2
a0804498:	24a25028 	addiu	v0,a1,20520
a080449c:	00621021 	addu	v0,v1,v0
a08044a0:	8c420138 	lw	v0,312(v0)
a08044a4:	2443c000 	addiu	v1,v0,-16384
a08044a8:	8fc20010 	lw	v0,16(s8)
a08044ac:	ac43013c 	sw	v1,316(v0)
a08044b0:	8fc30010 	lw	v1,16(s8)
a08044b4:	24020003 	li	v0,3
a08044b8:	ac620150 	sw	v0,336(v1)
a08044bc:	0c2000f8 	jal	a08003e0 <do_scheduler>
a08044c0:	00000000 	nop
a08044c4:	03c0e821 	move	sp,s8
a08044c8:	8fbf002c 	lw	ra,44(sp)
a08044cc:	8fbe0028 	lw	s8,40(sp)
a08044d0:	27bd0030 	addiu	sp,sp,48
a08044d4:	03e00008 	jr	ra
a08044d8:	00000000 	nop

a08044dc <do_exit>:
a08044dc:	27bdffd0 	addiu	sp,sp,-48
a08044e0:	afbf002c 	sw	ra,44(sp)
a08044e4:	afbe0028 	sw	s8,40(sp)
a08044e8:	03a0f021 	move	s8,sp
a08044ec:	afc00020 	sw	zero,32(s8)
a08044f0:	08201150 	j	a0804540 <do_exit+0x64>
a08044f4:	00000000 	nop
a08044f8:	8fc40020 	lw	a0,32(s8)
a08044fc:	00801021 	move	v0,a0
a0804500:	00021900 	sll	v1,v0,0x4
a0804504:	000310c0 	sll	v0,v1,0x3
a0804508:	00431023 	subu	v0,v0,v1
a080450c:	00441023 	subu	v0,v0,a0
a0804510:	00021080 	sll	v0,v0,0x2
a0804514:	00401821 	move	v1,v0
a0804518:	3c02a084 	lui	v0,0xa084
a080451c:	24425028 	addiu	v0,v0,20520
a0804520:	00621821 	addu	v1,v1,v0
a0804524:	3c02a081 	lui	v0,0xa081
a0804528:	8c42d940 	lw	v0,-9920(v0)
a080452c:	10620008 	beq	v1,v0,a0804550 <do_exit+0x74>
a0804530:	00000000 	nop
a0804534:	8fc20020 	lw	v0,32(s8)
a0804538:	24420001 	addiu	v0,v0,1
a080453c:	afc20020 	sw	v0,32(s8)
a0804540:	8fc20020 	lw	v0,32(s8)
a0804544:	28420010 	slti	v0,v0,16
a0804548:	1440ffeb 	bnez	v0,a08044f8 <do_exit+0x1c>
a080454c:	00000000 	nop
a0804550:	8fc30020 	lw	v1,32(s8)
a0804554:	24020010 	li	v0,16
a0804558:	14620007 	bne	v1,v0,a0804578 <do_exit+0x9c>
a080455c:	00000000 	nop
a0804560:	3c02a081 	lui	v0,0xa081
a0804564:	2444cf50 	addiu	a0,v0,-12464
a0804568:	0c201981 	jal	a0806604 <printk>
a080456c:	00000000 	nop
a0804570:	0820115c 	j	a0804570 <do_exit+0x94>
a0804574:	00000000 	nop
a0804578:	afc0001c 	sw	zero,28(s8)
a080457c:	0820117b 	j	a08045ec <do_exit+0x110>
a0804580:	00000000 	nop
a0804584:	3c02a081 	lui	v0,0xa081
a0804588:	8c43d940 	lw	v1,-9920(v0)
a080458c:	8fc2001c 	lw	v0,28(s8)
a0804590:	2442005a 	addiu	v0,v0,90
a0804594:	00021080 	sll	v0,v0,0x2
a0804598:	00621021 	addu	v0,v1,v0
a080459c:	8c430004 	lw	v1,4(v0)
a08045a0:	24020002 	li	v0,2
a08045a4:	1462000e 	bne	v1,v0,a08045e0 <do_exit+0x104>
a08045a8:	00000000 	nop
a08045ac:	8fc2001c 	lw	v0,28(s8)
a08045b0:	000218c0 	sll	v1,v0,0x3
a08045b4:	00031080 	sll	v0,v1,0x2
a08045b8:	00431823 	subu	v1,v0,v1
a08045bc:	3c02a084 	lui	v0,0xa084
a08045c0:	24424e90 	addiu	v0,v0,20112
a08045c4:	00621821 	addu	v1,v1,v0
a08045c8:	3c02a081 	lui	v0,0xa081
a08045cc:	8c42d940 	lw	v0,-9920(v0)
a08045d0:	00602021 	move	a0,v1
a08045d4:	00402821 	move	a1,v0
a08045d8:	0c200af8 	jal	a0802be0 <do_mutex_lock_release>
a08045dc:	00000000 	nop
a08045e0:	8fc2001c 	lw	v0,28(s8)
a08045e4:	24420001 	addiu	v0,v0,1
a08045e8:	afc2001c 	sw	v0,28(s8)
a08045ec:	8fc2001c 	lw	v0,28(s8)
a08045f0:	28420010 	slti	v0,v0,16
a08045f4:	1440ffe3 	bnez	v0,a0804584 <do_exit+0xa8>
a08045f8:	00000000 	nop
a08045fc:	3c02a081 	lui	v0,0xa081
a0804600:	8c42d940 	lw	v0,-9920(v0)
a0804604:	244201ac 	addiu	v0,v0,428
a0804608:	00402021 	move	a0,v0
a080460c:	0c200e4f 	jal	a080393c <do_unblock_all>
a0804610:	00000000 	nop
a0804614:	3c02a081 	lui	v0,0xa081
a0804618:	8c43d940 	lw	v1,-9920(v0)
a080461c:	24020003 	li	v0,3
a0804620:	ac620150 	sw	v0,336(v1)
a0804624:	3c02a081 	lui	v0,0xa081
a0804628:	8c44d940 	lw	a0,-9920(v0)
a080462c:	8fc20020 	lw	v0,32(s8)
a0804630:	000213c0 	sll	v0,v0,0xf
a0804634:	00021823 	negu	v1,v0
a0804638:	3c02a0f0 	lui	v0,0xa0f0
a080463c:	00621021 	addu	v0,v1,v0
a0804640:	ac820074 	sw	v0,116(a0)
a0804644:	3c02a081 	lui	v0,0xa081
a0804648:	8c44d940 	lw	a0,-9920(v0)
a080464c:	8fc20020 	lw	v0,32(s8)
a0804650:	000213c0 	sll	v0,v0,0xf
a0804654:	00021823 	negu	v1,v0
a0804658:	3c02a0f0 	lui	v0,0xa0f0
a080465c:	00621021 	addu	v0,v1,v0
a0804660:	ac820138 	sw	v0,312(a0)
a0804664:	3c02a081 	lui	v0,0xa081
a0804668:	8c46d940 	lw	a2,-9920(v0)
a080466c:	8fc40020 	lw	a0,32(s8)
a0804670:	3c05a084 	lui	a1,0xa084
a0804674:	00801021 	move	v0,a0
a0804678:	00021900 	sll	v1,v0,0x4
a080467c:	000310c0 	sll	v0,v1,0x3
a0804680:	00431023 	subu	v0,v0,v1
a0804684:	00441023 	subu	v0,v0,a0
a0804688:	00021880 	sll	v1,v0,0x2
a080468c:	24a25028 	addiu	v0,a1,20520
a0804690:	00621021 	addu	v0,v1,v0
a0804694:	8c420138 	lw	v0,312(v0)
a0804698:	2442c000 	addiu	v0,v0,-16384
a080469c:	acc20110 	sw	v0,272(a2)
a08046a0:	3c02a081 	lui	v0,0xa081
a08046a4:	8c46d940 	lw	a2,-9920(v0)
a08046a8:	8fc40020 	lw	a0,32(s8)
a08046ac:	3c05a084 	lui	a1,0xa084
a08046b0:	00801021 	move	v0,a0
a08046b4:	00021900 	sll	v1,v0,0x4
a08046b8:	000310c0 	sll	v0,v1,0x3
a08046bc:	00431023 	subu	v0,v0,v1
a08046c0:	00441023 	subu	v0,v0,a0
a08046c4:	00021880 	sll	v1,v0,0x2
a08046c8:	24a25028 	addiu	v0,a1,20520
a08046cc:	00621021 	addu	v0,v1,v0
a08046d0:	8c420138 	lw	v0,312(v0)
a08046d4:	2442c000 	addiu	v0,v0,-16384
a08046d8:	acc2013c 	sw	v0,316(a2)
a08046dc:	0c2000f8 	jal	a08003e0 <do_scheduler>
a08046e0:	00000000 	nop
a08046e4:	03c0e821 	move	sp,s8
a08046e8:	8fbf002c 	lw	ra,44(sp)
a08046ec:	8fbe0028 	lw	s8,40(sp)
a08046f0:	27bd0030 	addiu	sp,sp,48
a08046f4:	03e00008 	jr	ra
a08046f8:	00000000 	nop

a08046fc <do_wait>:
a08046fc:	27bdffd8 	addiu	sp,sp,-40
a0804700:	afbf0024 	sw	ra,36(sp)
a0804704:	afbe0020 	sw	s8,32(sp)
a0804708:	03a0f021 	move	s8,sp
a080470c:	afc40028 	sw	a0,40(s8)
a0804710:	afc00018 	sw	zero,24(s8)
a0804714:	3c02a081 	lui	v0,0xa081
a0804718:	8c43d940 	lw	v1,-9920(v0)
a080471c:	8fc20028 	lw	v0,40(s8)
a0804720:	ac6201b4 	sw	v0,436(v1)
a0804724:	3c02a081 	lui	v0,0xa081
a0804728:	8c42d940 	lw	v0,-9920(v0)
a080472c:	ac400150 	sw	zero,336(v0)
a0804730:	afc00014 	sw	zero,20(s8)
a0804734:	082011ee 	j	a08047b8 <do_wait+0xbc>
a0804738:	00000000 	nop
a080473c:	8fc40014 	lw	a0,20(s8)
a0804740:	3c05a084 	lui	a1,0xa084
a0804744:	00801021 	move	v0,a0
a0804748:	00021900 	sll	v1,v0,0x4
a080474c:	000310c0 	sll	v0,v1,0x3
a0804750:	00431023 	subu	v0,v0,v1
a0804754:	00441023 	subu	v0,v0,a0
a0804758:	00021880 	sll	v1,v0,0x2
a080475c:	24a25028 	addiu	v0,a1,20520
a0804760:	00621021 	addu	v0,v1,v0
a0804764:	8c430148 	lw	v1,328(v0)
a0804768:	8fc20028 	lw	v0,40(s8)
a080476c:	1462000f 	bne	v1,v0,a08047ac <do_wait+0xb0>
a0804770:	00000000 	nop
a0804774:	8fc40014 	lw	a0,20(s8)
a0804778:	00801021 	move	v0,a0
a080477c:	00021900 	sll	v1,v0,0x4
a0804780:	000310c0 	sll	v0,v1,0x3
a0804784:	00431023 	subu	v0,v0,v1
a0804788:	00441023 	subu	v0,v0,a0
a080478c:	00021080 	sll	v0,v0,0x2
a0804790:	00401821 	move	v1,v0
a0804794:	3c02a084 	lui	v0,0xa084
a0804798:	24425028 	addiu	v0,v0,20520
a080479c:	00621021 	addu	v0,v1,v0
a08047a0:	afc20018 	sw	v0,24(s8)
a08047a4:	082011f2 	j	a08047c8 <do_wait+0xcc>
a08047a8:	00000000 	nop
a08047ac:	8fc20014 	lw	v0,20(s8)
a08047b0:	24420001 	addiu	v0,v0,1
a08047b4:	afc20014 	sw	v0,20(s8)
a08047b8:	8fc20014 	lw	v0,20(s8)
a08047bc:	28420010 	slti	v0,v0,16
a08047c0:	1440ffde 	bnez	v0,a080473c <do_wait+0x40>
a08047c4:	00000000 	nop
a08047c8:	8fc20018 	lw	v0,24(s8)
a08047cc:	14400007 	bnez	v0,a08047ec <do_wait+0xf0>
a08047d0:	00000000 	nop
a08047d4:	3c02a081 	lui	v0,0xa081
a08047d8:	2444cf7c 	addiu	a0,v0,-12420
a08047dc:	0c201981 	jal	a0806604 <printk>
a08047e0:	00000000 	nop
a08047e4:	082011f9 	j	a08047e4 <do_wait+0xe8>
a08047e8:	00000000 	nop
a08047ec:	3c02a081 	lui	v0,0xa081
a08047f0:	8c43d940 	lw	v1,-9920(v0)
a08047f4:	8fc20018 	lw	v0,24(s8)
a08047f8:	244201ac 	addiu	v0,v0,428
a08047fc:	ac6201b8 	sw	v0,440(v1)
a0804800:	8fc20018 	lw	v0,24(s8)
a0804804:	244301ac 	addiu	v1,v0,428
a0804808:	3c02a081 	lui	v0,0xa081
a080480c:	8c42d940 	lw	v0,-9920(v0)
a0804810:	00602021 	move	a0,v1
a0804814:	00402821 	move	a1,v0
a0804818:	0c20123e 	jal	a08048f8 <queue_push>
a080481c:	00000000 	nop
a0804820:	0c2000f8 	jal	a08003e0 <do_scheduler>
a0804824:	00000000 	nop
a0804828:	03c0e821 	move	sp,s8
a080482c:	8fbf0024 	lw	ra,36(sp)
a0804830:	8fbe0020 	lw	s8,32(sp)
a0804834:	27bd0028 	addiu	sp,sp,40
a0804838:	03e00008 	jr	ra
a080483c:	00000000 	nop

a0804840 <do_getpid>:
a0804840:	27bdfff8 	addiu	sp,sp,-8
a0804844:	afbe0004 	sw	s8,4(sp)
a0804848:	03a0f021 	move	s8,sp
a080484c:	3c02a081 	lui	v0,0xa081
a0804850:	8c42d940 	lw	v0,-9920(v0)
a0804854:	8c420148 	lw	v0,328(v0)
a0804858:	03c0e821 	move	sp,s8
a080485c:	8fbe0004 	lw	s8,4(sp)
a0804860:	27bd0008 	addiu	sp,sp,8
a0804864:	03e00008 	jr	ra
a0804868:	00000000 	nop
a080486c:	00000000 	nop

a0804870 <queue_init>:
a0804870:	27bdfff8 	addiu	sp,sp,-8
a0804874:	afbe0004 	sw	s8,4(sp)
a0804878:	03a0f021 	move	s8,sp
a080487c:	afc40008 	sw	a0,8(s8)
a0804880:	8fc20008 	lw	v0,8(s8)
a0804884:	ac400004 	sw	zero,4(v0)
a0804888:	8fc20008 	lw	v0,8(s8)
a080488c:	8c430004 	lw	v1,4(v0)
a0804890:	8fc20008 	lw	v0,8(s8)
a0804894:	ac430000 	sw	v1,0(v0)
a0804898:	03c0e821 	move	sp,s8
a080489c:	8fbe0004 	lw	s8,4(sp)
a08048a0:	27bd0008 	addiu	sp,sp,8
a08048a4:	03e00008 	jr	ra
a08048a8:	00000000 	nop

a08048ac <queue_is_empty>:
a08048ac:	27bdfff0 	addiu	sp,sp,-16
a08048b0:	afbe000c 	sw	s8,12(sp)
a08048b4:	03a0f021 	move	s8,sp
a08048b8:	afc40010 	sw	a0,16(s8)
a08048bc:	8fc20010 	lw	v0,16(s8)
a08048c0:	8c420000 	lw	v0,0(v0)
a08048c4:	14400005 	bnez	v0,a08048dc <queue_is_empty+0x30>
a08048c8:	00000000 	nop
a08048cc:	24020001 	li	v0,1
a08048d0:	afc20000 	sw	v0,0(s8)
a08048d4:	08201238 	j	a08048e0 <queue_is_empty+0x34>
a08048d8:	00000000 	nop
a08048dc:	afc00000 	sw	zero,0(s8)
a08048e0:	8fc20000 	lw	v0,0(s8)
a08048e4:	03c0e821 	move	sp,s8
a08048e8:	8fbe000c 	lw	s8,12(sp)
a08048ec:	27bd0010 	addiu	sp,sp,16
a08048f0:	03e00008 	jr	ra
a08048f4:	00000000 	nop

a08048f8 <queue_push>:
a08048f8:	27bdfff0 	addiu	sp,sp,-16
a08048fc:	afbe000c 	sw	s8,12(sp)
a0804900:	03a0f021 	move	s8,sp
a0804904:	afc40010 	sw	a0,16(s8)
a0804908:	afc50014 	sw	a1,20(s8)
a080490c:	8fc20014 	lw	v0,20(s8)
a0804910:	afc20000 	sw	v0,0(s8)
a0804914:	8fc20010 	lw	v0,16(s8)
a0804918:	8c420000 	lw	v0,0(v0)
a080491c:	1440000d 	bnez	v0,a0804954 <queue_push+0x5c>
a0804920:	00000000 	nop
a0804924:	8fc30010 	lw	v1,16(s8)
a0804928:	8fc20014 	lw	v0,20(s8)
a080492c:	ac620000 	sw	v0,0(v1)
a0804930:	8fc30010 	lw	v1,16(s8)
a0804934:	8fc20014 	lw	v0,20(s8)
a0804938:	ac620004 	sw	v0,4(v1)
a080493c:	8fc20000 	lw	v0,0(s8)
a0804940:	ac400144 	sw	zero,324(v0)
a0804944:	8fc20000 	lw	v0,0(s8)
a0804948:	ac400140 	sw	zero,320(v0)
a080494c:	08201263 	j	a080498c <queue_push+0x94>
a0804950:	00000000 	nop
a0804954:	8fc20010 	lw	v0,16(s8)
a0804958:	8c420004 	lw	v0,4(v0)
a080495c:	00401821 	move	v1,v0
a0804960:	8fc20014 	lw	v0,20(s8)
a0804964:	ac620144 	sw	v0,324(v1)
a0804968:	8fc20000 	lw	v0,0(s8)
a080496c:	ac400144 	sw	zero,324(v0)
a0804970:	8fc20010 	lw	v0,16(s8)
a0804974:	8c430004 	lw	v1,4(v0)
a0804978:	8fc20000 	lw	v0,0(s8)
a080497c:	ac430140 	sw	v1,320(v0)
a0804980:	8fc30010 	lw	v1,16(s8)
a0804984:	8fc20014 	lw	v0,20(s8)
a0804988:	ac620004 	sw	v0,4(v1)
a080498c:	03c0e821 	move	sp,s8
a0804990:	8fbe000c 	lw	s8,12(sp)
a0804994:	27bd0010 	addiu	sp,sp,16
a0804998:	03e00008 	jr	ra
a080499c:	00000000 	nop

a08049a0 <queue_dequeue>:
a08049a0:	27bdfff0 	addiu	sp,sp,-16
a08049a4:	afbe000c 	sw	s8,12(sp)
a08049a8:	03a0f021 	move	s8,sp
a08049ac:	afc40010 	sw	a0,16(s8)
a08049b0:	8fc20010 	lw	v0,16(s8)
a08049b4:	8c420000 	lw	v0,0(v0)
a08049b8:	afc20000 	sw	v0,0(s8)
a08049bc:	8fc20000 	lw	v0,0(s8)
a08049c0:	8c420144 	lw	v0,324(v0)
a08049c4:	14400009 	bnez	v0,a08049ec <queue_dequeue+0x4c>
a08049c8:	00000000 	nop
a08049cc:	8fc20010 	lw	v0,16(s8)
a08049d0:	ac400004 	sw	zero,4(v0)
a08049d4:	8fc20010 	lw	v0,16(s8)
a08049d8:	8c430004 	lw	v1,4(v0)
a08049dc:	8fc20010 	lw	v0,16(s8)
a08049e0:	ac430000 	sw	v1,0(v0)
a08049e4:	08201283 	j	a0804a0c <queue_dequeue+0x6c>
a08049e8:	00000000 	nop
a08049ec:	8fc20010 	lw	v0,16(s8)
a08049f0:	8c420000 	lw	v0,0(v0)
a08049f4:	8c430144 	lw	v1,324(v0)
a08049f8:	8fc20010 	lw	v0,16(s8)
a08049fc:	ac430000 	sw	v1,0(v0)
a0804a00:	8fc20010 	lw	v0,16(s8)
a0804a04:	8c420000 	lw	v0,0(v0)
a0804a08:	ac400140 	sw	zero,320(v0)
a0804a0c:	8fc20000 	lw	v0,0(s8)
a0804a10:	ac400140 	sw	zero,320(v0)
a0804a14:	8fc20000 	lw	v0,0(s8)
a0804a18:	ac400144 	sw	zero,324(v0)
a0804a1c:	8fc20000 	lw	v0,0(s8)
a0804a20:	03c0e821 	move	sp,s8
a0804a24:	8fbe000c 	lw	s8,12(sp)
a0804a28:	27bd0010 	addiu	sp,sp,16
a0804a2c:	03e00008 	jr	ra
a0804a30:	00000000 	nop

a0804a34 <queue_remove>:
a0804a34:	27bdfff0 	addiu	sp,sp,-16
a0804a38:	afbe000c 	sw	s8,12(sp)
a0804a3c:	03a0f021 	move	s8,sp
a0804a40:	afc40010 	sw	a0,16(s8)
a0804a44:	afc50014 	sw	a1,20(s8)
a0804a48:	8fc20014 	lw	v0,20(s8)
a0804a4c:	afc20004 	sw	v0,4(s8)
a0804a50:	8fc20004 	lw	v0,4(s8)
a0804a54:	8c420144 	lw	v0,324(v0)
a0804a58:	afc20000 	sw	v0,0(s8)
a0804a5c:	8fc20010 	lw	v0,16(s8)
a0804a60:	8c430000 	lw	v1,0(v0)
a0804a64:	8fc20014 	lw	v0,20(s8)
a0804a68:	1462000c 	bne	v1,v0,a0804a9c <queue_remove+0x68>
a0804a6c:	00000000 	nop
a0804a70:	8fc20010 	lw	v0,16(s8)
a0804a74:	8c430004 	lw	v1,4(v0)
a0804a78:	8fc20014 	lw	v0,20(s8)
a0804a7c:	14620007 	bne	v1,v0,a0804a9c <queue_remove+0x68>
a0804a80:	00000000 	nop
a0804a84:	8fc20010 	lw	v0,16(s8)
a0804a88:	ac400000 	sw	zero,0(v0)
a0804a8c:	8fc20010 	lw	v0,16(s8)
a0804a90:	ac400004 	sw	zero,4(v0)
a0804a94:	082012cf 	j	a0804b3c <queue_remove+0x108>
a0804a98:	00000000 	nop
a0804a9c:	8fc20010 	lw	v0,16(s8)
a0804aa0:	8c430000 	lw	v1,0(v0)
a0804aa4:	8fc20014 	lw	v0,20(s8)
a0804aa8:	1462000a 	bne	v1,v0,a0804ad4 <queue_remove+0xa0>
a0804aac:	00000000 	nop
a0804ab0:	8fc20004 	lw	v0,4(s8)
a0804ab4:	8c430144 	lw	v1,324(v0)
a0804ab8:	8fc20010 	lw	v0,16(s8)
a0804abc:	ac430000 	sw	v1,0(v0)
a0804ac0:	8fc20010 	lw	v0,16(s8)
a0804ac4:	8c420000 	lw	v0,0(v0)
a0804ac8:	ac400140 	sw	zero,320(v0)
a0804acc:	082012cf 	j	a0804b3c <queue_remove+0x108>
a0804ad0:	00000000 	nop
a0804ad4:	8fc20010 	lw	v0,16(s8)
a0804ad8:	8c430004 	lw	v1,4(v0)
a0804adc:	8fc20014 	lw	v0,20(s8)
a0804ae0:	1462000a 	bne	v1,v0,a0804b0c <queue_remove+0xd8>
a0804ae4:	00000000 	nop
a0804ae8:	8fc20004 	lw	v0,4(s8)
a0804aec:	8c430140 	lw	v1,320(v0)
a0804af0:	8fc20010 	lw	v0,16(s8)
a0804af4:	ac430004 	sw	v1,4(v0)
a0804af8:	8fc20010 	lw	v0,16(s8)
a0804afc:	8c420004 	lw	v0,4(v0)
a0804b00:	ac400144 	sw	zero,324(v0)
a0804b04:	082012cf 	j	a0804b3c <queue_remove+0x108>
a0804b08:	00000000 	nop
a0804b0c:	8fc20004 	lw	v0,4(s8)
a0804b10:	8c420140 	lw	v0,320(v0)
a0804b14:	00401821 	move	v1,v0
a0804b18:	8fc20004 	lw	v0,4(s8)
a0804b1c:	8c420144 	lw	v0,324(v0)
a0804b20:	ac620144 	sw	v0,324(v1)
a0804b24:	8fc20004 	lw	v0,4(s8)
a0804b28:	8c420144 	lw	v0,324(v0)
a0804b2c:	00401821 	move	v1,v0
a0804b30:	8fc20004 	lw	v0,4(s8)
a0804b34:	8c420140 	lw	v0,320(v0)
a0804b38:	ac620140 	sw	v0,320(v1)
a0804b3c:	8fc20004 	lw	v0,4(s8)
a0804b40:	ac400140 	sw	zero,320(v0)
a0804b44:	8fc20004 	lw	v0,4(s8)
a0804b48:	ac400144 	sw	zero,324(v0)
a0804b4c:	8fc20000 	lw	v0,0(s8)
a0804b50:	03c0e821 	move	sp,s8
a0804b54:	8fbe000c 	lw	s8,12(sp)
a0804b58:	27bd0010 	addiu	sp,sp,16
a0804b5c:	03e00008 	jr	ra
a0804b60:	00000000 	nop
	...

a0804b70 <get_ticks>:
a0804b70:	27bdfff8 	addiu	sp,sp,-8
a0804b74:	afbe0004 	sw	s8,4(sp)
a0804b78:	03a0f021 	move	s8,sp
a0804b7c:	3c02a081 	lui	v0,0xa081
a0804b80:	8c42f380 	lw	v0,-3200(v0)
a0804b84:	03c0e821 	move	sp,s8
a0804b88:	8fbe0004 	lw	s8,4(sp)
a0804b8c:	27bd0008 	addiu	sp,sp,8
a0804b90:	03e00008 	jr	ra
a0804b94:	00000000 	nop

a0804b98 <get_timer>:
a0804b98:	27bdfff8 	addiu	sp,sp,-8
a0804b9c:	afbe0004 	sw	s8,4(sp)
a0804ba0:	03a0f021 	move	s8,sp
a0804ba4:	3c02a081 	lui	v0,0xa081
a0804ba8:	8c43f380 	lw	v1,-3200(v0)
a0804bac:	3c026b5f 	lui	v0,0x6b5f
a0804bb0:	3442ca6b 	ori	v0,v0,0xca6b
a0804bb4:	00620019 	multu	v1,v0
a0804bb8:	00001010 	mfhi	v0
a0804bbc:	00021582 	srl	v0,v0,0x16
a0804bc0:	03c0e821 	move	sp,s8
a0804bc4:	8fbe0004 	lw	s8,4(sp)
a0804bc8:	27bd0008 	addiu	sp,sp,8
a0804bcc:	03e00008 	jr	ra
a0804bd0:	00000000 	nop

a0804bd4 <latency>:
a0804bd4:	27bdffe0 	addiu	sp,sp,-32
a0804bd8:	afbf001c 	sw	ra,28(sp)
a0804bdc:	afbe0018 	sw	s8,24(sp)
a0804be0:	03a0f021 	move	s8,sp
a0804be4:	afc40020 	sw	a0,32(s8)
a0804be8:	0c2012e6 	jal	a0804b98 <get_timer>
a0804bec:	00000000 	nop
a0804bf0:	afc20010 	sw	v0,16(s8)
a0804bf4:	0c2012e6 	jal	a0804b98 <get_timer>
a0804bf8:	00000000 	nop
a0804bfc:	00401821 	move	v1,v0
a0804c00:	8fc20010 	lw	v0,16(s8)
a0804c04:	00621823 	subu	v1,v1,v0
a0804c08:	8fc20020 	lw	v0,32(s8)
a0804c0c:	0062102b 	sltu	v0,v1,v0
a0804c10:	1440fff8 	bnez	v0,a0804bf4 <latency+0x20>
a0804c14:	00000000 	nop
a0804c18:	03c0e821 	move	sp,s8
a0804c1c:	8fbf001c 	lw	ra,28(sp)
a0804c20:	8fbe0018 	lw	s8,24(sp)
a0804c24:	27bd0020 	addiu	sp,sp,32
a0804c28:	03e00008 	jr	ra
a0804c2c:	00000000 	nop

a0804c30 <system_call_helper>:
a0804c30:	27bdffe0 	addiu	sp,sp,-32
a0804c34:	afbf001c 	sw	ra,28(sp)
a0804c38:	afbe0018 	sw	s8,24(sp)
a0804c3c:	03a0f021 	move	s8,sp
a0804c40:	afc40020 	sw	a0,32(s8)
a0804c44:	afc50024 	sw	a1,36(s8)
a0804c48:	afc60028 	sw	a2,40(s8)
a0804c4c:	afc7002c 	sw	a3,44(s8)
a0804c50:	3c02a081 	lui	v0,0xa081
a0804c54:	8c43d940 	lw	v1,-9920(v0)
a0804c58:	3c02a081 	lui	v0,0xa081
a0804c5c:	8c42d940 	lw	v0,-9920(v0)
a0804c60:	8c420130 	lw	v0,304(v0)
a0804c64:	24420004 	addiu	v0,v0,4
a0804c68:	ac620130 	sw	v0,304(v1)
a0804c6c:	8fc20020 	lw	v0,32(s8)
a0804c70:	3c03a081 	lui	v1,0xa081
a0804c74:	00022080 	sll	a0,v0,0x2
a0804c78:	2462ff90 	addiu	v0,v1,-112
a0804c7c:	00821021 	addu	v0,a0,v0
a0804c80:	8c420000 	lw	v0,0(v0)
a0804c84:	8fc40024 	lw	a0,36(s8)
a0804c88:	8fc50028 	lw	a1,40(s8)
a0804c8c:	8fc6002c 	lw	a2,44(s8)
a0804c90:	0040f809 	jalr	v0
a0804c94:	00000000 	nop
a0804c98:	afc20010 	sw	v0,16(s8)
a0804c9c:	3c02a081 	lui	v0,0xa081
a0804ca0:	8c43d940 	lw	v1,-9920(v0)
a0804ca4:	8fc20010 	lw	v0,16(s8)
a0804ca8:	ac6200a4 	sw	v0,164(v1)
a0804cac:	03c0e821 	move	sp,s8
a0804cb0:	8fbf001c 	lw	ra,28(sp)
a0804cb4:	8fbe0018 	lw	s8,24(sp)
a0804cb8:	27bd0020 	addiu	sp,sp,32
a0804cbc:	03e00008 	jr	ra
a0804cc0:	00000000 	nop

a0804cc4 <sys_sleep>:
a0804cc4:	27bdffe8 	addiu	sp,sp,-24
a0804cc8:	afbf0014 	sw	ra,20(sp)
a0804ccc:	afbe0010 	sw	s8,16(sp)
a0804cd0:	03a0f021 	move	s8,sp
a0804cd4:	afc40018 	sw	a0,24(s8)
a0804cd8:	8fc20018 	lw	v0,24(s8)
a0804cdc:	24040002 	li	a0,2
a0804ce0:	00402821 	move	a1,v0
a0804ce4:	00003021 	move	a2,zero
a0804ce8:	00003821 	move	a3,zero
a0804cec:	0c200274 	jal	a08009d0 <invoke_syscall>
a0804cf0:	00000000 	nop
a0804cf4:	03c0e821 	move	sp,s8
a0804cf8:	8fbf0014 	lw	ra,20(sp)
a0804cfc:	8fbe0010 	lw	s8,16(sp)
a0804d00:	27bd0018 	addiu	sp,sp,24
a0804d04:	03e00008 	jr	ra
a0804d08:	00000000 	nop

a0804d0c <sys_process_show>:
a0804d0c:	27bdffe8 	addiu	sp,sp,-24
a0804d10:	afbf0014 	sw	ra,20(sp)
a0804d14:	afbe0010 	sw	s8,16(sp)
a0804d18:	03a0f021 	move	s8,sp
a0804d1c:	24040003 	li	a0,3
a0804d20:	00002821 	move	a1,zero
a0804d24:	00003021 	move	a2,zero
a0804d28:	00003821 	move	a3,zero
a0804d2c:	0c200274 	jal	a08009d0 <invoke_syscall>
a0804d30:	00000000 	nop
a0804d34:	03c0e821 	move	sp,s8
a0804d38:	8fbf0014 	lw	ra,20(sp)
a0804d3c:	8fbe0010 	lw	s8,16(sp)
a0804d40:	27bd0018 	addiu	sp,sp,24
a0804d44:	03e00008 	jr	ra
a0804d48:	00000000 	nop

a0804d4c <sys_spawn>:
a0804d4c:	27bdffe8 	addiu	sp,sp,-24
a0804d50:	afbf0014 	sw	ra,20(sp)
a0804d54:	afbe0010 	sw	s8,16(sp)
a0804d58:	03a0f021 	move	s8,sp
a0804d5c:	afc40018 	sw	a0,24(s8)
a0804d60:	afc5001c 	sw	a1,28(s8)
a0804d64:	8fc20018 	lw	v0,24(s8)
a0804d68:	8fc3001c 	lw	v1,28(s8)
a0804d6c:	24040004 	li	a0,4
a0804d70:	00402821 	move	a1,v0
a0804d74:	00603021 	move	a2,v1
a0804d78:	00003821 	move	a3,zero
a0804d7c:	0c200274 	jal	a08009d0 <invoke_syscall>
a0804d80:	00000000 	nop
a0804d84:	03c0e821 	move	sp,s8
a0804d88:	8fbf0014 	lw	ra,20(sp)
a0804d8c:	8fbe0010 	lw	s8,16(sp)
a0804d90:	27bd0018 	addiu	sp,sp,24
a0804d94:	03e00008 	jr	ra
a0804d98:	00000000 	nop

a0804d9c <sys_kill>:
a0804d9c:	27bdffe8 	addiu	sp,sp,-24
a0804da0:	afbf0014 	sw	ra,20(sp)
a0804da4:	afbe0010 	sw	s8,16(sp)
a0804da8:	03a0f021 	move	s8,sp
a0804dac:	afc40018 	sw	a0,24(s8)
a0804db0:	24040005 	li	a0,5
a0804db4:	8fc50018 	lw	a1,24(s8)
a0804db8:	00003021 	move	a2,zero
a0804dbc:	00003821 	move	a3,zero
a0804dc0:	0c200274 	jal	a08009d0 <invoke_syscall>
a0804dc4:	00000000 	nop
a0804dc8:	03c0e821 	move	sp,s8
a0804dcc:	8fbf0014 	lw	ra,20(sp)
a0804dd0:	8fbe0010 	lw	s8,16(sp)
a0804dd4:	27bd0018 	addiu	sp,sp,24
a0804dd8:	03e00008 	jr	ra
a0804ddc:	00000000 	nop

a0804de0 <sys_exit>:
a0804de0:	27bdffe8 	addiu	sp,sp,-24
a0804de4:	afbf0014 	sw	ra,20(sp)
a0804de8:	afbe0010 	sw	s8,16(sp)
a0804dec:	03a0f021 	move	s8,sp
a0804df0:	24040006 	li	a0,6
a0804df4:	00002821 	move	a1,zero
a0804df8:	00003021 	move	a2,zero
a0804dfc:	00003821 	move	a3,zero
a0804e00:	0c200274 	jal	a08009d0 <invoke_syscall>
a0804e04:	00000000 	nop
a0804e08:	03c0e821 	move	sp,s8
a0804e0c:	8fbf0014 	lw	ra,20(sp)
a0804e10:	8fbe0010 	lw	s8,16(sp)
a0804e14:	27bd0018 	addiu	sp,sp,24
a0804e18:	03e00008 	jr	ra
a0804e1c:	00000000 	nop

a0804e20 <sys_waitpid>:
a0804e20:	27bdffe8 	addiu	sp,sp,-24
a0804e24:	afbf0014 	sw	ra,20(sp)
a0804e28:	afbe0010 	sw	s8,16(sp)
a0804e2c:	03a0f021 	move	s8,sp
a0804e30:	afc40018 	sw	a0,24(s8)
a0804e34:	24040007 	li	a0,7
a0804e38:	8fc50018 	lw	a1,24(s8)
a0804e3c:	00003021 	move	a2,zero
a0804e40:	00003821 	move	a3,zero
a0804e44:	0c200274 	jal	a08009d0 <invoke_syscall>
a0804e48:	00000000 	nop
a0804e4c:	03c0e821 	move	sp,s8
a0804e50:	8fbf0014 	lw	ra,20(sp)
a0804e54:	8fbe0010 	lw	s8,16(sp)
a0804e58:	27bd0018 	addiu	sp,sp,24
a0804e5c:	03e00008 	jr	ra
a0804e60:	00000000 	nop

a0804e64 <sys_block>:
a0804e64:	27bdffe8 	addiu	sp,sp,-24
a0804e68:	afbf0014 	sw	ra,20(sp)
a0804e6c:	afbe0010 	sw	s8,16(sp)
a0804e70:	03a0f021 	move	s8,sp
a0804e74:	afc40018 	sw	a0,24(s8)
a0804e78:	8fc20018 	lw	v0,24(s8)
a0804e7c:	2404000a 	li	a0,10
a0804e80:	00402821 	move	a1,v0
a0804e84:	00003021 	move	a2,zero
a0804e88:	00003821 	move	a3,zero
a0804e8c:	0c200274 	jal	a08009d0 <invoke_syscall>
a0804e90:	00000000 	nop
a0804e94:	03c0e821 	move	sp,s8
a0804e98:	8fbf0014 	lw	ra,20(sp)
a0804e9c:	8fbe0010 	lw	s8,16(sp)
a0804ea0:	27bd0018 	addiu	sp,sp,24
a0804ea4:	03e00008 	jr	ra
a0804ea8:	00000000 	nop

a0804eac <sys_unblock_one>:
a0804eac:	27bdffe8 	addiu	sp,sp,-24
a0804eb0:	afbf0014 	sw	ra,20(sp)
a0804eb4:	afbe0010 	sw	s8,16(sp)
a0804eb8:	03a0f021 	move	s8,sp
a0804ebc:	afc40018 	sw	a0,24(s8)
a0804ec0:	8fc20018 	lw	v0,24(s8)
a0804ec4:	2404000b 	li	a0,11
a0804ec8:	00402821 	move	a1,v0
a0804ecc:	00003021 	move	a2,zero
a0804ed0:	00003821 	move	a3,zero
a0804ed4:	0c200274 	jal	a08009d0 <invoke_syscall>
a0804ed8:	00000000 	nop
a0804edc:	03c0e821 	move	sp,s8
a0804ee0:	8fbf0014 	lw	ra,20(sp)
a0804ee4:	8fbe0010 	lw	s8,16(sp)
a0804ee8:	27bd0018 	addiu	sp,sp,24
a0804eec:	03e00008 	jr	ra
a0804ef0:	00000000 	nop

a0804ef4 <sys_unblock_all>:
a0804ef4:	27bdffe8 	addiu	sp,sp,-24
a0804ef8:	afbf0014 	sw	ra,20(sp)
a0804efc:	afbe0010 	sw	s8,16(sp)
a0804f00:	03a0f021 	move	s8,sp
a0804f04:	afc40018 	sw	a0,24(s8)
a0804f08:	8fc20018 	lw	v0,24(s8)
a0804f0c:	2404000c 	li	a0,12
a0804f10:	00402821 	move	a1,v0
a0804f14:	00003021 	move	a2,zero
a0804f18:	00003821 	move	a3,zero
a0804f1c:	0c200274 	jal	a08009d0 <invoke_syscall>
a0804f20:	00000000 	nop
a0804f24:	03c0e821 	move	sp,s8
a0804f28:	8fbf0014 	lw	ra,20(sp)
a0804f2c:	8fbe0010 	lw	s8,16(sp)
a0804f30:	27bd0018 	addiu	sp,sp,24
a0804f34:	03e00008 	jr	ra
a0804f38:	00000000 	nop

a0804f3c <semaphore_init>:
a0804f3c:	27bdffe8 	addiu	sp,sp,-24
a0804f40:	afbf0014 	sw	ra,20(sp)
a0804f44:	afbe0010 	sw	s8,16(sp)
a0804f48:	03a0f021 	move	s8,sp
a0804f4c:	afc40018 	sw	a0,24(s8)
a0804f50:	afc5001c 	sw	a1,28(s8)
a0804f54:	8fc20018 	lw	v0,24(s8)
a0804f58:	2404000d 	li	a0,13
a0804f5c:	00402821 	move	a1,v0
a0804f60:	8fc6001c 	lw	a2,28(s8)
a0804f64:	00003821 	move	a3,zero
a0804f68:	0c200274 	jal	a08009d0 <invoke_syscall>
a0804f6c:	00000000 	nop
a0804f70:	03c0e821 	move	sp,s8
a0804f74:	8fbf0014 	lw	ra,20(sp)
a0804f78:	8fbe0010 	lw	s8,16(sp)
a0804f7c:	27bd0018 	addiu	sp,sp,24
a0804f80:	03e00008 	jr	ra
a0804f84:	00000000 	nop

a0804f88 <semaphore_up>:
a0804f88:	27bdffe8 	addiu	sp,sp,-24
a0804f8c:	afbf0014 	sw	ra,20(sp)
a0804f90:	afbe0010 	sw	s8,16(sp)
a0804f94:	03a0f021 	move	s8,sp
a0804f98:	afc40018 	sw	a0,24(s8)
a0804f9c:	8fc20018 	lw	v0,24(s8)
a0804fa0:	2404000e 	li	a0,14
a0804fa4:	00402821 	move	a1,v0
a0804fa8:	00003021 	move	a2,zero
a0804fac:	00003821 	move	a3,zero
a0804fb0:	0c200274 	jal	a08009d0 <invoke_syscall>
a0804fb4:	00000000 	nop
a0804fb8:	03c0e821 	move	sp,s8
a0804fbc:	8fbf0014 	lw	ra,20(sp)
a0804fc0:	8fbe0010 	lw	s8,16(sp)
a0804fc4:	27bd0018 	addiu	sp,sp,24
a0804fc8:	03e00008 	jr	ra
a0804fcc:	00000000 	nop

a0804fd0 <semaphore_down>:
a0804fd0:	27bdffe8 	addiu	sp,sp,-24
a0804fd4:	afbf0014 	sw	ra,20(sp)
a0804fd8:	afbe0010 	sw	s8,16(sp)
a0804fdc:	03a0f021 	move	s8,sp
a0804fe0:	afc40018 	sw	a0,24(s8)
a0804fe4:	8fc20018 	lw	v0,24(s8)
a0804fe8:	2404000f 	li	a0,15
a0804fec:	00402821 	move	a1,v0
a0804ff0:	00003021 	move	a2,zero
a0804ff4:	00003821 	move	a3,zero
a0804ff8:	0c200274 	jal	a08009d0 <invoke_syscall>
a0804ffc:	00000000 	nop
a0805000:	03c0e821 	move	sp,s8
a0805004:	8fbf0014 	lw	ra,20(sp)
a0805008:	8fbe0010 	lw	s8,16(sp)
a080500c:	27bd0018 	addiu	sp,sp,24
a0805010:	03e00008 	jr	ra
a0805014:	00000000 	nop

a0805018 <condition_init>:
a0805018:	27bdffe8 	addiu	sp,sp,-24
a080501c:	afbf0014 	sw	ra,20(sp)
a0805020:	afbe0010 	sw	s8,16(sp)
a0805024:	03a0f021 	move	s8,sp
a0805028:	afc40018 	sw	a0,24(s8)
a080502c:	8fc20018 	lw	v0,24(s8)
a0805030:	24040010 	li	a0,16
a0805034:	00402821 	move	a1,v0
a0805038:	00003021 	move	a2,zero
a080503c:	00003821 	move	a3,zero
a0805040:	0c200274 	jal	a08009d0 <invoke_syscall>
a0805044:	00000000 	nop
a0805048:	03c0e821 	move	sp,s8
a080504c:	8fbf0014 	lw	ra,20(sp)
a0805050:	8fbe0010 	lw	s8,16(sp)
a0805054:	27bd0018 	addiu	sp,sp,24
a0805058:	03e00008 	jr	ra
a080505c:	00000000 	nop

a0805060 <condition_wait>:
a0805060:	27bdffe8 	addiu	sp,sp,-24
a0805064:	afbf0014 	sw	ra,20(sp)
a0805068:	afbe0010 	sw	s8,16(sp)
a080506c:	03a0f021 	move	s8,sp
a0805070:	afc40018 	sw	a0,24(s8)
a0805074:	afc5001c 	sw	a1,28(s8)
a0805078:	8fc20018 	lw	v0,24(s8)
a080507c:	8fc3001c 	lw	v1,28(s8)
a0805080:	24040011 	li	a0,17
a0805084:	00402821 	move	a1,v0
a0805088:	00603021 	move	a2,v1
a080508c:	00003821 	move	a3,zero
a0805090:	0c200274 	jal	a08009d0 <invoke_syscall>
a0805094:	00000000 	nop
a0805098:	03c0e821 	move	sp,s8
a080509c:	8fbf0014 	lw	ra,20(sp)
a08050a0:	8fbe0010 	lw	s8,16(sp)
a08050a4:	27bd0018 	addiu	sp,sp,24
a08050a8:	03e00008 	jr	ra
a08050ac:	00000000 	nop

a08050b0 <condition_signal>:
a08050b0:	27bdffe8 	addiu	sp,sp,-24
a08050b4:	afbf0014 	sw	ra,20(sp)
a08050b8:	afbe0010 	sw	s8,16(sp)
a08050bc:	03a0f021 	move	s8,sp
a08050c0:	afc40018 	sw	a0,24(s8)
a08050c4:	8fc20018 	lw	v0,24(s8)
a08050c8:	24040012 	li	a0,18
a08050cc:	00402821 	move	a1,v0
a08050d0:	00003021 	move	a2,zero
a08050d4:	00003821 	move	a3,zero
a08050d8:	0c200274 	jal	a08009d0 <invoke_syscall>
a08050dc:	00000000 	nop
a08050e0:	03c0e821 	move	sp,s8
a08050e4:	8fbf0014 	lw	ra,20(sp)
a08050e8:	8fbe0010 	lw	s8,16(sp)
a08050ec:	27bd0018 	addiu	sp,sp,24
a08050f0:	03e00008 	jr	ra
a08050f4:	00000000 	nop

a08050f8 <condition_broadcast>:
a08050f8:	27bdffe8 	addiu	sp,sp,-24
a08050fc:	afbf0014 	sw	ra,20(sp)
a0805100:	afbe0010 	sw	s8,16(sp)
a0805104:	03a0f021 	move	s8,sp
a0805108:	afc40018 	sw	a0,24(s8)
a080510c:	8fc20018 	lw	v0,24(s8)
a0805110:	24040013 	li	a0,19
a0805114:	00402821 	move	a1,v0
a0805118:	00003021 	move	a2,zero
a080511c:	00003821 	move	a3,zero
a0805120:	0c200274 	jal	a08009d0 <invoke_syscall>
a0805124:	00000000 	nop
a0805128:	03c0e821 	move	sp,s8
a080512c:	8fbf0014 	lw	ra,20(sp)
a0805130:	8fbe0010 	lw	s8,16(sp)
a0805134:	27bd0018 	addiu	sp,sp,24
a0805138:	03e00008 	jr	ra
a080513c:	00000000 	nop

a0805140 <sys_write>:
a0805140:	27bdffe8 	addiu	sp,sp,-24
a0805144:	afbf0014 	sw	ra,20(sp)
a0805148:	afbe0010 	sw	s8,16(sp)
a080514c:	03a0f021 	move	s8,sp
a0805150:	afc40018 	sw	a0,24(s8)
a0805154:	8fc20018 	lw	v0,24(s8)
a0805158:	24040014 	li	a0,20
a080515c:	00402821 	move	a1,v0
a0805160:	00003021 	move	a2,zero
a0805164:	00003821 	move	a3,zero
a0805168:	0c200274 	jal	a08009d0 <invoke_syscall>
a080516c:	00000000 	nop
a0805170:	03c0e821 	move	sp,s8
a0805174:	8fbf0014 	lw	ra,20(sp)
a0805178:	8fbe0010 	lw	s8,16(sp)
a080517c:	27bd0018 	addiu	sp,sp,24
a0805180:	03e00008 	jr	ra
a0805184:	00000000 	nop

a0805188 <sys_reflush>:
a0805188:	27bdffe8 	addiu	sp,sp,-24
a080518c:	afbf0014 	sw	ra,20(sp)
a0805190:	afbe0010 	sw	s8,16(sp)
a0805194:	03a0f021 	move	s8,sp
a0805198:	24040017 	li	a0,23
a080519c:	00002821 	move	a1,zero
a08051a0:	00003021 	move	a2,zero
a08051a4:	00003821 	move	a3,zero
a08051a8:	0c200274 	jal	a08009d0 <invoke_syscall>
a08051ac:	00000000 	nop
a08051b0:	03c0e821 	move	sp,s8
a08051b4:	8fbf0014 	lw	ra,20(sp)
a08051b8:	8fbe0010 	lw	s8,16(sp)
a08051bc:	27bd0018 	addiu	sp,sp,24
a08051c0:	03e00008 	jr	ra
a08051c4:	00000000 	nop

a08051c8 <sys_move_cursor>:
a08051c8:	27bdffe8 	addiu	sp,sp,-24
a08051cc:	afbf0014 	sw	ra,20(sp)
a08051d0:	afbe0010 	sw	s8,16(sp)
a08051d4:	03a0f021 	move	s8,sp
a08051d8:	afc40018 	sw	a0,24(s8)
a08051dc:	afc5001c 	sw	a1,28(s8)
a08051e0:	24040016 	li	a0,22
a08051e4:	8fc50018 	lw	a1,24(s8)
a08051e8:	8fc6001c 	lw	a2,28(s8)
a08051ec:	00003821 	move	a3,zero
a08051f0:	0c200274 	jal	a08009d0 <invoke_syscall>
a08051f4:	00000000 	nop
a08051f8:	03c0e821 	move	sp,s8
a08051fc:	8fbf0014 	lw	ra,20(sp)
a0805200:	8fbe0010 	lw	s8,16(sp)
a0805204:	27bd0018 	addiu	sp,sp,24
a0805208:	03e00008 	jr	ra
a080520c:	00000000 	nop

a0805210 <sys_clear>:
a0805210:	27bdffe8 	addiu	sp,sp,-24
a0805214:	afbf0014 	sw	ra,20(sp)
a0805218:	afbe0010 	sw	s8,16(sp)
a080521c:	03a0f021 	move	s8,sp
a0805220:	afc40018 	sw	a0,24(s8)
a0805224:	afc5001c 	sw	a1,28(s8)
a0805228:	24040018 	li	a0,24
a080522c:	8fc50018 	lw	a1,24(s8)
a0805230:	8fc6001c 	lw	a2,28(s8)
a0805234:	00003821 	move	a3,zero
a0805238:	0c200274 	jal	a08009d0 <invoke_syscall>
a080523c:	00000000 	nop
a0805240:	03c0e821 	move	sp,s8
a0805244:	8fbf0014 	lw	ra,20(sp)
a0805248:	8fbe0010 	lw	s8,16(sp)
a080524c:	27bd0018 	addiu	sp,sp,24
a0805250:	03e00008 	jr	ra
a0805254:	00000000 	nop

a0805258 <barrier_init>:
a0805258:	27bdffe8 	addiu	sp,sp,-24
a080525c:	afbf0014 	sw	ra,20(sp)
a0805260:	afbe0010 	sw	s8,16(sp)
a0805264:	03a0f021 	move	s8,sp
a0805268:	afc40018 	sw	a0,24(s8)
a080526c:	afc5001c 	sw	a1,28(s8)
a0805270:	8fc20018 	lw	v0,24(s8)
a0805274:	24040019 	li	a0,25
a0805278:	00402821 	move	a1,v0
a080527c:	8fc6001c 	lw	a2,28(s8)
a0805280:	00003821 	move	a3,zero
a0805284:	0c200274 	jal	a08009d0 <invoke_syscall>
a0805288:	00000000 	nop
a080528c:	03c0e821 	move	sp,s8
a0805290:	8fbf0014 	lw	ra,20(sp)
a0805294:	8fbe0010 	lw	s8,16(sp)
a0805298:	27bd0018 	addiu	sp,sp,24
a080529c:	03e00008 	jr	ra
a08052a0:	00000000 	nop

a08052a4 <barrier_wait>:
a08052a4:	27bdffe8 	addiu	sp,sp,-24
a08052a8:	afbf0014 	sw	ra,20(sp)
a08052ac:	afbe0010 	sw	s8,16(sp)
a08052b0:	03a0f021 	move	s8,sp
a08052b4:	afc40018 	sw	a0,24(s8)
a08052b8:	8fc20018 	lw	v0,24(s8)
a08052bc:	2404001a 	li	a0,26
a08052c0:	00402821 	move	a1,v0
a08052c4:	00003021 	move	a2,zero
a08052c8:	00003821 	move	a3,zero
a08052cc:	0c200274 	jal	a08009d0 <invoke_syscall>
a08052d0:	00000000 	nop
a08052d4:	03c0e821 	move	sp,s8
a08052d8:	8fbf0014 	lw	ra,20(sp)
a08052dc:	8fbe0010 	lw	s8,16(sp)
a08052e0:	27bd0018 	addiu	sp,sp,24
a08052e4:	03e00008 	jr	ra
a08052e8:	00000000 	nop

a08052ec <sys_getpid>:
a08052ec:	27bdffe0 	addiu	sp,sp,-32
a08052f0:	afbf001c 	sw	ra,28(sp)
a08052f4:	afbe0018 	sw	s8,24(sp)
a08052f8:	03a0f021 	move	s8,sp
a08052fc:	2404001b 	li	a0,27
a0805300:	00002821 	move	a1,zero
a0805304:	00003021 	move	a2,zero
a0805308:	00003821 	move	a3,zero
a080530c:	0c200274 	jal	a08009d0 <invoke_syscall>
a0805310:	00000000 	nop
a0805314:	03c0e821 	move	sp,s8
a0805318:	8fbf001c 	lw	ra,28(sp)
a080531c:	8fbe0018 	lw	s8,24(sp)
a0805320:	27bd0020 	addiu	sp,sp,32
a0805324:	03e00008 	jr	ra
a0805328:	00000000 	nop

a080532c <mutex_lock_init>:
a080532c:	27bdffe8 	addiu	sp,sp,-24
a0805330:	afbf0014 	sw	ra,20(sp)
a0805334:	afbe0010 	sw	s8,16(sp)
a0805338:	03a0f021 	move	s8,sp
a080533c:	afc40018 	sw	a0,24(s8)
a0805340:	8fc20018 	lw	v0,24(s8)
a0805344:	2404001e 	li	a0,30
a0805348:	00402821 	move	a1,v0
a080534c:	00003021 	move	a2,zero
a0805350:	00003821 	move	a3,zero
a0805354:	0c200274 	jal	a08009d0 <invoke_syscall>
a0805358:	00000000 	nop
a080535c:	03c0e821 	move	sp,s8
a0805360:	8fbf0014 	lw	ra,20(sp)
a0805364:	8fbe0010 	lw	s8,16(sp)
a0805368:	27bd0018 	addiu	sp,sp,24
a080536c:	03e00008 	jr	ra
a0805370:	00000000 	nop

a0805374 <mutex_lock_acquire>:
a0805374:	27bdffe8 	addiu	sp,sp,-24
a0805378:	afbf0014 	sw	ra,20(sp)
a080537c:	afbe0010 	sw	s8,16(sp)
a0805380:	03a0f021 	move	s8,sp
a0805384:	afc40018 	sw	a0,24(s8)
a0805388:	8fc20018 	lw	v0,24(s8)
a080538c:	2404001f 	li	a0,31
a0805390:	00402821 	move	a1,v0
a0805394:	00003021 	move	a2,zero
a0805398:	00003821 	move	a3,zero
a080539c:	0c200274 	jal	a08009d0 <invoke_syscall>
a08053a0:	00000000 	nop
a08053a4:	03c0e821 	move	sp,s8
a08053a8:	8fbf0014 	lw	ra,20(sp)
a08053ac:	8fbe0010 	lw	s8,16(sp)
a08053b0:	27bd0018 	addiu	sp,sp,24
a08053b4:	03e00008 	jr	ra
a08053b8:	00000000 	nop

a08053bc <mutex_lock_release>:
a08053bc:	27bdffe8 	addiu	sp,sp,-24
a08053c0:	afbf0014 	sw	ra,20(sp)
a08053c4:	afbe0010 	sw	s8,16(sp)
a08053c8:	03a0f021 	move	s8,sp
a08053cc:	afc40018 	sw	a0,24(s8)
a08053d0:	afc5001c 	sw	a1,28(s8)
a08053d4:	8fc20018 	lw	v0,24(s8)
a08053d8:	8fc3001c 	lw	v1,28(s8)
a08053dc:	24040020 	li	a0,32
a08053e0:	00402821 	move	a1,v0
a08053e4:	00603021 	move	a2,v1
a08053e8:	00003821 	move	a3,zero
a08053ec:	0c200274 	jal	a08009d0 <invoke_syscall>
a08053f0:	00000000 	nop
a08053f4:	03c0e821 	move	sp,s8
a08053f8:	8fbf0014 	lw	ra,20(sp)
a08053fc:	8fbe0010 	lw	s8,16(sp)
a0805400:	27bd0018 	addiu	sp,sp,24
a0805404:	03e00008 	jr	ra
a0805408:	00000000 	nop

a080540c <sys_net_recv>:
a080540c:	27bdffe0 	addiu	sp,sp,-32
a0805410:	afbf001c 	sw	ra,28(sp)
a0805414:	afbe0018 	sw	s8,24(sp)
a0805418:	03a0f021 	move	s8,sp
a080541c:	afc40020 	sw	a0,32(s8)
a0805420:	afc50024 	sw	a1,36(s8)
a0805424:	afc60028 	sw	a2,40(s8)
a0805428:	8fc20020 	lw	v0,32(s8)
a080542c:	8fc30024 	lw	v1,36(s8)
a0805430:	8fc70028 	lw	a3,40(s8)
a0805434:	24040029 	li	a0,41
a0805438:	00402821 	move	a1,v0
a080543c:	00603021 	move	a2,v1
a0805440:	0c200274 	jal	a08009d0 <invoke_syscall>
a0805444:	00000000 	nop
a0805448:	03c0e821 	move	sp,s8
a080544c:	8fbf001c 	lw	ra,28(sp)
a0805450:	8fbe0018 	lw	s8,24(sp)
a0805454:	27bd0020 	addiu	sp,sp,32
a0805458:	03e00008 	jr	ra
a080545c:	00000000 	nop

a0805460 <sys_net_send>:
a0805460:	27bdffe8 	addiu	sp,sp,-24
a0805464:	afbf0014 	sw	ra,20(sp)
a0805468:	afbe0010 	sw	s8,16(sp)
a080546c:	03a0f021 	move	s8,sp
a0805470:	afc40018 	sw	a0,24(s8)
a0805474:	afc5001c 	sw	a1,28(s8)
a0805478:	8fc20018 	lw	v0,24(s8)
a080547c:	8fc3001c 	lw	v1,28(s8)
a0805480:	2404002a 	li	a0,42
a0805484:	00402821 	move	a1,v0
a0805488:	00603021 	move	a2,v1
a080548c:	00003821 	move	a3,zero
a0805490:	0c200274 	jal	a08009d0 <invoke_syscall>
a0805494:	00000000 	nop
a0805498:	03c0e821 	move	sp,s8
a080549c:	8fbf0014 	lw	ra,20(sp)
a08054a0:	8fbe0010 	lw	s8,16(sp)
a08054a4:	27bd0018 	addiu	sp,sp,24
a08054a8:	03e00008 	jr	ra
a08054ac:	00000000 	nop

a08054b0 <sys_init_mac>:
a08054b0:	27bdffe8 	addiu	sp,sp,-24
a08054b4:	afbf0014 	sw	ra,20(sp)
a08054b8:	afbe0010 	sw	s8,16(sp)
a08054bc:	03a0f021 	move	s8,sp
a08054c0:	24040028 	li	a0,40
a08054c4:	00002821 	move	a1,zero
a08054c8:	00003021 	move	a2,zero
a08054cc:	00003821 	move	a3,zero
a08054d0:	0c200274 	jal	a08009d0 <invoke_syscall>
a08054d4:	00000000 	nop
a08054d8:	03c0e821 	move	sp,s8
a08054dc:	8fbf0014 	lw	ra,20(sp)
a08054e0:	8fbe0010 	lw	s8,16(sp)
a08054e4:	27bd0018 	addiu	sp,sp,24
a08054e8:	03e00008 	jr	ra
a08054ec:	00000000 	nop

a08054f0 <sys_wait_recv_package>:
a08054f0:	27bdffe8 	addiu	sp,sp,-24
a08054f4:	afbf0014 	sw	ra,20(sp)
a08054f8:	afbe0010 	sw	s8,16(sp)
a08054fc:	03a0f021 	move	s8,sp
a0805500:	2404002b 	li	a0,43
a0805504:	00002821 	move	a1,zero
a0805508:	00003021 	move	a2,zero
a080550c:	00003821 	move	a3,zero
a0805510:	0c200274 	jal	a08009d0 <invoke_syscall>
a0805514:	00000000 	nop
a0805518:	03c0e821 	move	sp,s8
a080551c:	8fbf0014 	lw	ra,20(sp)
a0805520:	8fbe0010 	lw	s8,16(sp)
a0805524:	27bd0018 	addiu	sp,sp,24
a0805528:	03e00008 	jr	ra
a080552c:	00000000 	nop

a0805530 <sys_mkfs>:
a0805530:	27bdffe8 	addiu	sp,sp,-24
a0805534:	afbf0014 	sw	ra,20(sp)
a0805538:	afbe0010 	sw	s8,16(sp)
a080553c:	03a0f021 	move	s8,sp
a0805540:	2404002c 	li	a0,44
a0805544:	00002821 	move	a1,zero
a0805548:	00003021 	move	a2,zero
a080554c:	00003821 	move	a3,zero
a0805550:	0c200274 	jal	a08009d0 <invoke_syscall>
a0805554:	00000000 	nop
a0805558:	03c0e821 	move	sp,s8
a080555c:	8fbf0014 	lw	ra,20(sp)
a0805560:	8fbe0010 	lw	s8,16(sp)
a0805564:	27bd0018 	addiu	sp,sp,24
a0805568:	03e00008 	jr	ra
a080556c:	00000000 	nop

a0805570 <sys_statfs>:
a0805570:	27bdffe8 	addiu	sp,sp,-24
a0805574:	afbf0014 	sw	ra,20(sp)
a0805578:	afbe0010 	sw	s8,16(sp)
a080557c:	03a0f021 	move	s8,sp
a0805580:	2404002d 	li	a0,45
a0805584:	00002821 	move	a1,zero
a0805588:	00003021 	move	a2,zero
a080558c:	00003821 	move	a3,zero
a0805590:	0c200274 	jal	a08009d0 <invoke_syscall>
a0805594:	00000000 	nop
a0805598:	03c0e821 	move	sp,s8
a080559c:	8fbf0014 	lw	ra,20(sp)
a08055a0:	8fbe0010 	lw	s8,16(sp)
a08055a4:	27bd0018 	addiu	sp,sp,24
a08055a8:	03e00008 	jr	ra
a08055ac:	00000000 	nop

a08055b0 <sys_cd>:
a08055b0:	27bdffe8 	addiu	sp,sp,-24
a08055b4:	afbf0014 	sw	ra,20(sp)
a08055b8:	afbe0010 	sw	s8,16(sp)
a08055bc:	03a0f021 	move	s8,sp
a08055c0:	afc40018 	sw	a0,24(s8)
a08055c4:	8fc20018 	lw	v0,24(s8)
a08055c8:	2404002e 	li	a0,46
a08055cc:	00402821 	move	a1,v0
a08055d0:	00003021 	move	a2,zero
a08055d4:	00003821 	move	a3,zero
a08055d8:	0c200274 	jal	a08009d0 <invoke_syscall>
a08055dc:	00000000 	nop
a08055e0:	03c0e821 	move	sp,s8
a08055e4:	8fbf0014 	lw	ra,20(sp)
a08055e8:	8fbe0010 	lw	s8,16(sp)
a08055ec:	27bd0018 	addiu	sp,sp,24
a08055f0:	03e00008 	jr	ra
a08055f4:	00000000 	nop

a08055f8 <sys_mkdir>:
a08055f8:	27bdffe8 	addiu	sp,sp,-24
a08055fc:	afbf0014 	sw	ra,20(sp)
a0805600:	afbe0010 	sw	s8,16(sp)
a0805604:	03a0f021 	move	s8,sp
a0805608:	afc40018 	sw	a0,24(s8)
a080560c:	8fc20018 	lw	v0,24(s8)
a0805610:	2404002f 	li	a0,47
a0805614:	00402821 	move	a1,v0
a0805618:	00003021 	move	a2,zero
a080561c:	00003821 	move	a3,zero
a0805620:	0c200274 	jal	a08009d0 <invoke_syscall>
a0805624:	00000000 	nop
a0805628:	03c0e821 	move	sp,s8
a080562c:	8fbf0014 	lw	ra,20(sp)
a0805630:	8fbe0010 	lw	s8,16(sp)
a0805634:	27bd0018 	addiu	sp,sp,24
a0805638:	03e00008 	jr	ra
a080563c:	00000000 	nop

a0805640 <sys_rmdir>:
a0805640:	27bdffe8 	addiu	sp,sp,-24
a0805644:	afbf0014 	sw	ra,20(sp)
a0805648:	afbe0010 	sw	s8,16(sp)
a080564c:	03a0f021 	move	s8,sp
a0805650:	afc40018 	sw	a0,24(s8)
a0805654:	8fc20018 	lw	v0,24(s8)
a0805658:	24040030 	li	a0,48
a080565c:	00402821 	move	a1,v0
a0805660:	00003021 	move	a2,zero
a0805664:	00003821 	move	a3,zero
a0805668:	0c200274 	jal	a08009d0 <invoke_syscall>
a080566c:	00000000 	nop
a0805670:	03c0e821 	move	sp,s8
a0805674:	8fbf0014 	lw	ra,20(sp)
a0805678:	8fbe0010 	lw	s8,16(sp)
a080567c:	27bd0018 	addiu	sp,sp,24
a0805680:	03e00008 	jr	ra
a0805684:	00000000 	nop

a0805688 <sys_ls>:
a0805688:	27bdffe8 	addiu	sp,sp,-24
a080568c:	afbf0014 	sw	ra,20(sp)
a0805690:	afbe0010 	sw	s8,16(sp)
a0805694:	03a0f021 	move	s8,sp
a0805698:	24040031 	li	a0,49
a080569c:	00002821 	move	a1,zero
a08056a0:	00003021 	move	a2,zero
a08056a4:	00003821 	move	a3,zero
a08056a8:	0c200274 	jal	a08009d0 <invoke_syscall>
a08056ac:	00000000 	nop
a08056b0:	03c0e821 	move	sp,s8
a08056b4:	8fbf0014 	lw	ra,20(sp)
a08056b8:	8fbe0010 	lw	s8,16(sp)
a08056bc:	27bd0018 	addiu	sp,sp,24
a08056c0:	03e00008 	jr	ra
a08056c4:	00000000 	nop

a08056c8 <sys_touch>:
a08056c8:	27bdffe8 	addiu	sp,sp,-24
a08056cc:	afbf0014 	sw	ra,20(sp)
a08056d0:	afbe0010 	sw	s8,16(sp)
a08056d4:	03a0f021 	move	s8,sp
a08056d8:	afc40018 	sw	a0,24(s8)
a08056dc:	8fc20018 	lw	v0,24(s8)
a08056e0:	24040032 	li	a0,50
a08056e4:	00402821 	move	a1,v0
a08056e8:	00003021 	move	a2,zero
a08056ec:	00003821 	move	a3,zero
a08056f0:	0c200274 	jal	a08009d0 <invoke_syscall>
a08056f4:	00000000 	nop
a08056f8:	03c0e821 	move	sp,s8
a08056fc:	8fbf0014 	lw	ra,20(sp)
a0805700:	8fbe0010 	lw	s8,16(sp)
a0805704:	27bd0018 	addiu	sp,sp,24
a0805708:	03e00008 	jr	ra
a080570c:	00000000 	nop

a0805710 <sys_cat>:
a0805710:	27bdffe8 	addiu	sp,sp,-24
a0805714:	afbf0014 	sw	ra,20(sp)
a0805718:	afbe0010 	sw	s8,16(sp)
a080571c:	03a0f021 	move	s8,sp
a0805720:	afc40018 	sw	a0,24(s8)
a0805724:	8fc20018 	lw	v0,24(s8)
a0805728:	24040033 	li	a0,51
a080572c:	00402821 	move	a1,v0
a0805730:	00003021 	move	a2,zero
a0805734:	00003821 	move	a3,zero
a0805738:	0c200274 	jal	a08009d0 <invoke_syscall>
a080573c:	00000000 	nop
a0805740:	03c0e821 	move	sp,s8
a0805744:	8fbf0014 	lw	ra,20(sp)
a0805748:	8fbe0010 	lw	s8,16(sp)
a080574c:	27bd0018 	addiu	sp,sp,24
a0805750:	03e00008 	jr	ra
a0805754:	00000000 	nop

a0805758 <sys_fopen>:
a0805758:	27bdffe0 	addiu	sp,sp,-32
a080575c:	afbf001c 	sw	ra,28(sp)
a0805760:	afbe0018 	sw	s8,24(sp)
a0805764:	03a0f021 	move	s8,sp
a0805768:	afc40020 	sw	a0,32(s8)
a080576c:	afc50024 	sw	a1,36(s8)
a0805770:	8fc20020 	lw	v0,32(s8)
a0805774:	24040034 	li	a0,52
a0805778:	00402821 	move	a1,v0
a080577c:	8fc60024 	lw	a2,36(s8)
a0805780:	00003821 	move	a3,zero
a0805784:	0c200274 	jal	a08009d0 <invoke_syscall>
a0805788:	00000000 	nop
a080578c:	03c0e821 	move	sp,s8
a0805790:	8fbf001c 	lw	ra,28(sp)
a0805794:	8fbe0018 	lw	s8,24(sp)
a0805798:	27bd0020 	addiu	sp,sp,32
a080579c:	03e00008 	jr	ra
a08057a0:	00000000 	nop

a08057a4 <sys_fread>:
a08057a4:	27bdffe0 	addiu	sp,sp,-32
a08057a8:	afbf001c 	sw	ra,28(sp)
a08057ac:	afbe0018 	sw	s8,24(sp)
a08057b0:	03a0f021 	move	s8,sp
a08057b4:	afc40020 	sw	a0,32(s8)
a08057b8:	afc50024 	sw	a1,36(s8)
a08057bc:	afc60028 	sw	a2,40(s8)
a08057c0:	8fc20024 	lw	v0,36(s8)
a08057c4:	24040035 	li	a0,53
a08057c8:	8fc50020 	lw	a1,32(s8)
a08057cc:	00403021 	move	a2,v0
a08057d0:	8fc70028 	lw	a3,40(s8)
a08057d4:	0c200274 	jal	a08009d0 <invoke_syscall>
a08057d8:	00000000 	nop
a08057dc:	03c0e821 	move	sp,s8
a08057e0:	8fbf001c 	lw	ra,28(sp)
a08057e4:	8fbe0018 	lw	s8,24(sp)
a08057e8:	27bd0020 	addiu	sp,sp,32
a08057ec:	03e00008 	jr	ra
a08057f0:	00000000 	nop

a08057f4 <sys_fwrite>:
a08057f4:	27bdffe0 	addiu	sp,sp,-32
a08057f8:	afbf001c 	sw	ra,28(sp)
a08057fc:	afbe0018 	sw	s8,24(sp)
a0805800:	03a0f021 	move	s8,sp
a0805804:	afc40020 	sw	a0,32(s8)
a0805808:	afc50024 	sw	a1,36(s8)
a080580c:	afc60028 	sw	a2,40(s8)
a0805810:	8fc20024 	lw	v0,36(s8)
a0805814:	24040036 	li	a0,54
a0805818:	8fc50020 	lw	a1,32(s8)
a080581c:	00403021 	move	a2,v0
a0805820:	8fc70028 	lw	a3,40(s8)
a0805824:	0c200274 	jal	a08009d0 <invoke_syscall>
a0805828:	00000000 	nop
a080582c:	03c0e821 	move	sp,s8
a0805830:	8fbf001c 	lw	ra,28(sp)
a0805834:	8fbe0018 	lw	s8,24(sp)
a0805838:	27bd0020 	addiu	sp,sp,32
a080583c:	03e00008 	jr	ra
a0805840:	00000000 	nop

a0805844 <sys_fclose>:
a0805844:	27bdffe8 	addiu	sp,sp,-24
a0805848:	afbf0014 	sw	ra,20(sp)
a080584c:	afbe0010 	sw	s8,16(sp)
a0805850:	03a0f021 	move	s8,sp
a0805854:	afc40018 	sw	a0,24(s8)
a0805858:	24040037 	li	a0,55
a080585c:	8fc50018 	lw	a1,24(s8)
a0805860:	00003021 	move	a2,zero
a0805864:	00003821 	move	a3,zero
a0805868:	0c200274 	jal	a08009d0 <invoke_syscall>
a080586c:	00000000 	nop
a0805870:	03c0e821 	move	sp,s8
a0805874:	8fbf0014 	lw	ra,20(sp)
a0805878:	8fbe0010 	lw	s8,16(sp)
a080587c:	27bd0018 	addiu	sp,sp,24
a0805880:	03e00008 	jr	ra
a0805884:	00000000 	nop

a0805888 <sys_print_buffer>:
a0805888:	27bdffe8 	addiu	sp,sp,-24
a080588c:	afbf0014 	sw	ra,20(sp)
a0805890:	afbe0010 	sw	s8,16(sp)
a0805894:	03a0f021 	move	s8,sp
a0805898:	2404003f 	li	a0,63
a080589c:	00002821 	move	a1,zero
a08058a0:	00003021 	move	a2,zero
a08058a4:	00003821 	move	a3,zero
a08058a8:	0c200274 	jal	a08009d0 <invoke_syscall>
a08058ac:	00000000 	nop
a08058b0:	03c0e821 	move	sp,s8
a08058b4:	8fbf0014 	lw	ra,20(sp)
a08058b8:	8fbe0010 	lw	s8,16(sp)
a08058bc:	27bd0018 	addiu	sp,sp,24
a08058c0:	03e00008 	jr	ra
a08058c4:	00000000 	nop
	...

a08058d0 <strlen>:
a08058d0:	27bdfff0 	addiu	sp,sp,-16
a08058d4:	afbe000c 	sw	s8,12(sp)
a08058d8:	03a0f021 	move	s8,sp
a08058dc:	afc40010 	sw	a0,16(s8)
a08058e0:	afc00000 	sw	zero,0(s8)
a08058e4:	0820163e 	j	a08058f8 <strlen+0x28>
a08058e8:	00000000 	nop
a08058ec:	8fc20000 	lw	v0,0(s8)
a08058f0:	24420001 	addiu	v0,v0,1
a08058f4:	afc20000 	sw	v0,0(s8)
a08058f8:	8fc30000 	lw	v1,0(s8)
a08058fc:	8fc20010 	lw	v0,16(s8)
a0805900:	00431021 	addu	v0,v0,v1
a0805904:	80420000 	lb	v0,0(v0)
a0805908:	1440fff8 	bnez	v0,a08058ec <strlen+0x1c>
a080590c:	00000000 	nop
a0805910:	8fc20000 	lw	v0,0(s8)
a0805914:	03c0e821 	move	sp,s8
a0805918:	8fbe000c 	lw	s8,12(sp)
a080591c:	27bd0010 	addiu	sp,sp,16
a0805920:	03e00008 	jr	ra
a0805924:	00000000 	nop

a0805928 <os_strlen>:
a0805928:	27bdfff0 	addiu	sp,sp,-16
a080592c:	afbe000c 	sw	s8,12(sp)
a0805930:	03a0f021 	move	s8,sp
a0805934:	afc40010 	sw	a0,16(s8)
a0805938:	afc00000 	sw	zero,0(s8)
a080593c:	08201654 	j	a0805950 <os_strlen+0x28>
a0805940:	00000000 	nop
a0805944:	8fc20000 	lw	v0,0(s8)
a0805948:	24420001 	addiu	v0,v0,1
a080594c:	afc20000 	sw	v0,0(s8)
a0805950:	8fc30000 	lw	v1,0(s8)
a0805954:	8fc20010 	lw	v0,16(s8)
a0805958:	00431021 	addu	v0,v0,v1
a080595c:	80420000 	lb	v0,0(v0)
a0805960:	1440fff8 	bnez	v0,a0805944 <os_strlen+0x1c>
a0805964:	00000000 	nop
a0805968:	8fc20000 	lw	v0,0(s8)
a080596c:	03c0e821 	move	sp,s8
a0805970:	8fbe000c 	lw	s8,12(sp)
a0805974:	27bd0010 	addiu	sp,sp,16
a0805978:	03e00008 	jr	ra
a080597c:	00000000 	nop

a0805980 <memcpy>:
a0805980:	27bdfff8 	addiu	sp,sp,-8
a0805984:	afbe0004 	sw	s8,4(sp)
a0805988:	03a0f021 	move	s8,sp
a080598c:	afc40008 	sw	a0,8(s8)
a0805990:	afc5000c 	sw	a1,12(s8)
a0805994:	afc60010 	sw	a2,16(s8)
a0805998:	08201675 	j	a08059d4 <memcpy+0x54>
a080599c:	00000000 	nop
a08059a0:	8fc2000c 	lw	v0,12(s8)
a08059a4:	8c430000 	lw	v1,0(v0)
a08059a8:	8fc20008 	lw	v0,8(s8)
a08059ac:	ac430000 	sw	v1,0(v0)
a08059b0:	8fc20008 	lw	v0,8(s8)
a08059b4:	24420004 	addiu	v0,v0,4
a08059b8:	afc20008 	sw	v0,8(s8)
a08059bc:	8fc2000c 	lw	v0,12(s8)
a08059c0:	24420004 	addiu	v0,v0,4
a08059c4:	afc2000c 	sw	v0,12(s8)
a08059c8:	8fc20010 	lw	v0,16(s8)
a08059cc:	2442ffff 	addiu	v0,v0,-1
a08059d0:	afc20010 	sw	v0,16(s8)
a08059d4:	8fc20010 	lw	v0,16(s8)
a08059d8:	1440fff1 	bnez	v0,a08059a0 <memcpy+0x20>
a08059dc:	00000000 	nop
a08059e0:	03c0e821 	move	sp,s8
a08059e4:	8fbe0004 	lw	s8,4(sp)
a08059e8:	27bd0008 	addiu	sp,sp,8
a08059ec:	03e00008 	jr	ra
a08059f0:	00000000 	nop

a08059f4 <os_memcpy>:
a08059f4:	27bdfff8 	addiu	sp,sp,-8
a08059f8:	afbe0004 	sw	s8,4(sp)
a08059fc:	03a0f021 	move	s8,sp
a0805a00:	afc40008 	sw	a0,8(s8)
a0805a04:	afc5000c 	sw	a1,12(s8)
a0805a08:	afc60010 	sw	a2,16(s8)
a0805a0c:	08201692 	j	a0805a48 <os_memcpy+0x54>
a0805a10:	00000000 	nop
a0805a14:	8fc2000c 	lw	v0,12(s8)
a0805a18:	80430000 	lb	v1,0(v0)
a0805a1c:	8fc20008 	lw	v0,8(s8)
a0805a20:	a0430000 	sb	v1,0(v0)
a0805a24:	8fc20008 	lw	v0,8(s8)
a0805a28:	24420001 	addiu	v0,v0,1
a0805a2c:	afc20008 	sw	v0,8(s8)
a0805a30:	8fc2000c 	lw	v0,12(s8)
a0805a34:	24420001 	addiu	v0,v0,1
a0805a38:	afc2000c 	sw	v0,12(s8)
a0805a3c:	8fc20010 	lw	v0,16(s8)
a0805a40:	2442ffff 	addiu	v0,v0,-1
a0805a44:	afc20010 	sw	v0,16(s8)
a0805a48:	8fc20010 	lw	v0,16(s8)
a0805a4c:	1440fff1 	bnez	v0,a0805a14 <os_memcpy+0x20>
a0805a50:	00000000 	nop
a0805a54:	03c0e821 	move	sp,s8
a0805a58:	8fbe0004 	lw	s8,4(sp)
a0805a5c:	27bd0008 	addiu	sp,sp,8
a0805a60:	03e00008 	jr	ra
a0805a64:	00000000 	nop

a0805a68 <my_strncmp>:
a0805a68:	27bdffe8 	addiu	sp,sp,-24
a0805a6c:	afbe0014 	sw	s8,20(sp)
a0805a70:	03a0f021 	move	s8,sp
a0805a74:	afc40018 	sw	a0,24(s8)
a0805a78:	afc5001c 	sw	a1,28(s8)
a0805a7c:	afc60020 	sw	a2,32(s8)
a0805a80:	afc00000 	sw	zero,0(s8)
a0805a84:	082016f3 	j	a0805bcc <my_strncmp+0x164>
a0805a88:	00000000 	nop
a0805a8c:	8fc30000 	lw	v1,0(s8)
a0805a90:	8fc20018 	lw	v0,24(s8)
a0805a94:	00431021 	addu	v0,v0,v1
a0805a98:	80420000 	lb	v0,0(v0)
a0805a9c:	1440000b 	bnez	v0,a0805acc <my_strncmp+0x64>
a0805aa0:	00000000 	nop
a0805aa4:	8fc30000 	lw	v1,0(s8)
a0805aa8:	8fc2001c 	lw	v0,28(s8)
a0805aac:	00431021 	addu	v0,v0,v1
a0805ab0:	80420000 	lb	v0,0(v0)
a0805ab4:	10400005 	beqz	v0,a0805acc <my_strncmp+0x64>
a0805ab8:	00000000 	nop
a0805abc:	2402ffff 	li	v0,-1
a0805ac0:	afc20008 	sw	v0,8(s8)
a0805ac4:	082016f9 	j	a0805be4 <my_strncmp+0x17c>
a0805ac8:	00000000 	nop
a0805acc:	8fc30000 	lw	v1,0(s8)
a0805ad0:	8fc20018 	lw	v0,24(s8)
a0805ad4:	00431021 	addu	v0,v0,v1
a0805ad8:	80420000 	lb	v0,0(v0)
a0805adc:	1040000b 	beqz	v0,a0805b0c <my_strncmp+0xa4>
a0805ae0:	00000000 	nop
a0805ae4:	8fc30000 	lw	v1,0(s8)
a0805ae8:	8fc2001c 	lw	v0,28(s8)
a0805aec:	00431021 	addu	v0,v0,v1
a0805af0:	80420000 	lb	v0,0(v0)
a0805af4:	14400005 	bnez	v0,a0805b0c <my_strncmp+0xa4>
a0805af8:	00000000 	nop
a0805afc:	24020001 	li	v0,1
a0805b00:	afc20008 	sw	v0,8(s8)
a0805b04:	082016f9 	j	a0805be4 <my_strncmp+0x17c>
a0805b08:	00000000 	nop
a0805b0c:	8fc30000 	lw	v1,0(s8)
a0805b10:	8fc20018 	lw	v0,24(s8)
a0805b14:	00431021 	addu	v0,v0,v1
a0805b18:	80420000 	lb	v0,0(v0)
a0805b1c:	1440000a 	bnez	v0,a0805b48 <my_strncmp+0xe0>
a0805b20:	00000000 	nop
a0805b24:	8fc30000 	lw	v1,0(s8)
a0805b28:	8fc2001c 	lw	v0,28(s8)
a0805b2c:	00431021 	addu	v0,v0,v1
a0805b30:	80420000 	lb	v0,0(v0)
a0805b34:	14400004 	bnez	v0,a0805b48 <my_strncmp+0xe0>
a0805b38:	00000000 	nop
a0805b3c:	afc00008 	sw	zero,8(s8)
a0805b40:	082016f9 	j	a0805be4 <my_strncmp+0x17c>
a0805b44:	00000000 	nop
a0805b48:	8fc30000 	lw	v1,0(s8)
a0805b4c:	8fc20018 	lw	v0,24(s8)
a0805b50:	00431021 	addu	v0,v0,v1
a0805b54:	80440000 	lb	a0,0(v0)
a0805b58:	8fc30000 	lw	v1,0(s8)
a0805b5c:	8fc2001c 	lw	v0,28(s8)
a0805b60:	00431021 	addu	v0,v0,v1
a0805b64:	80420000 	lb	v0,0(v0)
a0805b68:	0044102a 	slt	v0,v0,a0
a0805b6c:	10400005 	beqz	v0,a0805b84 <my_strncmp+0x11c>
a0805b70:	00000000 	nop
a0805b74:	24020001 	li	v0,1
a0805b78:	afc20008 	sw	v0,8(s8)
a0805b7c:	082016f9 	j	a0805be4 <my_strncmp+0x17c>
a0805b80:	00000000 	nop
a0805b84:	8fc30000 	lw	v1,0(s8)
a0805b88:	8fc20018 	lw	v0,24(s8)
a0805b8c:	00431021 	addu	v0,v0,v1
a0805b90:	80440000 	lb	a0,0(v0)
a0805b94:	8fc30000 	lw	v1,0(s8)
a0805b98:	8fc2001c 	lw	v0,28(s8)
a0805b9c:	00431021 	addu	v0,v0,v1
a0805ba0:	80420000 	lb	v0,0(v0)
a0805ba4:	0082102a 	slt	v0,a0,v0
a0805ba8:	10400005 	beqz	v0,a0805bc0 <my_strncmp+0x158>
a0805bac:	00000000 	nop
a0805bb0:	2402ffff 	li	v0,-1
a0805bb4:	afc20008 	sw	v0,8(s8)
a0805bb8:	082016f9 	j	a0805be4 <my_strncmp+0x17c>
a0805bbc:	00000000 	nop
a0805bc0:	8fc20000 	lw	v0,0(s8)
a0805bc4:	24420001 	addiu	v0,v0,1
a0805bc8:	afc20000 	sw	v0,0(s8)
a0805bcc:	8fc20000 	lw	v0,0(s8)
a0805bd0:	8fc30020 	lw	v1,32(s8)
a0805bd4:	0043102a 	slt	v0,v0,v1
a0805bd8:	1440ffac 	bnez	v0,a0805a8c <my_strncmp+0x24>
a0805bdc:	00000000 	nop
a0805be0:	afc00008 	sw	zero,8(s8)
a0805be4:	8fc20008 	lw	v0,8(s8)
a0805be8:	03c0e821 	move	sp,s8
a0805bec:	8fbe0014 	lw	s8,20(sp)
a0805bf0:	27bd0018 	addiu	sp,sp,24
a0805bf4:	03e00008 	jr	ra
a0805bf8:	00000000 	nop

a0805bfc <memset>:
a0805bfc:	27bdfff0 	addiu	sp,sp,-16
a0805c00:	afbe000c 	sw	s8,12(sp)
a0805c04:	03a0f021 	move	s8,sp
a0805c08:	afc40010 	sw	a0,16(s8)
a0805c0c:	afc50014 	sw	a1,20(s8)
a0805c10:	afc60018 	sw	a2,24(s8)
a0805c14:	8fc20010 	lw	v0,16(s8)
a0805c18:	afc20000 	sw	v0,0(s8)
a0805c1c:	08201712 	j	a0805c48 <memset+0x4c>
a0805c20:	00000000 	nop
a0805c24:	8fc30000 	lw	v1,0(s8)
a0805c28:	8fc20014 	lw	v0,20(s8)
a0805c2c:	ac620000 	sw	v0,0(v1)
a0805c30:	8fc20000 	lw	v0,0(s8)
a0805c34:	24420004 	addiu	v0,v0,4
a0805c38:	afc20000 	sw	v0,0(s8)
a0805c3c:	8fc20018 	lw	v0,24(s8)
a0805c40:	2442ffff 	addiu	v0,v0,-1
a0805c44:	afc20018 	sw	v0,24(s8)
a0805c48:	8fc20018 	lw	v0,24(s8)
a0805c4c:	1440fff5 	bnez	v0,a0805c24 <memset+0x28>
a0805c50:	00000000 	nop
a0805c54:	03c0e821 	move	sp,s8
a0805c58:	8fbe000c 	lw	s8,12(sp)
a0805c5c:	27bd0010 	addiu	sp,sp,16
a0805c60:	03e00008 	jr	ra
a0805c64:	00000000 	nop

a0805c68 <bzero>:
a0805c68:	27bdffe8 	addiu	sp,sp,-24
a0805c6c:	afbf0014 	sw	ra,20(sp)
a0805c70:	afbe0010 	sw	s8,16(sp)
a0805c74:	03a0f021 	move	s8,sp
a0805c78:	afc40018 	sw	a0,24(s8)
a0805c7c:	afc5001c 	sw	a1,28(s8)
a0805c80:	8fc40018 	lw	a0,24(s8)
a0805c84:	00002821 	move	a1,zero
a0805c88:	8fc6001c 	lw	a2,28(s8)
a0805c8c:	0c2016ff 	jal	a0805bfc <memset>
a0805c90:	00000000 	nop
a0805c94:	03c0e821 	move	sp,s8
a0805c98:	8fbf0014 	lw	ra,20(sp)
a0805c9c:	8fbe0010 	lw	s8,16(sp)
a0805ca0:	27bd0018 	addiu	sp,sp,24
a0805ca4:	03e00008 	jr	ra
a0805ca8:	00000000 	nop

a0805cac <strcmp>:
a0805cac:	27bdfff0 	addiu	sp,sp,-16
a0805cb0:	afbe000c 	sw	s8,12(sp)
a0805cb4:	03a0f021 	move	s8,sp
a0805cb8:	afc40010 	sw	a0,16(s8)
a0805cbc:	afc50014 	sw	a1,20(s8)
a0805cc0:	8fc20010 	lw	v0,16(s8)
a0805cc4:	80420000 	lb	v0,0(v0)
a0805cc8:	10400014 	beqz	v0,a0805d1c <strcmp+0x70>
a0805ccc:	00000000 	nop
a0805cd0:	8fc20014 	lw	v0,20(s8)
a0805cd4:	80420000 	lb	v0,0(v0)
a0805cd8:	10400010 	beqz	v0,a0805d1c <strcmp+0x70>
a0805cdc:	00000000 	nop
a0805ce0:	8fc20010 	lw	v0,16(s8)
a0805ce4:	80430000 	lb	v1,0(v0)
a0805ce8:	8fc20014 	lw	v0,20(s8)
a0805cec:	80420000 	lb	v0,0(v0)
a0805cf0:	00621026 	xor	v0,v1,v0
a0805cf4:	2c420001 	sltiu	v0,v0,1
a0805cf8:	304300ff 	andi	v1,v0,0xff
a0805cfc:	8fc20010 	lw	v0,16(s8)
a0805d00:	24420001 	addiu	v0,v0,1
a0805d04:	afc20010 	sw	v0,16(s8)
a0805d08:	8fc20014 	lw	v0,20(s8)
a0805d0c:	24420001 	addiu	v0,v0,1
a0805d10:	afc20014 	sw	v0,20(s8)
a0805d14:	1460ffea 	bnez	v1,a0805cc0 <strcmp+0x14>
a0805d18:	00000000 	nop
a0805d1c:	8fc20010 	lw	v0,16(s8)
a0805d20:	80420000 	lb	v0,0(v0)
a0805d24:	14400008 	bnez	v0,a0805d48 <strcmp+0x9c>
a0805d28:	00000000 	nop
a0805d2c:	8fc20014 	lw	v0,20(s8)
a0805d30:	80420000 	lb	v0,0(v0)
a0805d34:	14400004 	bnez	v0,a0805d48 <strcmp+0x9c>
a0805d38:	00000000 	nop
a0805d3c:	afc00000 	sw	zero,0(s8)
a0805d40:	0820175c 	j	a0805d70 <strcmp+0xc4>
a0805d44:	00000000 	nop
a0805d48:	8fc20010 	lw	v0,16(s8)
a0805d4c:	80420000 	lb	v0,0(v0)
a0805d50:	14400005 	bnez	v0,a0805d68 <strcmp+0xbc>
a0805d54:	00000000 	nop
a0805d58:	2402ffff 	li	v0,-1
a0805d5c:	afc20000 	sw	v0,0(s8)
a0805d60:	0820175c 	j	a0805d70 <strcmp+0xc4>
a0805d64:	00000000 	nop
a0805d68:	24020001 	li	v0,1
a0805d6c:	afc20000 	sw	v0,0(s8)
a0805d70:	8fc20000 	lw	v0,0(s8)
a0805d74:	03c0e821 	move	sp,s8
a0805d78:	8fbe000c 	lw	s8,12(sp)
a0805d7c:	27bd0010 	addiu	sp,sp,16
a0805d80:	03e00008 	jr	ra
a0805d84:	00000000 	nop

a0805d88 <strcpy>:
a0805d88:	27bdfff0 	addiu	sp,sp,-16
a0805d8c:	afbe000c 	sw	s8,12(sp)
a0805d90:	03a0f021 	move	s8,sp
a0805d94:	afc40010 	sw	a0,16(s8)
a0805d98:	afc50014 	sw	a1,20(s8)
a0805d9c:	8fc20010 	lw	v0,16(s8)
a0805da0:	afc20000 	sw	v0,0(s8)
a0805da4:	08201775 	j	a0805dd4 <strcpy+0x4c>
a0805da8:	00000000 	nop
a0805dac:	8fc20014 	lw	v0,20(s8)
a0805db0:	80430000 	lb	v1,0(v0)
a0805db4:	8fc20010 	lw	v0,16(s8)
a0805db8:	a0430000 	sb	v1,0(v0)
a0805dbc:	8fc20010 	lw	v0,16(s8)
a0805dc0:	24420001 	addiu	v0,v0,1
a0805dc4:	afc20010 	sw	v0,16(s8)
a0805dc8:	8fc20014 	lw	v0,20(s8)
a0805dcc:	24420001 	addiu	v0,v0,1
a0805dd0:	afc20014 	sw	v0,20(s8)
a0805dd4:	8fc20014 	lw	v0,20(s8)
a0805dd8:	80420000 	lb	v0,0(v0)
a0805ddc:	1440fff3 	bnez	v0,a0805dac <strcpy+0x24>
a0805de0:	00000000 	nop
a0805de4:	8fc20010 	lw	v0,16(s8)
a0805de8:	a0400000 	sb	zero,0(v0)
a0805dec:	8fc20000 	lw	v0,0(s8)
a0805df0:	03c0e821 	move	sp,s8
a0805df4:	8fbe000c 	lw	s8,12(sp)
a0805df8:	27bd0010 	addiu	sp,sp,16
a0805dfc:	03e00008 	jr	ra
a0805e00:	00000000 	nop
	...

a0805e10 <mini_strlen>:
a0805e10:	27bdfff0 	addiu	sp,sp,-16
a0805e14:	afbe000c 	sw	s8,12(sp)
a0805e18:	03a0f021 	move	s8,sp
a0805e1c:	afc40010 	sw	a0,16(s8)
a0805e20:	afc00000 	sw	zero,0(s8)
a0805e24:	0820178e 	j	a0805e38 <mini_strlen+0x28>
a0805e28:	00000000 	nop
a0805e2c:	8fc20000 	lw	v0,0(s8)
a0805e30:	24420001 	addiu	v0,v0,1
a0805e34:	afc20000 	sw	v0,0(s8)
a0805e38:	8fc30010 	lw	v1,16(s8)
a0805e3c:	8fc20000 	lw	v0,0(s8)
a0805e40:	00621021 	addu	v0,v1,v0
a0805e44:	80420000 	lb	v0,0(v0)
a0805e48:	1440fff8 	bnez	v0,a0805e2c <mini_strlen+0x1c>
a0805e4c:	00000000 	nop
a0805e50:	8fc20000 	lw	v0,0(s8)
a0805e54:	03c0e821 	move	sp,s8
a0805e58:	8fbe000c 	lw	s8,12(sp)
a0805e5c:	27bd0010 	addiu	sp,sp,16
a0805e60:	03e00008 	jr	ra
a0805e64:	00000000 	nop

a0805e68 <mini_itoa>:
a0805e68:	27bdffc8 	addiu	sp,sp,-56
a0805e6c:	afbe0034 	sw	s8,52(sp)
a0805e70:	03a0f021 	move	s8,sp
a0805e74:	afc40038 	sw	a0,56(s8)
a0805e78:	afc5003c 	sw	a1,60(s8)
a0805e7c:	afc60040 	sw	a2,64(s8)
a0805e80:	afc70044 	sw	a3,68(s8)
a0805e84:	8fc20048 	lw	v0,72(s8)
a0805e88:	afc20014 	sw	v0,20(s8)
a0805e8c:	afc00010 	sw	zero,16(s8)
a0805e90:	8fc2003c 	lw	v0,60(s8)
a0805e94:	2c420011 	sltiu	v0,v0,17
a0805e98:	14400004 	bnez	v0,a0805eac <mini_itoa+0x44>
a0805e9c:	00000000 	nop
a0805ea0:	afc00020 	sw	zero,32(s8)
a0805ea4:	08201834 	j	a08060d0 <mini_itoa+0x268>
a0805ea8:	00000000 	nop
a0805eac:	8fc20038 	lw	v0,56(s8)
a0805eb0:	04410009 	bgez	v0,a0805ed8 <mini_itoa+0x70>
a0805eb4:	00000000 	nop
a0805eb8:	8fc20044 	lw	v0,68(s8)
a0805ebc:	14400006 	bnez	v0,a0805ed8 <mini_itoa+0x70>
a0805ec0:	00000000 	nop
a0805ec4:	24020001 	li	v0,1
a0805ec8:	afc20010 	sw	v0,16(s8)
a0805ecc:	8fc20038 	lw	v0,56(s8)
a0805ed0:	00021023 	negu	v0,v0
a0805ed4:	afc20038 	sw	v0,56(s8)
a0805ed8:	8fc30038 	lw	v1,56(s8)
a0805edc:	8fc2003c 	lw	v0,60(s8)
a0805ee0:	0062001b 	divu	zero,v1,v0
a0805ee4:	004001f4 	teq	v0,zero,0x7
a0805ee8:	00001010 	mfhi	v0
a0805eec:	afc20004 	sw	v0,4(s8)
a0805ef0:	8fc20004 	lw	v0,4(s8)
a0805ef4:	2842000a 	slti	v0,v0,10
a0805ef8:	1040000a 	beqz	v0,a0805f24 <mini_itoa+0xbc>
a0805efc:	00000000 	nop
a0805f00:	8fc20004 	lw	v0,4(s8)
a0805f04:	304200ff 	andi	v0,v0,0xff
a0805f08:	24420030 	addiu	v0,v0,48
a0805f0c:	304200ff 	andi	v0,v0,0xff
a0805f10:	00021600 	sll	v0,v0,0x18
a0805f14:	00021603 	sra	v0,v0,0x18
a0805f18:	afc2001c 	sw	v0,28(s8)
a0805f1c:	082017dc 	j	a0805f70 <mini_itoa+0x108>
a0805f20:	00000000 	nop
a0805f24:	8fc20040 	lw	v0,64(s8)
a0805f28:	10400005 	beqz	v0,a0805f40 <mini_itoa+0xd8>
a0805f2c:	00000000 	nop
a0805f30:	24020041 	li	v0,65
a0805f34:	afc20018 	sw	v0,24(s8)
a0805f38:	082017d2 	j	a0805f48 <mini_itoa+0xe0>
a0805f3c:	00000000 	nop
a0805f40:	24030061 	li	v1,97
a0805f44:	afc30018 	sw	v1,24(s8)
a0805f48:	8fc20004 	lw	v0,4(s8)
a0805f4c:	304200ff 	andi	v0,v0,0xff
a0805f50:	8fc40018 	lw	a0,24(s8)
a0805f54:	00821021 	addu	v0,a0,v0
a0805f58:	304200ff 	andi	v0,v0,0xff
a0805f5c:	2442fff6 	addiu	v0,v0,-10
a0805f60:	304200ff 	andi	v0,v0,0xff
a0805f64:	00021600 	sll	v0,v0,0x18
a0805f68:	00021603 	sra	v0,v0,0x18
a0805f6c:	afc2001c 	sw	v0,28(s8)
a0805f70:	8fc20014 	lw	v0,20(s8)
a0805f74:	8fc3001c 	lw	v1,28(s8)
a0805f78:	a0430000 	sb	v1,0(v0)
a0805f7c:	8fc20014 	lw	v0,20(s8)
a0805f80:	24420001 	addiu	v0,v0,1
a0805f84:	afc20014 	sw	v0,20(s8)
a0805f88:	8fc30038 	lw	v1,56(s8)
a0805f8c:	8fc2003c 	lw	v0,60(s8)
a0805f90:	0062001b 	divu	zero,v1,v0
a0805f94:	004001f4 	teq	v0,zero,0x7
a0805f98:	00001012 	mflo	v0
a0805f9c:	afc20038 	sw	v0,56(s8)
a0805fa0:	8fc20038 	lw	v0,56(s8)
a0805fa4:	1c40ffcc 	bgtz	v0,a0805ed8 <mini_itoa+0x70>
a0805fa8:	00000000 	nop
a0805fac:	8fc20014 	lw	v0,20(s8)
a0805fb0:	8fc30048 	lw	v1,72(s8)
a0805fb4:	00431023 	subu	v0,v0,v1
a0805fb8:	afc2000c 	sw	v0,12(s8)
a0805fbc:	082017fa 	j	a0805fe8 <mini_itoa+0x180>
a0805fc0:	00000000 	nop
a0805fc4:	8fc30014 	lw	v1,20(s8)
a0805fc8:	24020030 	li	v0,48
a0805fcc:	a0620000 	sb	v0,0(v1)
a0805fd0:	8fc20014 	lw	v0,20(s8)
a0805fd4:	24420001 	addiu	v0,v0,1
a0805fd8:	afc20014 	sw	v0,20(s8)
a0805fdc:	8fc2000c 	lw	v0,12(s8)
a0805fe0:	24420001 	addiu	v0,v0,1
a0805fe4:	afc2000c 	sw	v0,12(s8)
a0805fe8:	8fc2000c 	lw	v0,12(s8)
a0805fec:	8fc3004c 	lw	v1,76(s8)
a0805ff0:	0043102b 	sltu	v0,v0,v1
a0805ff4:	1440fff3 	bnez	v0,a0805fc4 <mini_itoa+0x15c>
a0805ff8:	00000000 	nop
a0805ffc:	8fc20010 	lw	v0,16(s8)
a0806000:	10400007 	beqz	v0,a0806020 <mini_itoa+0x1b8>
a0806004:	00000000 	nop
a0806008:	8fc30014 	lw	v1,20(s8)
a080600c:	2402002d 	li	v0,45
a0806010:	a0620000 	sb	v0,0(v1)
a0806014:	8fc20014 	lw	v0,20(s8)
a0806018:	24420001 	addiu	v0,v0,1
a080601c:	afc20014 	sw	v0,20(s8)
a0806020:	8fc20014 	lw	v0,20(s8)
a0806024:	a0400000 	sb	zero,0(v0)
a0806028:	8fc30014 	lw	v1,20(s8)
a080602c:	8fc20048 	lw	v0,72(s8)
a0806030:	00621023 	subu	v0,v1,v0
a0806034:	afc20008 	sw	v0,8(s8)
a0806038:	afc0000c 	sw	zero,12(s8)
a080603c:	0820182c 	j	a08060b0 <mini_itoa+0x248>
a0806040:	00000000 	nop
a0806044:	8fc30048 	lw	v1,72(s8)
a0806048:	8fc2000c 	lw	v0,12(s8)
a080604c:	00621021 	addu	v0,v1,v0
a0806050:	90420000 	lbu	v0,0(v0)
a0806054:	a3c20000 	sb	v0,0(s8)
a0806058:	8fc30048 	lw	v1,72(s8)
a080605c:	8fc2000c 	lw	v0,12(s8)
a0806060:	00622021 	addu	a0,v1,v0
a0806064:	8fc30008 	lw	v1,8(s8)
a0806068:	8fc2000c 	lw	v0,12(s8)
a080606c:	00621023 	subu	v0,v1,v0
a0806070:	2443ffff 	addiu	v1,v0,-1
a0806074:	8fc20048 	lw	v0,72(s8)
a0806078:	00431021 	addu	v0,v0,v1
a080607c:	80420000 	lb	v0,0(v0)
a0806080:	a0820000 	sb	v0,0(a0)
a0806084:	8fc30008 	lw	v1,8(s8)
a0806088:	8fc2000c 	lw	v0,12(s8)
a080608c:	00621023 	subu	v0,v1,v0
a0806090:	2443ffff 	addiu	v1,v0,-1
a0806094:	8fc20048 	lw	v0,72(s8)
a0806098:	00431821 	addu	v1,v0,v1
a080609c:	93c20000 	lbu	v0,0(s8)
a08060a0:	a0620000 	sb	v0,0(v1)
a08060a4:	8fc2000c 	lw	v0,12(s8)
a08060a8:	24420001 	addiu	v0,v0,1
a08060ac:	afc2000c 	sw	v0,12(s8)
a08060b0:	8fc20008 	lw	v0,8(s8)
a08060b4:	00021842 	srl	v1,v0,0x1
a08060b8:	8fc2000c 	lw	v0,12(s8)
a08060bc:	0043102b 	sltu	v0,v0,v1
a08060c0:	1440ffe0 	bnez	v0,a0806044 <mini_itoa+0x1dc>
a08060c4:	00000000 	nop
a08060c8:	8fc20008 	lw	v0,8(s8)
a08060cc:	afc20020 	sw	v0,32(s8)
a08060d0:	8fc20020 	lw	v0,32(s8)
a08060d4:	03c0e821 	move	sp,s8
a08060d8:	8fbe0034 	lw	s8,52(sp)
a08060dc:	27bd0038 	addiu	sp,sp,56
a08060e0:	03e00008 	jr	ra
a08060e4:	00000000 	nop

a08060e8 <_putc>:
a08060e8:	27bdfff0 	addiu	sp,sp,-16
a08060ec:	afbe000c 	sw	s8,12(sp)
a08060f0:	03a0f021 	move	s8,sp
a08060f4:	afc40010 	sw	a0,16(s8)
a08060f8:	afc50014 	sw	a1,20(s8)
a08060fc:	8fc20014 	lw	v0,20(s8)
a0806100:	8c420004 	lw	v0,4(v0)
a0806104:	00401821 	move	v1,v0
a0806108:	8fc20014 	lw	v0,20(s8)
a080610c:	8c420000 	lw	v0,0(v0)
a0806110:	00621023 	subu	v0,v1,v0
a0806114:	24420001 	addiu	v0,v0,1
a0806118:	00401821 	move	v1,v0
a080611c:	8fc20014 	lw	v0,20(s8)
a0806120:	8c420008 	lw	v0,8(v0)
a0806124:	0062102b 	sltu	v0,v1,v0
a0806128:	14400004 	bnez	v0,a080613c <_putc+0x54>
a080612c:	00000000 	nop
a0806130:	afc00000 	sw	zero,0(s8)
a0806134:	0820185d 	j	a0806174 <_putc+0x8c>
a0806138:	00000000 	nop
a080613c:	8fc20014 	lw	v0,20(s8)
a0806140:	8c430004 	lw	v1,4(v0)
a0806144:	8fc20010 	lw	v0,16(s8)
a0806148:	00021600 	sll	v0,v0,0x18
a080614c:	00021603 	sra	v0,v0,0x18
a0806150:	a0620000 	sb	v0,0(v1)
a0806154:	24630001 	addiu	v1,v1,1
a0806158:	8fc20014 	lw	v0,20(s8)
a080615c:	ac430004 	sw	v1,4(v0)
a0806160:	8fc20014 	lw	v0,20(s8)
a0806164:	8c420004 	lw	v0,4(v0)
a0806168:	a0400000 	sb	zero,0(v0)
a080616c:	24020001 	li	v0,1
a0806170:	afc20000 	sw	v0,0(s8)
a0806174:	8fc20000 	lw	v0,0(s8)
a0806178:	03c0e821 	move	sp,s8
a080617c:	8fbe000c 	lw	s8,12(sp)
a0806180:	27bd0010 	addiu	sp,sp,16
a0806184:	03e00008 	jr	ra
a0806188:	00000000 	nop

a080618c <_puts>:
a080618c:	27bdfff0 	addiu	sp,sp,-16
a0806190:	afbe000c 	sw	s8,12(sp)
a0806194:	03a0f021 	move	s8,sp
a0806198:	afc40010 	sw	a0,16(s8)
a080619c:	afc50014 	sw	a1,20(s8)
a08061a0:	afc60018 	sw	a2,24(s8)
a08061a4:	8fc20018 	lw	v0,24(s8)
a08061a8:	8c440008 	lw	a0,8(v0)
a08061ac:	8fc20018 	lw	v0,24(s8)
a08061b0:	8c420000 	lw	v0,0(v0)
a08061b4:	00401821 	move	v1,v0
a08061b8:	8fc20018 	lw	v0,24(s8)
a08061bc:	8c420004 	lw	v0,4(v0)
a08061c0:	00621023 	subu	v0,v1,v0
a08061c4:	00821021 	addu	v0,a0,v0
a08061c8:	2443ffff 	addiu	v1,v0,-1
a08061cc:	8fc20014 	lw	v0,20(s8)
a08061d0:	0062102b 	sltu	v0,v1,v0
a08061d4:	1040000c 	beqz	v0,a0806208 <_puts+0x7c>
a08061d8:	00000000 	nop
a08061dc:	8fc20018 	lw	v0,24(s8)
a08061e0:	8c440008 	lw	a0,8(v0)
a08061e4:	8fc20018 	lw	v0,24(s8)
a08061e8:	8c420000 	lw	v0,0(v0)
a08061ec:	00401821 	move	v1,v0
a08061f0:	8fc20018 	lw	v0,24(s8)
a08061f4:	8c420004 	lw	v0,4(v0)
a08061f8:	00621023 	subu	v0,v1,v0
a08061fc:	00821021 	addu	v0,a0,v0
a0806200:	2442ffff 	addiu	v0,v0,-1
a0806204:	afc20014 	sw	v0,20(s8)
a0806208:	afc00000 	sw	zero,0(s8)
a080620c:	08201892 	j	a0806248 <_puts+0xbc>
a0806210:	00000000 	nop
a0806214:	8fc20018 	lw	v0,24(s8)
a0806218:	8c440004 	lw	a0,4(v0)
a080621c:	8fc30010 	lw	v1,16(s8)
a0806220:	8fc20000 	lw	v0,0(s8)
a0806224:	00621021 	addu	v0,v1,v0
a0806228:	80420000 	lb	v0,0(v0)
a080622c:	a0820000 	sb	v0,0(a0)
a0806230:	24830001 	addiu	v1,a0,1
a0806234:	8fc20018 	lw	v0,24(s8)
a0806238:	ac430004 	sw	v1,4(v0)
a080623c:	8fc20000 	lw	v0,0(s8)
a0806240:	24420001 	addiu	v0,v0,1
a0806244:	afc20000 	sw	v0,0(s8)
a0806248:	8fc20000 	lw	v0,0(s8)
a080624c:	8fc30014 	lw	v1,20(s8)
a0806250:	0043102b 	sltu	v0,v0,v1
a0806254:	1440ffef 	bnez	v0,a0806214 <_puts+0x88>
a0806258:	00000000 	nop
a080625c:	8fc20018 	lw	v0,24(s8)
a0806260:	8c420004 	lw	v0,4(v0)
a0806264:	a0400000 	sb	zero,0(v0)
a0806268:	8fc20014 	lw	v0,20(s8)
a080626c:	03c0e821 	move	sp,s8
a0806270:	8fbe000c 	lw	s8,12(sp)
a0806274:	27bd0010 	addiu	sp,sp,16
a0806278:	03e00008 	jr	ra
a080627c:	00000000 	nop

a0806280 <mini_vsnprintf>:
a0806280:	27bdffa8 	addiu	sp,sp,-88
a0806284:	afbf0054 	sw	ra,84(sp)
a0806288:	afbe0050 	sw	s8,80(sp)
a080628c:	03a0f021 	move	s8,sp
a0806290:	afc40058 	sw	a0,88(s8)
a0806294:	afc5005c 	sw	a1,92(s8)
a0806298:	afc60060 	sw	a2,96(s8)
a080629c:	afc70064 	sw	a3,100(s8)
a08062a0:	8fc20058 	lw	v0,88(s8)
a08062a4:	afc20024 	sw	v0,36(s8)
a08062a8:	8fc20058 	lw	v0,88(s8)
a08062ac:	afc20028 	sw	v0,40(s8)
a08062b0:	8fc2005c 	lw	v0,92(s8)
a08062b4:	afc2002c 	sw	v0,44(s8)
a08062b8:	0820196c 	j	a08065b0 <mini_vsnprintf+0x330>
a08062bc:	00000000 	nop
a08062c0:	8fc20028 	lw	v0,40(s8)
a08062c4:	00401821 	move	v1,v0
a08062c8:	8fc20024 	lw	v0,36(s8)
a08062cc:	00621023 	subu	v0,v1,v0
a08062d0:	24420001 	addiu	v0,v0,1
a08062d4:	00401821 	move	v1,v0
a08062d8:	8fc2002c 	lw	v0,44(s8)
a08062dc:	0062102b 	sltu	v0,v1,v0
a08062e0:	104000be 	beqz	v0,a08065dc <mini_vsnprintf+0x35c>
a08062e4:	00000000 	nop
a08062e8:	83c30021 	lb	v1,33(s8)
a08062ec:	24020025 	li	v0,37
a08062f0:	10620009 	beq	v1,v0,a0806318 <mini_vsnprintf+0x98>
a08062f4:	00000000 	nop
a08062f8:	83c20021 	lb	v0,33(s8)
a08062fc:	27c30024 	addiu	v1,s8,36
a0806300:	00402021 	move	a0,v0
a0806304:	00602821 	move	a1,v1
a0806308:	0c20183a 	jal	a08060e8 <_putc>
a080630c:	00000000 	nop
a0806310:	0820196c 	j	a08065b0 <mini_vsnprintf+0x330>
a0806314:	00000000 	nop
a0806318:	a3c00020 	sb	zero,32(s8)
a080631c:	8fc20060 	lw	v0,96(s8)
a0806320:	90420000 	lbu	v0,0(v0)
a0806324:	a3c20021 	sb	v0,33(s8)
a0806328:	8fc20060 	lw	v0,96(s8)
a080632c:	24420001 	addiu	v0,v0,1
a0806330:	afc20060 	sw	v0,96(s8)
a0806334:	83c30021 	lb	v1,33(s8)
a0806338:	24020030 	li	v0,48
a080633c:	1462001c 	bne	v1,v0,a08063b0 <mini_vsnprintf+0x130>
a0806340:	00000000 	nop
a0806344:	8fc20060 	lw	v0,96(s8)
a0806348:	90420000 	lbu	v0,0(v0)
a080634c:	a3c20021 	sb	v0,33(s8)
a0806350:	8fc20060 	lw	v0,96(s8)
a0806354:	24420001 	addiu	v0,v0,1
a0806358:	afc20060 	sw	v0,96(s8)
a080635c:	83c20021 	lb	v0,33(s8)
a0806360:	1040009e 	beqz	v0,a08065dc <mini_vsnprintf+0x35c>
a0806364:	00000000 	nop
a0806368:	83c20021 	lb	v0,33(s8)
a080636c:	28420030 	slti	v0,v0,48
a0806370:	14400009 	bnez	v0,a0806398 <mini_vsnprintf+0x118>
a0806374:	00000000 	nop
a0806378:	83c20021 	lb	v0,33(s8)
a080637c:	2842003a 	slti	v0,v0,58
a0806380:	10400005 	beqz	v0,a0806398 <mini_vsnprintf+0x118>
a0806384:	00000000 	nop
a0806388:	93c20021 	lbu	v0,33(s8)
a080638c:	2442ffd0 	addiu	v0,v0,-48
a0806390:	304200ff 	andi	v0,v0,0xff
a0806394:	a3c20020 	sb	v0,32(s8)
a0806398:	8fc20060 	lw	v0,96(s8)
a080639c:	90420000 	lbu	v0,0(v0)
a08063a0:	a3c20021 	sb	v0,33(s8)
a08063a4:	8fc20060 	lw	v0,96(s8)
a08063a8:	24420001 	addiu	v0,v0,1
a08063ac:	afc20060 	sw	v0,96(s8)
a08063b0:	83c20021 	lb	v0,33(s8)
a08063b4:	afc20048 	sw	v0,72(s8)
a08063b8:	24020064 	li	v0,100
a08063bc:	8fc30048 	lw	v1,72(s8)
a08063c0:	10620020 	beq	v1,v0,a0806444 <mini_vsnprintf+0x1c4>
a08063c4:	00000000 	nop
a08063c8:	8fc30048 	lw	v1,72(s8)
a08063cc:	28620065 	slti	v0,v1,101
a08063d0:	1040000e 	beqz	v0,a080640c <mini_vsnprintf+0x18c>
a08063d4:	00000000 	nop
a08063d8:	24020058 	li	v0,88
a08063dc:	8fc30048 	lw	v1,72(s8)
a08063e0:	10620033 	beq	v1,v0,a08064b0 <mini_vsnprintf+0x230>
a08063e4:	00000000 	nop
a08063e8:	24020063 	li	v0,99
a08063ec:	8fc30048 	lw	v1,72(s8)
a08063f0:	1062004a 	beq	v1,v0,a080651c <mini_vsnprintf+0x29c>
a08063f4:	00000000 	nop
a08063f8:	8fc20048 	lw	v0,72(s8)
a08063fc:	10400077 	beqz	v0,a08065dc <mini_vsnprintf+0x35c>
a0806400:	00000000 	nop
a0806404:	08201966 	j	a0806598 <mini_vsnprintf+0x318>
a0806408:	00000000 	nop
a080640c:	24020075 	li	v0,117
a0806410:	8fc30048 	lw	v1,72(s8)
a0806414:	1062000b 	beq	v1,v0,a0806444 <mini_vsnprintf+0x1c4>
a0806418:	00000000 	nop
a080641c:	24020078 	li	v0,120
a0806420:	8fc30048 	lw	v1,72(s8)
a0806424:	10620022 	beq	v1,v0,a08064b0 <mini_vsnprintf+0x230>
a0806428:	00000000 	nop
a080642c:	24020073 	li	v0,115
a0806430:	8fc30048 	lw	v1,72(s8)
a0806434:	10620047 	beq	v1,v0,a0806554 <mini_vsnprintf+0x2d4>
a0806438:	00000000 	nop
a080643c:	08201966 	j	a0806598 <mini_vsnprintf+0x318>
a0806440:	00000000 	nop
a0806444:	8fc30064 	lw	v1,100(s8)
a0806448:	24620004 	addiu	v0,v1,4
a080644c:	afc20064 	sw	v0,100(s8)
a0806450:	00601021 	move	v0,v1
a0806454:	8c420000 	lw	v0,0(v0)
a0806458:	00402021 	move	a0,v0
a080645c:	83c20021 	lb	v0,33(s8)
a0806460:	38420075 	xori	v0,v0,0x75
a0806464:	2c470001 	sltiu	a3,v0,1
a0806468:	83c30020 	lb	v1,32(s8)
a080646c:	27c20030 	addiu	v0,s8,48
a0806470:	afa20010 	sw	v0,16(sp)
a0806474:	afa30014 	sw	v1,20(sp)
a0806478:	2405000a 	li	a1,10
a080647c:	00003021 	move	a2,zero
a0806480:	0c20179a 	jal	a0805e68 <mini_itoa>
a0806484:	00000000 	nop
a0806488:	afc20018 	sw	v0,24(s8)
a080648c:	27c20030 	addiu	v0,s8,48
a0806490:	27c30024 	addiu	v1,s8,36
a0806494:	00402021 	move	a0,v0
a0806498:	8fc50018 	lw	a1,24(s8)
a080649c:	00603021 	move	a2,v1
a08064a0:	0c201863 	jal	a080618c <_puts>
a08064a4:	00000000 	nop
a08064a8:	0820196c 	j	a08065b0 <mini_vsnprintf+0x330>
a08064ac:	00000000 	nop
a08064b0:	8fc30064 	lw	v1,100(s8)
a08064b4:	24620004 	addiu	v0,v1,4
a08064b8:	afc20064 	sw	v0,100(s8)
a08064bc:	00601021 	move	v0,v1
a08064c0:	8c420000 	lw	v0,0(v0)
a08064c4:	00402021 	move	a0,v0
a08064c8:	83c20021 	lb	v0,33(s8)
a08064cc:	38420058 	xori	v0,v0,0x58
a08064d0:	2c460001 	sltiu	a2,v0,1
a08064d4:	83c30020 	lb	v1,32(s8)
a08064d8:	27c20030 	addiu	v0,s8,48
a08064dc:	afa20010 	sw	v0,16(sp)
a08064e0:	afa30014 	sw	v1,20(sp)
a08064e4:	24050010 	li	a1,16
a08064e8:	24070001 	li	a3,1
a08064ec:	0c20179a 	jal	a0805e68 <mini_itoa>
a08064f0:	00000000 	nop
a08064f4:	afc20018 	sw	v0,24(s8)
a08064f8:	27c20030 	addiu	v0,s8,48
a08064fc:	27c30024 	addiu	v1,s8,36
a0806500:	00402021 	move	a0,v0
a0806504:	8fc50018 	lw	a1,24(s8)
a0806508:	00603021 	move	a2,v1
a080650c:	0c201863 	jal	a080618c <_puts>
a0806510:	00000000 	nop
a0806514:	0820196c 	j	a08065b0 <mini_vsnprintf+0x330>
a0806518:	00000000 	nop
a080651c:	8fc30064 	lw	v1,100(s8)
a0806520:	24620004 	addiu	v0,v1,4
a0806524:	afc20064 	sw	v0,100(s8)
a0806528:	00601021 	move	v0,v1
a080652c:	8c420000 	lw	v0,0(v0)
a0806530:	00021600 	sll	v0,v0,0x18
a0806534:	00021603 	sra	v0,v0,0x18
a0806538:	27c30024 	addiu	v1,s8,36
a080653c:	00402021 	move	a0,v0
a0806540:	00602821 	move	a1,v1
a0806544:	0c20183a 	jal	a08060e8 <_putc>
a0806548:	00000000 	nop
a080654c:	0820196c 	j	a08065b0 <mini_vsnprintf+0x330>
a0806550:	00000000 	nop
a0806554:	8fc30064 	lw	v1,100(s8)
a0806558:	24620004 	addiu	v0,v1,4
a080655c:	afc20064 	sw	v0,100(s8)
a0806560:	00601021 	move	v0,v1
a0806564:	8c420000 	lw	v0,0(v0)
a0806568:	afc2001c 	sw	v0,28(s8)
a080656c:	8fc4001c 	lw	a0,28(s8)
a0806570:	0c201784 	jal	a0805e10 <mini_strlen>
a0806574:	00000000 	nop
a0806578:	27c30024 	addiu	v1,s8,36
a080657c:	8fc4001c 	lw	a0,28(s8)
a0806580:	00402821 	move	a1,v0
a0806584:	00603021 	move	a2,v1
a0806588:	0c201863 	jal	a080618c <_puts>
a080658c:	00000000 	nop
a0806590:	0820196c 	j	a08065b0 <mini_vsnprintf+0x330>
a0806594:	00000000 	nop
a0806598:	83c20021 	lb	v0,33(s8)
a080659c:	27c30024 	addiu	v1,s8,36
a08065a0:	00402021 	move	a0,v0
a08065a4:	00602821 	move	a1,v1
a08065a8:	0c20183a 	jal	a08060e8 <_putc>
a08065ac:	00000000 	nop
a08065b0:	8fc20060 	lw	v0,96(s8)
a08065b4:	90420000 	lbu	v0,0(v0)
a08065b8:	a3c20021 	sb	v0,33(s8)
a08065bc:	83c20021 	lb	v0,33(s8)
a08065c0:	0002102b 	sltu	v0,zero,v0
a08065c4:	304300ff 	andi	v1,v0,0xff
a08065c8:	8fc20060 	lw	v0,96(s8)
a08065cc:	24420001 	addiu	v0,v0,1
a08065d0:	afc20060 	sw	v0,96(s8)
a08065d4:	1460ff3a 	bnez	v1,a08062c0 <mini_vsnprintf+0x40>
a08065d8:	00000000 	nop
a08065dc:	8fc20028 	lw	v0,40(s8)
a08065e0:	00401821 	move	v1,v0
a08065e4:	8fc20024 	lw	v0,36(s8)
a08065e8:	00621023 	subu	v0,v1,v0
a08065ec:	03c0e821 	move	sp,s8
a08065f0:	8fbf0054 	lw	ra,84(sp)
a08065f4:	8fbe0050 	lw	s8,80(sp)
a08065f8:	27bd0058 	addiu	sp,sp,88
a08065fc:	03e00008 	jr	ra
a0806600:	00000000 	nop

a0806604 <printk>:
a0806604:	27bdfee0 	addiu	sp,sp,-288
a0806608:	afbf011c 	sw	ra,284(sp)
a080660c:	afbe0118 	sw	s8,280(sp)
a0806610:	03a0f021 	move	s8,sp
a0806614:	afc50124 	sw	a1,292(s8)
a0806618:	afc60128 	sw	a2,296(s8)
a080661c:	afc7012c 	sw	a3,300(s8)
a0806620:	afc40120 	sw	a0,288(s8)
a0806624:	27c20124 	addiu	v0,s8,292
a0806628:	afc20014 	sw	v0,20(s8)
a080662c:	8fc30014 	lw	v1,20(s8)
a0806630:	27c20018 	addiu	v0,s8,24
a0806634:	00402021 	move	a0,v0
a0806638:	24050100 	li	a1,256
a080663c:	8fc60120 	lw	a2,288(s8)
a0806640:	00603821 	move	a3,v1
a0806644:	0c2018a0 	jal	a0806280 <mini_vsnprintf>
a0806648:	00000000 	nop
a080664c:	afc20010 	sw	v0,16(s8)
a0806650:	8fc30010 	lw	v1,16(s8)
a0806654:	27c20010 	addiu	v0,s8,16
a0806658:	00431021 	addu	v0,v0,v1
a080665c:	a0400008 	sb	zero,8(v0)
a0806660:	27c20018 	addiu	v0,s8,24
a0806664:	00402021 	move	a0,v0
a0806668:	0c20028c 	jal	a0800a30 <port_write>
a080666c:	00000000 	nop
a0806670:	8fc20010 	lw	v0,16(s8)
a0806674:	03c0e821 	move	sp,s8
a0806678:	8fbf011c 	lw	ra,284(sp)
a080667c:	8fbe0118 	lw	s8,280(sp)
a0806680:	27bd0120 	addiu	sp,sp,288
a0806684:	03e00008 	jr	ra
a0806688:	00000000 	nop

a080668c <printf>:
a080668c:	27bdfee0 	addiu	sp,sp,-288
a0806690:	afbf011c 	sw	ra,284(sp)
a0806694:	afbe0118 	sw	s8,280(sp)
a0806698:	03a0f021 	move	s8,sp
a080669c:	afc50124 	sw	a1,292(s8)
a08066a0:	afc60128 	sw	a2,296(s8)
a08066a4:	afc7012c 	sw	a3,300(s8)
a08066a8:	afc40120 	sw	a0,288(s8)
a08066ac:	27c20124 	addiu	v0,s8,292
a08066b0:	afc20014 	sw	v0,20(s8)
a08066b4:	8fc30014 	lw	v1,20(s8)
a08066b8:	27c20018 	addiu	v0,s8,24
a08066bc:	00402021 	move	a0,v0
a08066c0:	24050100 	li	a1,256
a08066c4:	8fc60120 	lw	a2,288(s8)
a08066c8:	00603821 	move	a3,v1
a08066cc:	0c2018a0 	jal	a0806280 <mini_vsnprintf>
a08066d0:	00000000 	nop
a08066d4:	afc20010 	sw	v0,16(s8)
a08066d8:	8fc30010 	lw	v1,16(s8)
a08066dc:	27c20010 	addiu	v0,s8,16
a08066e0:	00431021 	addu	v0,v0,v1
a08066e4:	a0400008 	sb	zero,8(v0)
a08066e8:	27c20018 	addiu	v0,s8,24
a08066ec:	00402021 	move	a0,v0
a08066f0:	0c201450 	jal	a0805140 <sys_write>
a08066f4:	00000000 	nop
a08066f8:	8fc20010 	lw	v0,16(s8)
a08066fc:	03c0e821 	move	sp,s8
a0806700:	8fbf011c 	lw	ra,284(sp)
a0806704:	8fbe0118 	lw	s8,280(sp)
a0806708:	27bd0120 	addiu	sp,sp,288
a080670c:	03e00008 	jr	ra
a0806710:	00000000 	nop
	...

a0806720 <mbox_init>:
a0806720:	27bdffe0 	addiu	sp,sp,-32
a0806724:	afbf001c 	sw	ra,28(sp)
a0806728:	afbe0018 	sw	s8,24(sp)
a080672c:	03a0f021 	move	s8,sp
a0806730:	3c02a084 	lui	v0,0xa084
a0806734:	24446be8 	addiu	a0,v0,27624
a0806738:	0c2014cb 	jal	a080532c <mutex_lock_init>
a080673c:	00000000 	nop
a0806740:	afc00010 	sw	zero,16(s8)
a0806744:	08201a56 	j	a0806958 <mbox_init+0x238>
a0806748:	00000000 	nop
a080674c:	8fc40010 	lw	a0,16(s8)
a0806750:	3c05a081 	lui	a1,0xa081
a0806754:	00801021 	move	v0,a0
a0806758:	00021900 	sll	v1,v0,0x4
a080675c:	00031080 	sll	v0,v1,0x2
a0806760:	00431023 	subu	v0,v0,v1
a0806764:	00441023 	subu	v0,v0,a0
a0806768:	00021880 	sll	v1,v0,0x2
a080676c:	24a2f390 	addiu	v0,a1,-3184
a0806770:	00621021 	addu	v0,v1,v0
a0806774:	a0400000 	sb	zero,0(v0)
a0806778:	8fc40010 	lw	a0,16(s8)
a080677c:	3c05a081 	lui	a1,0xa081
a0806780:	00801021 	move	v0,a0
a0806784:	00021900 	sll	v1,v0,0x4
a0806788:	00031080 	sll	v0,v1,0x2
a080678c:	00431023 	subu	v0,v0,v1
a0806790:	00441023 	subu	v0,v0,a0
a0806794:	00021880 	sll	v1,v0,0x2
a0806798:	24a2f390 	addiu	v0,a1,-3184
a080679c:	00621021 	addu	v0,v1,v0
a08067a0:	ac400048 	sw	zero,72(v0)
a08067a4:	8fc40010 	lw	a0,16(s8)
a08067a8:	3c05a081 	lui	a1,0xa081
a08067ac:	00801021 	move	v0,a0
a08067b0:	00021900 	sll	v1,v0,0x4
a08067b4:	00031080 	sll	v0,v1,0x2
a08067b8:	00431023 	subu	v0,v0,v1
a08067bc:	00441023 	subu	v0,v0,a0
a08067c0:	00021880 	sll	v1,v0,0x2
a08067c4:	24a2f390 	addiu	v0,a1,-3184
a08067c8:	00621021 	addu	v0,v1,v0
a08067cc:	a040004c 	sb	zero,76(v0)
a08067d0:	8fc40010 	lw	a0,16(s8)
a08067d4:	3c05a081 	lui	a1,0xa081
a08067d8:	00801021 	move	v0,a0
a08067dc:	00021900 	sll	v1,v0,0x4
a08067e0:	00031080 	sll	v0,v1,0x2
a08067e4:	00431023 	subu	v0,v0,v1
a08067e8:	00441023 	subu	v0,v0,a0
a08067ec:	00021880 	sll	v1,v0,0x2
a08067f0:	24a2f390 	addiu	v0,a1,-3184
a08067f4:	00621021 	addu	v0,v1,v0
a08067f8:	ac4000b0 	sw	zero,176(v0)
a08067fc:	8fc40010 	lw	a0,16(s8)
a0806800:	3c02a081 	lui	v0,0xa081
a0806804:	2445f390 	addiu	a1,v0,-3184
a0806808:	00801021 	move	v0,a0
a080680c:	00021900 	sll	v1,v0,0x4
a0806810:	00031080 	sll	v0,v1,0x2
a0806814:	00431023 	subu	v0,v0,v1
a0806818:	00441023 	subu	v0,v0,a0
a080681c:	00021080 	sll	v0,v0,0x2
a0806820:	00a21021 	addu	v0,a1,v0
a0806824:	ac4000b4 	sw	zero,180(v0)
a0806828:	8fc40010 	lw	a0,16(s8)
a080682c:	3c05a081 	lui	a1,0xa081
a0806830:	00801021 	move	v0,a0
a0806834:	00021900 	sll	v1,v0,0x4
a0806838:	00031080 	sll	v0,v1,0x2
a080683c:	00431023 	subu	v0,v0,v1
a0806840:	00441023 	subu	v0,v0,a0
a0806844:	00021880 	sll	v1,v0,0x2
a0806848:	24a2f390 	addiu	v0,a1,-3184
a080684c:	00621021 	addu	v0,v1,v0
a0806850:	ac4000b8 	sw	zero,184(v0)
a0806854:	8fc40010 	lw	a0,16(s8)
a0806858:	00801021 	move	v0,a0
a080685c:	00021900 	sll	v1,v0,0x4
a0806860:	00031080 	sll	v0,v1,0x2
a0806864:	00431023 	subu	v0,v0,v1
a0806868:	00441023 	subu	v0,v0,a0
a080686c:	00021080 	sll	v0,v0,0x2
a0806870:	24430030 	addiu	v1,v0,48
a0806874:	3c02a081 	lui	v0,0xa081
a0806878:	2442f390 	addiu	v0,v0,-3184
a080687c:	00621021 	addu	v0,v1,v0
a0806880:	24420004 	addiu	v0,v0,4
a0806884:	00402021 	move	a0,v0
a0806888:	0c201406 	jal	a0805018 <condition_init>
a080688c:	00000000 	nop
a0806890:	8fc40010 	lw	a0,16(s8)
a0806894:	00801021 	move	v0,a0
a0806898:	00021900 	sll	v1,v0,0x4
a080689c:	00031080 	sll	v0,v1,0x2
a08068a0:	00431023 	subu	v0,v0,v1
a08068a4:	00441023 	subu	v0,v0,a0
a08068a8:	00021080 	sll	v0,v0,0x2
a08068ac:	24430038 	addiu	v1,v0,56
a08068b0:	3c02a081 	lui	v0,0xa081
a08068b4:	2442f390 	addiu	v0,v0,-3184
a08068b8:	00621021 	addu	v0,v1,v0
a08068bc:	24420004 	addiu	v0,v0,4
a08068c0:	00402021 	move	a0,v0
a08068c4:	0c201406 	jal	a0805018 <condition_init>
a08068c8:	00000000 	nop
a08068cc:	8fc40010 	lw	a0,16(s8)
a08068d0:	8fc20010 	lw	v0,16(s8)
a08068d4:	000218c0 	sll	v1,v0,0x3
a08068d8:	00031080 	sll	v0,v1,0x2
a08068dc:	00431823 	subu	v1,v0,v1
a08068e0:	3c02a084 	lui	v0,0xa084
a08068e4:	24424e90 	addiu	v0,v0,20112
a08068e8:	00622821 	addu	a1,v1,v0
a08068ec:	3c02a081 	lui	v0,0xa081
a08068f0:	2446f390 	addiu	a2,v0,-3184
a08068f4:	00801021 	move	v0,a0
a08068f8:	00021900 	sll	v1,v0,0x4
a08068fc:	00031080 	sll	v0,v1,0x2
a0806900:	00431023 	subu	v0,v0,v1
a0806904:	00441023 	subu	v0,v0,a0
a0806908:	00021080 	sll	v0,v0,0x2
a080690c:	00c21021 	addu	v0,a2,v0
a0806910:	ac450044 	sw	a1,68(v0)
a0806914:	8fc40010 	lw	a0,16(s8)
a0806918:	3c02a081 	lui	v0,0xa081
a080691c:	2445f390 	addiu	a1,v0,-3184
a0806920:	00801021 	move	v0,a0
a0806924:	00021900 	sll	v1,v0,0x4
a0806928:	00031080 	sll	v0,v1,0x2
a080692c:	00431023 	subu	v0,v0,v1
a0806930:	00441023 	subu	v0,v0,a0
a0806934:	00021080 	sll	v0,v0,0x2
a0806938:	00a21021 	addu	v0,a1,v0
a080693c:	8c420044 	lw	v0,68(v0)
a0806940:	00402021 	move	a0,v0
a0806944:	0c2014cb 	jal	a080532c <mutex_lock_init>
a0806948:	00000000 	nop
a080694c:	8fc20010 	lw	v0,16(s8)
a0806950:	24420001 	addiu	v0,v0,1
a0806954:	afc20010 	sw	v0,16(s8)
a0806958:	8fc20010 	lw	v0,16(s8)
a080695c:	28420010 	slti	v0,v0,16
a0806960:	1440ff7a 	bnez	v0,a080674c <mbox_init+0x2c>
a0806964:	00000000 	nop
a0806968:	03c0e821 	move	sp,s8
a080696c:	8fbf001c 	lw	ra,28(sp)
a0806970:	8fbe0018 	lw	s8,24(sp)
a0806974:	27bd0020 	addiu	sp,sp,32
a0806978:	03e00008 	jr	ra
a080697c:	00000000 	nop

a0806980 <release_mailbox>:
a0806980:	27bdffe8 	addiu	sp,sp,-24
a0806984:	afbf0014 	sw	ra,20(sp)
a0806988:	afbe0010 	sw	s8,16(sp)
a080698c:	03a0f021 	move	s8,sp
a0806990:	afc40018 	sw	a0,24(s8)
a0806994:	8fc20018 	lw	v0,24(s8)
a0806998:	24420034 	addiu	v0,v0,52
a080699c:	00402021 	move	a0,v0
a08069a0:	0c20143e 	jal	a08050f8 <condition_broadcast>
a08069a4:	00000000 	nop
a08069a8:	8fc20018 	lw	v0,24(s8)
a08069ac:	2442003c 	addiu	v0,v0,60
a08069b0:	00402021 	move	a0,v0
a08069b4:	0c20143e 	jal	a08050f8 <condition_broadcast>
a08069b8:	00000000 	nop
a08069bc:	8fc20018 	lw	v0,24(s8)
a08069c0:	8c420044 	lw	v0,68(v0)
a08069c4:	ac400014 	sw	zero,20(v0)
a08069c8:	8fc20018 	lw	v0,24(s8)
a08069cc:	8c420044 	lw	v0,68(v0)
a08069d0:	ac400010 	sw	zero,16(v0)
a08069d4:	8fc20018 	lw	v0,24(s8)
a08069d8:	8c420044 	lw	v0,68(v0)
a08069dc:	ac400004 	sw	zero,4(v0)
a08069e0:	8fc20018 	lw	v0,24(s8)
a08069e4:	8c420044 	lw	v0,68(v0)
a08069e8:	24420008 	addiu	v0,v0,8
a08069ec:	00402021 	move	a0,v0
a08069f0:	0c2013bd 	jal	a0804ef4 <sys_unblock_all>
a08069f4:	00000000 	nop
a08069f8:	8fc20018 	lw	v0,24(s8)
a08069fc:	ac400048 	sw	zero,72(v0)
a0806a00:	8fc20018 	lw	v0,24(s8)
a0806a04:	00402021 	move	a0,v0
a0806a08:	24050032 	li	a1,50
a0806a0c:	0c20171a 	jal	a0805c68 <bzero>
a0806a10:	00000000 	nop
a0806a14:	8fc20018 	lw	v0,24(s8)
a0806a18:	2442004c 	addiu	v0,v0,76
a0806a1c:	00402021 	move	a0,v0
a0806a20:	24050064 	li	a1,100
a0806a24:	0c20171a 	jal	a0805c68 <bzero>
a0806a28:	00000000 	nop
a0806a2c:	8fc20018 	lw	v0,24(s8)
a0806a30:	ac4000b0 	sw	zero,176(v0)
a0806a34:	8fc20018 	lw	v0,24(s8)
a0806a38:	ac4000b4 	sw	zero,180(v0)
a0806a3c:	8fc20018 	lw	v0,24(s8)
a0806a40:	ac4000b8 	sw	zero,184(v0)
a0806a44:	03c0e821 	move	sp,s8
a0806a48:	8fbf0014 	lw	ra,20(sp)
a0806a4c:	8fbe0010 	lw	s8,16(sp)
a0806a50:	27bd0018 	addiu	sp,sp,24
a0806a54:	03e00008 	jr	ra
a0806a58:	00000000 	nop

a0806a5c <mbox_open>:
a0806a5c:	27bdffd8 	addiu	sp,sp,-40
a0806a60:	afbf0024 	sw	ra,36(sp)
a0806a64:	afbe0020 	sw	s8,32(sp)
a0806a68:	03a0f021 	move	s8,sp
a0806a6c:	afc40028 	sw	a0,40(s8)
a0806a70:	3c02a084 	lui	v0,0xa084
a0806a74:	24446be8 	addiu	a0,v0,27624
a0806a78:	0c2014dd 	jal	a0805374 <mutex_lock_acquire>
a0806a7c:	00000000 	nop
a0806a80:	afc00010 	sw	zero,16(s8)
a0806a84:	08201ae1 	j	a0806b84 <mbox_open+0x128>
a0806a88:	00000000 	nop
a0806a8c:	8fc40010 	lw	a0,16(s8)
a0806a90:	00801021 	move	v0,a0
a0806a94:	00021900 	sll	v1,v0,0x4
a0806a98:	00031080 	sll	v0,v1,0x2
a0806a9c:	00431023 	subu	v0,v0,v1
a0806aa0:	00441023 	subu	v0,v0,a0
a0806aa4:	00021880 	sll	v1,v0,0x2
a0806aa8:	3c02a081 	lui	v0,0xa081
a0806aac:	2442f390 	addiu	v0,v0,-3184
a0806ab0:	00621021 	addu	v0,v1,v0
a0806ab4:	8fc40028 	lw	a0,40(s8)
a0806ab8:	00402821 	move	a1,v0
a0806abc:	0c20172b 	jal	a0805cac <strcmp>
a0806ac0:	00000000 	nop
a0806ac4:	1440002c 	bnez	v0,a0806b78 <mbox_open+0x11c>
a0806ac8:	00000000 	nop
a0806acc:	8fc40010 	lw	a0,16(s8)
a0806ad0:	3c05a081 	lui	a1,0xa081
a0806ad4:	00801021 	move	v0,a0
a0806ad8:	00021900 	sll	v1,v0,0x4
a0806adc:	00031080 	sll	v0,v1,0x2
a0806ae0:	00431023 	subu	v0,v0,v1
a0806ae4:	00441023 	subu	v0,v0,a0
a0806ae8:	00021880 	sll	v1,v0,0x2
a0806aec:	24a2f390 	addiu	v0,a1,-3184
a0806af0:	00621021 	addu	v0,v1,v0
a0806af4:	8c420048 	lw	v0,72(v0)
a0806af8:	24450001 	addiu	a1,v0,1
a0806afc:	3c06a081 	lui	a2,0xa081
a0806b00:	00801021 	move	v0,a0
a0806b04:	00021900 	sll	v1,v0,0x4
a0806b08:	00031080 	sll	v0,v1,0x2
a0806b0c:	00431023 	subu	v0,v0,v1
a0806b10:	00441023 	subu	v0,v0,a0
a0806b14:	00021880 	sll	v1,v0,0x2
a0806b18:	24c2f390 	addiu	v0,a2,-3184
a0806b1c:	00621021 	addu	v0,v1,v0
a0806b20:	ac450048 	sw	a1,72(v0)
a0806b24:	3c02a081 	lui	v0,0xa081
a0806b28:	8c43d940 	lw	v1,-9920(v0)
a0806b2c:	3c02a084 	lui	v0,0xa084
a0806b30:	24446be8 	addiu	a0,v0,27624
a0806b34:	00602821 	move	a1,v1
a0806b38:	0c2014ef 	jal	a08053bc <mutex_lock_release>
a0806b3c:	00000000 	nop
a0806b40:	8fc40010 	lw	a0,16(s8)
a0806b44:	00801021 	move	v0,a0
a0806b48:	00021900 	sll	v1,v0,0x4
a0806b4c:	00031080 	sll	v0,v1,0x2
a0806b50:	00431023 	subu	v0,v0,v1
a0806b54:	00441023 	subu	v0,v0,a0
a0806b58:	00021080 	sll	v0,v0,0x2
a0806b5c:	00401821 	move	v1,v0
a0806b60:	3c02a081 	lui	v0,0xa081
a0806b64:	2442f390 	addiu	v0,v0,-3184
a0806b68:	00621021 	addu	v0,v1,v0
a0806b6c:	afc20018 	sw	v0,24(s8)
a0806b70:	08201b3f 	j	a0806cfc <mbox_open+0x2a0>
a0806b74:	00000000 	nop
a0806b78:	8fc20010 	lw	v0,16(s8)
a0806b7c:	24420001 	addiu	v0,v0,1
a0806b80:	afc20010 	sw	v0,16(s8)
a0806b84:	8fc20010 	lw	v0,16(s8)
a0806b88:	28420010 	slti	v0,v0,16
a0806b8c:	1440ffbf 	bnez	v0,a0806a8c <mbox_open+0x30>
a0806b90:	00000000 	nop
a0806b94:	afc00010 	sw	zero,16(s8)
a0806b98:	08201af8 	j	a0806be0 <mbox_open+0x184>
a0806b9c:	00000000 	nop
a0806ba0:	8fc40010 	lw	a0,16(s8)
a0806ba4:	3c05a081 	lui	a1,0xa081
a0806ba8:	00801021 	move	v0,a0
a0806bac:	00021900 	sll	v1,v0,0x4
a0806bb0:	00031080 	sll	v0,v1,0x2
a0806bb4:	00431023 	subu	v0,v0,v1
a0806bb8:	00441023 	subu	v0,v0,a0
a0806bbc:	00021880 	sll	v1,v0,0x2
a0806bc0:	24a2f390 	addiu	v0,a1,-3184
a0806bc4:	00621021 	addu	v0,v1,v0
a0806bc8:	8c420048 	lw	v0,72(v0)
a0806bcc:	10400008 	beqz	v0,a0806bf0 <mbox_open+0x194>
a0806bd0:	00000000 	nop
a0806bd4:	8fc20010 	lw	v0,16(s8)
a0806bd8:	24420001 	addiu	v0,v0,1
a0806bdc:	afc20010 	sw	v0,16(s8)
a0806be0:	8fc20010 	lw	v0,16(s8)
a0806be4:	28420010 	slti	v0,v0,16
a0806be8:	1440ffed 	bnez	v0,a0806ba0 <mbox_open+0x144>
a0806bec:	00000000 	nop
a0806bf0:	8fc20010 	lw	v0,16(s8)
a0806bf4:	28420010 	slti	v0,v0,16
a0806bf8:	1040003a 	beqz	v0,a0806ce4 <mbox_open+0x288>
a0806bfc:	00000000 	nop
a0806c00:	8fc40010 	lw	a0,16(s8)
a0806c04:	3c05a081 	lui	a1,0xa081
a0806c08:	00801021 	move	v0,a0
a0806c0c:	00021900 	sll	v1,v0,0x4
a0806c10:	00031080 	sll	v0,v1,0x2
a0806c14:	00431023 	subu	v0,v0,v1
a0806c18:	00441023 	subu	v0,v0,a0
a0806c1c:	00021880 	sll	v1,v0,0x2
a0806c20:	24a2f390 	addiu	v0,a1,-3184
a0806c24:	00621021 	addu	v0,v1,v0
a0806c28:	8c420048 	lw	v0,72(v0)
a0806c2c:	24450001 	addiu	a1,v0,1
a0806c30:	3c06a081 	lui	a2,0xa081
a0806c34:	00801021 	move	v0,a0
a0806c38:	00021900 	sll	v1,v0,0x4
a0806c3c:	00031080 	sll	v0,v1,0x2
a0806c40:	00431023 	subu	v0,v0,v1
a0806c44:	00441023 	subu	v0,v0,a0
a0806c48:	00021880 	sll	v1,v0,0x2
a0806c4c:	24c2f390 	addiu	v0,a2,-3184
a0806c50:	00621021 	addu	v0,v1,v0
a0806c54:	ac450048 	sw	a1,72(v0)
a0806c58:	8fc40010 	lw	a0,16(s8)
a0806c5c:	00801021 	move	v0,a0
a0806c60:	00021900 	sll	v1,v0,0x4
a0806c64:	00031080 	sll	v0,v1,0x2
a0806c68:	00431023 	subu	v0,v0,v1
a0806c6c:	00441023 	subu	v0,v0,a0
a0806c70:	00021880 	sll	v1,v0,0x2
a0806c74:	3c02a081 	lui	v0,0xa081
a0806c78:	2442f390 	addiu	v0,v0,-3184
a0806c7c:	00621021 	addu	v0,v1,v0
a0806c80:	00402021 	move	a0,v0
a0806c84:	8fc50028 	lw	a1,40(s8)
a0806c88:	0c201762 	jal	a0805d88 <strcpy>
a0806c8c:	00000000 	nop
a0806c90:	3c02a081 	lui	v0,0xa081
a0806c94:	8c43d940 	lw	v1,-9920(v0)
a0806c98:	3c02a084 	lui	v0,0xa084
a0806c9c:	24446be8 	addiu	a0,v0,27624
a0806ca0:	00602821 	move	a1,v1
a0806ca4:	0c2014ef 	jal	a08053bc <mutex_lock_release>
a0806ca8:	00000000 	nop
a0806cac:	8fc40010 	lw	a0,16(s8)
a0806cb0:	00801021 	move	v0,a0
a0806cb4:	00021900 	sll	v1,v0,0x4
a0806cb8:	00031080 	sll	v0,v1,0x2
a0806cbc:	00431023 	subu	v0,v0,v1
a0806cc0:	00441023 	subu	v0,v0,a0
a0806cc4:	00021080 	sll	v0,v0,0x2
a0806cc8:	00401821 	move	v1,v0
a0806ccc:	3c02a081 	lui	v0,0xa081
a0806cd0:	2442f390 	addiu	v0,v0,-3184
a0806cd4:	00621021 	addu	v0,v1,v0
a0806cd8:	afc20018 	sw	v0,24(s8)
a0806cdc:	08201b3f 	j	a0806cfc <mbox_open+0x2a0>
a0806ce0:	00000000 	nop
a0806ce4:	3c02a081 	lui	v0,0xa081
a0806ce8:	2444cfb0 	addiu	a0,v0,-12368
a0806cec:	0c2019a3 	jal	a080668c <printf>
a0806cf0:	00000000 	nop
a0806cf4:	08201b3d 	j	a0806cf4 <mbox_open+0x298>
a0806cf8:	00000000 	nop
a0806cfc:	8fc20018 	lw	v0,24(s8)
a0806d00:	03c0e821 	move	sp,s8
a0806d04:	8fbf0024 	lw	ra,36(sp)
a0806d08:	8fbe0020 	lw	s8,32(sp)
a0806d0c:	27bd0028 	addiu	sp,sp,40
a0806d10:	03e00008 	jr	ra
a0806d14:	00000000 	nop

a0806d18 <mbox_close>:
a0806d18:	27bdffe8 	addiu	sp,sp,-24
a0806d1c:	afbf0014 	sw	ra,20(sp)
a0806d20:	afbe0010 	sw	s8,16(sp)
a0806d24:	03a0f021 	move	s8,sp
a0806d28:	afc40018 	sw	a0,24(s8)
a0806d2c:	3c02a084 	lui	v0,0xa084
a0806d30:	24446be8 	addiu	a0,v0,27624
a0806d34:	0c2014dd 	jal	a0805374 <mutex_lock_acquire>
a0806d38:	00000000 	nop
a0806d3c:	8fc20018 	lw	v0,24(s8)
a0806d40:	8c420048 	lw	v0,72(v0)
a0806d44:	2443ffff 	addiu	v1,v0,-1
a0806d48:	8fc20018 	lw	v0,24(s8)
a0806d4c:	ac430048 	sw	v1,72(v0)
a0806d50:	8fc20018 	lw	v0,24(s8)
a0806d54:	8c420048 	lw	v0,72(v0)
a0806d58:	14400004 	bnez	v0,a0806d6c <mbox_close+0x54>
a0806d5c:	00000000 	nop
a0806d60:	8fc40018 	lw	a0,24(s8)
a0806d64:	0c201a60 	jal	a0806980 <release_mailbox>
a0806d68:	00000000 	nop
a0806d6c:	3c02a081 	lui	v0,0xa081
a0806d70:	8c43d940 	lw	v1,-9920(v0)
a0806d74:	3c02a084 	lui	v0,0xa084
a0806d78:	24446be8 	addiu	a0,v0,27624
a0806d7c:	00602821 	move	a1,v1
a0806d80:	0c2014ef 	jal	a08053bc <mutex_lock_release>
a0806d84:	00000000 	nop
a0806d88:	03c0e821 	move	sp,s8
a0806d8c:	8fbf0014 	lw	ra,20(sp)
a0806d90:	8fbe0010 	lw	s8,16(sp)
a0806d94:	27bd0018 	addiu	sp,sp,24
a0806d98:	03e00008 	jr	ra
a0806d9c:	00000000 	nop

a0806da0 <mbox_send>:
a0806da0:	27bdffd0 	addiu	sp,sp,-48
a0806da4:	afbf002c 	sw	ra,44(sp)
a0806da8:	afbe0028 	sw	s8,40(sp)
a0806dac:	03a0f021 	move	s8,sp
a0806db0:	afc40030 	sw	a0,48(s8)
a0806db4:	afc50034 	sw	a1,52(s8)
a0806db8:	afc60038 	sw	a2,56(s8)
a0806dbc:	8fc20034 	lw	v0,52(s8)
a0806dc0:	afc20010 	sw	v0,16(s8)
a0806dc4:	8fc20030 	lw	v0,48(s8)
a0806dc8:	8c420044 	lw	v0,68(v0)
a0806dcc:	00402021 	move	a0,v0
a0806dd0:	0c2014dd 	jal	a0805374 <mutex_lock_acquire>
a0806dd4:	00000000 	nop
a0806dd8:	8fc20030 	lw	v0,48(s8)
a0806ddc:	8c4300b4 	lw	v1,180(v0)
a0806de0:	8fc20030 	lw	v0,48(s8)
a0806de4:	8c4200b0 	lw	v0,176(v0)
a0806de8:	00621023 	subu	v0,v1,v0
a0806dec:	24440064 	addiu	a0,v0,100
a0806df0:	3c0251eb 	lui	v0,0x51eb
a0806df4:	3442851f 	ori	v0,v0,0x851f
a0806df8:	00820018 	mult	a0,v0
a0806dfc:	00001010 	mfhi	v0
a0806e00:	00021943 	sra	v1,v0,0x5
a0806e04:	000417c3 	sra	v0,a0,0x1f
a0806e08:	00621023 	subu	v0,v1,v0
a0806e0c:	00021080 	sll	v0,v0,0x2
a0806e10:	00021880 	sll	v1,v0,0x2
a0806e14:	00431021 	addu	v0,v0,v1
a0806e18:	00021880 	sll	v1,v0,0x2
a0806e1c:	00431021 	addu	v0,v0,v1
a0806e20:	00821023 	subu	v0,a0,v0
a0806e24:	afc2001c 	sw	v0,28(s8)
a0806e28:	8fc20030 	lw	v0,48(s8)
a0806e2c:	8c4200b8 	lw	v0,184(v0)
a0806e30:	10400007 	beqz	v0,a0806e50 <mbox_send+0xb0>
a0806e34:	00000000 	nop
a0806e38:	24030064 	li	v1,100
a0806e3c:	8fc2001c 	lw	v0,28(s8)
a0806e40:	00621023 	subu	v0,v1,v0
a0806e44:	afc20024 	sw	v0,36(s8)
a0806e48:	08201b96 	j	a0806e58 <mbox_send+0xb8>
a0806e4c:	00000000 	nop
a0806e50:	24020064 	li	v0,100
a0806e54:	afc20024 	sw	v0,36(s8)
a0806e58:	8fc30024 	lw	v1,36(s8)
a0806e5c:	afc30018 	sw	v1,24(s8)
a0806e60:	08201ba2 	j	a0806e88 <mbox_send+0xe8>
a0806e64:	00000000 	nop
a0806e68:	8fc20030 	lw	v0,48(s8)
a0806e6c:	8c430044 	lw	v1,68(v0)
a0806e70:	8fc20030 	lw	v0,48(s8)
a0806e74:	24420034 	addiu	v0,v0,52
a0806e78:	00602021 	move	a0,v1
a0806e7c:	00402821 	move	a1,v0
a0806e80:	0c201418 	jal	a0805060 <condition_wait>
a0806e84:	00000000 	nop
a0806e88:	8fc20018 	lw	v0,24(s8)
a0806e8c:	8fc30038 	lw	v1,56(s8)
a0806e90:	0062102a 	slt	v0,v1,v0
a0806e94:	1040fff4 	beqz	v0,a0806e68 <mbox_send+0xc8>
a0806e98:	00000000 	nop
a0806e9c:	afc00014 	sw	zero,20(s8)
a0806ea0:	08201bcd 	j	a0806f34 <mbox_send+0x194>
a0806ea4:	00000000 	nop
a0806ea8:	8fc20030 	lw	v0,48(s8)
a0806eac:	8c4400b4 	lw	a0,180(v0)
a0806eb0:	8fc20010 	lw	v0,16(s8)
a0806eb4:	80430000 	lb	v1,0(v0)
a0806eb8:	8fc20030 	lw	v0,48(s8)
a0806ebc:	00441021 	addu	v0,v0,a0
a0806ec0:	a043004c 	sb	v1,76(v0)
a0806ec4:	8fc20010 	lw	v0,16(s8)
a0806ec8:	24420001 	addiu	v0,v0,1
a0806ecc:	afc20010 	sw	v0,16(s8)
a0806ed0:	8fc20030 	lw	v0,48(s8)
a0806ed4:	8c4200b4 	lw	v0,180(v0)
a0806ed8:	24440001 	addiu	a0,v0,1
a0806edc:	3c0251eb 	lui	v0,0x51eb
a0806ee0:	3442851f 	ori	v0,v0,0x851f
a0806ee4:	00820018 	mult	a0,v0
a0806ee8:	00001010 	mfhi	v0
a0806eec:	00021943 	sra	v1,v0,0x5
a0806ef0:	000417c3 	sra	v0,a0,0x1f
a0806ef4:	00621023 	subu	v0,v1,v0
a0806ef8:	afc20020 	sw	v0,32(s8)
a0806efc:	8fc20020 	lw	v0,32(s8)
a0806f00:	00021080 	sll	v0,v0,0x2
a0806f04:	00021880 	sll	v1,v0,0x2
a0806f08:	00431021 	addu	v0,v0,v1
a0806f0c:	00021880 	sll	v1,v0,0x2
a0806f10:	00431021 	addu	v0,v0,v1
a0806f14:	00821023 	subu	v0,a0,v0
a0806f18:	afc20020 	sw	v0,32(s8)
a0806f1c:	8fc20030 	lw	v0,48(s8)
a0806f20:	8fc30020 	lw	v1,32(s8)
a0806f24:	ac4300b4 	sw	v1,180(v0)
a0806f28:	8fc20014 	lw	v0,20(s8)
a0806f2c:	24420001 	addiu	v0,v0,1
a0806f30:	afc20014 	sw	v0,20(s8)
a0806f34:	8fc20014 	lw	v0,20(s8)
a0806f38:	8fc30038 	lw	v1,56(s8)
a0806f3c:	0043102a 	slt	v0,v0,v1
a0806f40:	1440ffd9 	bnez	v0,a0806ea8 <mbox_send+0x108>
a0806f44:	00000000 	nop
a0806f48:	8fc20030 	lw	v0,48(s8)
a0806f4c:	8c4200b8 	lw	v0,184(v0)
a0806f50:	24430001 	addiu	v1,v0,1
a0806f54:	8fc20030 	lw	v0,48(s8)
a0806f58:	ac4300b8 	sw	v1,184(v0)
a0806f5c:	8fc20030 	lw	v0,48(s8)
a0806f60:	2442003c 	addiu	v0,v0,60
a0806f64:	00402021 	move	a0,v0
a0806f68:	0c20143e 	jal	a08050f8 <condition_broadcast>
a0806f6c:	00000000 	nop
a0806f70:	8fc20030 	lw	v0,48(s8)
a0806f74:	8c430044 	lw	v1,68(v0)
a0806f78:	3c02a081 	lui	v0,0xa081
a0806f7c:	8c42d940 	lw	v0,-9920(v0)
a0806f80:	00602021 	move	a0,v1
a0806f84:	00402821 	move	a1,v0
a0806f88:	0c2014ef 	jal	a08053bc <mutex_lock_release>
a0806f8c:	00000000 	nop
a0806f90:	03c0e821 	move	sp,s8
a0806f94:	8fbf002c 	lw	ra,44(sp)
a0806f98:	8fbe0028 	lw	s8,40(sp)
a0806f9c:	27bd0030 	addiu	sp,sp,48
a0806fa0:	03e00008 	jr	ra
a0806fa4:	00000000 	nop

a0806fa8 <mbox_recv>:
a0806fa8:	27bdffd0 	addiu	sp,sp,-48
a0806fac:	afbf002c 	sw	ra,44(sp)
a0806fb0:	afbe0028 	sw	s8,40(sp)
a0806fb4:	03a0f021 	move	s8,sp
a0806fb8:	afc40030 	sw	a0,48(s8)
a0806fbc:	afc50034 	sw	a1,52(s8)
a0806fc0:	afc60038 	sw	a2,56(s8)
a0806fc4:	8fc20034 	lw	v0,52(s8)
a0806fc8:	afc20010 	sw	v0,16(s8)
a0806fcc:	8fc20030 	lw	v0,48(s8)
a0806fd0:	8c420044 	lw	v0,68(v0)
a0806fd4:	00402021 	move	a0,v0
a0806fd8:	0c2014dd 	jal	a0805374 <mutex_lock_acquire>
a0806fdc:	00000000 	nop
a0806fe0:	8fc20030 	lw	v0,48(s8)
a0806fe4:	8c4300b4 	lw	v1,180(v0)
a0806fe8:	8fc20030 	lw	v0,48(s8)
a0806fec:	8c4200b0 	lw	v0,176(v0)
a0806ff0:	00621023 	subu	v0,v1,v0
a0806ff4:	24440064 	addiu	a0,v0,100
a0806ff8:	3c0251eb 	lui	v0,0x51eb
a0806ffc:	3442851f 	ori	v0,v0,0x851f
a0807000:	00820018 	mult	a0,v0
a0807004:	00001010 	mfhi	v0
a0807008:	00021943 	sra	v1,v0,0x5
a080700c:	000417c3 	sra	v0,a0,0x1f
a0807010:	00621023 	subu	v0,v1,v0
a0807014:	00021080 	sll	v0,v0,0x2
a0807018:	00021880 	sll	v1,v0,0x2
a080701c:	00431021 	addu	v0,v0,v1
a0807020:	00021880 	sll	v1,v0,0x2
a0807024:	00431021 	addu	v0,v0,v1
a0807028:	00821023 	subu	v0,a0,v0
a080702c:	afc2001c 	sw	v0,28(s8)
a0807030:	8fc20030 	lw	v0,48(s8)
a0807034:	8c4200b8 	lw	v0,184(v0)
a0807038:	10400007 	beqz	v0,a0807058 <mbox_recv+0xb0>
a080703c:	00000000 	nop
a0807040:	24030064 	li	v1,100
a0807044:	8fc2001c 	lw	v0,28(s8)
a0807048:	00621023 	subu	v0,v1,v0
a080704c:	afc20024 	sw	v0,36(s8)
a0807050:	08201c18 	j	a0807060 <mbox_recv+0xb8>
a0807054:	00000000 	nop
a0807058:	24020064 	li	v0,100
a080705c:	afc20024 	sw	v0,36(s8)
a0807060:	8fc30024 	lw	v1,36(s8)
a0807064:	afc30018 	sw	v1,24(s8)
a0807068:	08201c24 	j	a0807090 <mbox_recv+0xe8>
a080706c:	00000000 	nop
a0807070:	8fc20030 	lw	v0,48(s8)
a0807074:	8c430044 	lw	v1,68(v0)
a0807078:	8fc20030 	lw	v0,48(s8)
a080707c:	2442003c 	addiu	v0,v0,60
a0807080:	00602021 	move	a0,v1
a0807084:	00402821 	move	a1,v0
a0807088:	0c201418 	jal	a0805060 <condition_wait>
a080708c:	00000000 	nop
a0807090:	8fc20030 	lw	v0,48(s8)
a0807094:	8c4200b8 	lw	v0,184(v0)
a0807098:	1040fff5 	beqz	v0,a0807070 <mbox_recv+0xc8>
a080709c:	00000000 	nop
a08070a0:	afc00014 	sw	zero,20(s8)
a08070a4:	08201c4e 	j	a0807138 <mbox_recv+0x190>
a08070a8:	00000000 	nop
a08070ac:	8fc20030 	lw	v0,48(s8)
a08070b0:	8c4300b0 	lw	v1,176(v0)
a08070b4:	8fc20030 	lw	v0,48(s8)
a08070b8:	00431021 	addu	v0,v0,v1
a08070bc:	8043004c 	lb	v1,76(v0)
a08070c0:	8fc20010 	lw	v0,16(s8)
a08070c4:	a0430000 	sb	v1,0(v0)
a08070c8:	8fc20010 	lw	v0,16(s8)
a08070cc:	24420001 	addiu	v0,v0,1
a08070d0:	afc20010 	sw	v0,16(s8)
a08070d4:	8fc20030 	lw	v0,48(s8)
a08070d8:	8c4200b0 	lw	v0,176(v0)
a08070dc:	24440001 	addiu	a0,v0,1
a08070e0:	3c0251eb 	lui	v0,0x51eb
a08070e4:	3442851f 	ori	v0,v0,0x851f
a08070e8:	00820018 	mult	a0,v0
a08070ec:	00001010 	mfhi	v0
a08070f0:	00021943 	sra	v1,v0,0x5
a08070f4:	000417c3 	sra	v0,a0,0x1f
a08070f8:	00621023 	subu	v0,v1,v0
a08070fc:	afc20020 	sw	v0,32(s8)
a0807100:	8fc20020 	lw	v0,32(s8)
a0807104:	00021080 	sll	v0,v0,0x2
a0807108:	00021880 	sll	v1,v0,0x2
a080710c:	00431021 	addu	v0,v0,v1
a0807110:	00021880 	sll	v1,v0,0x2
a0807114:	00431021 	addu	v0,v0,v1
a0807118:	00821023 	subu	v0,a0,v0
a080711c:	afc20020 	sw	v0,32(s8)
a0807120:	8fc20030 	lw	v0,48(s8)
a0807124:	8fc30020 	lw	v1,32(s8)
a0807128:	ac4300b0 	sw	v1,176(v0)
a080712c:	8fc20014 	lw	v0,20(s8)
a0807130:	24420001 	addiu	v0,v0,1
a0807134:	afc20014 	sw	v0,20(s8)
a0807138:	8fc20014 	lw	v0,20(s8)
a080713c:	8fc30038 	lw	v1,56(s8)
a0807140:	0043102a 	slt	v0,v0,v1
a0807144:	1440ffd9 	bnez	v0,a08070ac <mbox_recv+0x104>
a0807148:	00000000 	nop
a080714c:	8fc20030 	lw	v0,48(s8)
a0807150:	8c4200b8 	lw	v0,184(v0)
a0807154:	2443ffff 	addiu	v1,v0,-1
a0807158:	8fc20030 	lw	v0,48(s8)
a080715c:	ac4300b8 	sw	v1,184(v0)
a0807160:	8fc20030 	lw	v0,48(s8)
a0807164:	24420034 	addiu	v0,v0,52
a0807168:	00402021 	move	a0,v0
a080716c:	0c20143e 	jal	a08050f8 <condition_broadcast>
a0807170:	00000000 	nop
a0807174:	8fc20030 	lw	v0,48(s8)
a0807178:	8c430044 	lw	v1,68(v0)
a080717c:	3c02a081 	lui	v0,0xa081
a0807180:	8c42d940 	lw	v0,-9920(v0)
a0807184:	00602021 	move	a0,v1
a0807188:	00402821 	move	a1,v0
a080718c:	0c2014ef 	jal	a08053bc <mutex_lock_release>
a0807190:	00000000 	nop
a0807194:	03c0e821 	move	sp,s8
a0807198:	8fbf002c 	lw	ra,44(sp)
a080719c:	8fbe0028 	lw	s8,40(sp)
a08071a0:	27bd0030 	addiu	sp,sp,48
a08071a4:	03e00008 	jr	ra
a08071a8:	00000000 	nop
a08071ac:	00000000 	nop

a08071b0 <disable_interrupt>:
a08071b0:	27bdffe0 	addiu	sp,sp,-32
a08071b4:	afbf001c 	sw	ra,28(sp)
a08071b8:	afbe0018 	sw	s8,24(sp)
a08071bc:	03a0f021 	move	s8,sp
a08071c0:	0c2000b9 	jal	a08002e4 <get_cp0_status>
a08071c4:	00000000 	nop
a08071c8:	afc20010 	sw	v0,16(s8)
a08071cc:	8fc30010 	lw	v1,16(s8)
a08071d0:	2402fffe 	li	v0,-2
a08071d4:	00621024 	and	v0,v1,v0
a08071d8:	afc20010 	sw	v0,16(s8)
a08071dc:	8fc40010 	lw	a0,16(s8)
a08071e0:	0c2000ce 	jal	a0800338 <set_cp0_status>
a08071e4:	00000000 	nop
a08071e8:	03c0e821 	move	sp,s8
a08071ec:	8fbf001c 	lw	ra,28(sp)
a08071f0:	8fbe0018 	lw	s8,24(sp)
a08071f4:	27bd0020 	addiu	sp,sp,32
a08071f8:	03e00008 	jr	ra
a08071fc:	00000000 	nop

a0807200 <enable_interrupt>:
a0807200:	27bdffe0 	addiu	sp,sp,-32
a0807204:	afbf001c 	sw	ra,28(sp)
a0807208:	afbe0018 	sw	s8,24(sp)
a080720c:	03a0f021 	move	s8,sp
a0807210:	0c2000b9 	jal	a08002e4 <get_cp0_status>
a0807214:	00000000 	nop
a0807218:	afc20010 	sw	v0,16(s8)
a080721c:	8fc20010 	lw	v0,16(s8)
a0807220:	34420001 	ori	v0,v0,0x1
a0807224:	afc20010 	sw	v0,16(s8)
a0807228:	8fc40010 	lw	a0,16(s8)
a080722c:	0c2000ce 	jal	a0800338 <set_cp0_status>
a0807230:	00000000 	nop
a0807234:	03c0e821 	move	sp,s8
a0807238:	8fbf001c 	lw	ra,28(sp)
a080723c:	8fbe0018 	lw	s8,24(sp)
a0807240:	27bd0020 	addiu	sp,sp,32
a0807244:	03e00008 	jr	ra
a0807248:	00000000 	nop

a080724c <read_uart_ch>:
a080724c:	27bdffe8 	addiu	sp,sp,-24
a0807250:	afbe0014 	sw	s8,20(sp)
a0807254:	03a0f021 	move	s8,sp
a0807258:	a3c00008 	sb	zero,8(s8)
a080725c:	3c02bfe4 	lui	v0,0xbfe4
a0807260:	34428000 	ori	v0,v0,0x8000
a0807264:	afc20004 	sw	v0,4(s8)
a0807268:	3c02bfe4 	lui	v0,0xbfe4
a080726c:	34428005 	ori	v0,v0,0x8005
a0807270:	afc20000 	sw	v0,0(s8)
a0807274:	08201ca2 	j	a0807288 <read_uart_ch+0x3c>
a0807278:	00000000 	nop
a080727c:	8fc20004 	lw	v0,4(s8)
a0807280:	90420000 	lbu	v0,0(v0)
a0807284:	a3c20008 	sb	v0,8(s8)
a0807288:	8fc20000 	lw	v0,0(s8)
a080728c:	90420000 	lbu	v0,0(v0)
a0807290:	30420001 	andi	v0,v0,0x1
a0807294:	304200ff 	andi	v0,v0,0xff
a0807298:	1440fff8 	bnez	v0,a080727c <read_uart_ch+0x30>
a080729c:	00000000 	nop
a08072a0:	83c20008 	lb	v0,8(s8)
a08072a4:	03c0e821 	move	sp,s8
a08072a8:	8fbe0014 	lw	s8,20(sp)
a08072ac:	27bd0018 	addiu	sp,sp,24
a08072b0:	03e00008 	jr	ra
a08072b4:	00000000 	nop

a08072b8 <reset_filename>:
a08072b8:	27bdfff0 	addiu	sp,sp,-16
a08072bc:	afbe000c 	sw	s8,12(sp)
a08072c0:	03a0f021 	move	s8,sp
a08072c4:	afc00000 	sw	zero,0(s8)
a08072c8:	08201cbc 	j	a08072f0 <reset_filename+0x38>
a08072cc:	00000000 	nop
a08072d0:	8fc30000 	lw	v1,0(s8)
a08072d4:	3c02a084 	lui	v0,0xa084
a08072d8:	24426c7c 	addiu	v0,v0,27772
a08072dc:	00621021 	addu	v0,v1,v0
a08072e0:	a0400000 	sb	zero,0(v0)
a08072e4:	8fc20000 	lw	v0,0(s8)
a08072e8:	24420001 	addiu	v0,v0,1
a08072ec:	afc20000 	sw	v0,0(s8)
a08072f0:	8fc20000 	lw	v0,0(s8)
a08072f4:	28420038 	slti	v0,v0,56
a08072f8:	1440fff5 	bnez	v0,a08072d0 <reset_filename+0x18>
a08072fc:	00000000 	nop
a0807300:	03c0e821 	move	sp,s8
a0807304:	8fbe000c 	lw	s8,12(sp)
a0807308:	27bd0010 	addiu	sp,sp,16
a080730c:	03e00008 	jr	ra
a0807310:	00000000 	nop

a0807314 <get_filename>:
a0807314:	27bdffe8 	addiu	sp,sp,-24
a0807318:	afbe0014 	sw	s8,20(sp)
a080731c:	03a0f021 	move	s8,sp
a0807320:	afc40018 	sw	a0,24(s8)
a0807324:	8fc30018 	lw	v1,24(s8)
a0807328:	3c02a084 	lui	v0,0xa084
a080732c:	24426cb4 	addiu	v0,v0,27828
a0807330:	00621021 	addu	v0,v1,v0
a0807334:	80430000 	lb	v1,0(v0)
a0807338:	2402000a 	li	v0,10
a080733c:	10620010 	beq	v1,v0,a0807380 <get_filename+0x6c>
a0807340:	00000000 	nop
a0807344:	8fc30018 	lw	v1,24(s8)
a0807348:	3c02a084 	lui	v0,0xa084
a080734c:	24426cb4 	addiu	v0,v0,27828
a0807350:	00621021 	addu	v0,v1,v0
a0807354:	80430000 	lb	v1,0(v0)
a0807358:	2402000d 	li	v0,13
a080735c:	10620008 	beq	v1,v0,a0807380 <get_filename+0x6c>
a0807360:	00000000 	nop
a0807364:	8fc30018 	lw	v1,24(s8)
a0807368:	3c02a084 	lui	v0,0xa084
a080736c:	24426cb4 	addiu	v0,v0,27828
a0807370:	00621021 	addu	v0,v1,v0
a0807374:	80420000 	lb	v0,0(v0)
a0807378:	14400005 	bnez	v0,a0807390 <get_filename+0x7c>
a080737c:	00000000 	nop
a0807380:	2402ffff 	li	v0,-1
a0807384:	afc20008 	sw	v0,8(s8)
a0807388:	08201d1a 	j	a0807468 <get_filename+0x154>
a080738c:	00000000 	nop
a0807390:	8fc20018 	lw	v0,24(s8)
a0807394:	afc20004 	sw	v0,4(s8)
a0807398:	afc00000 	sw	zero,0(s8)
a080739c:	08201cf9 	j	a08073e4 <get_filename+0xd0>
a08073a0:	00000000 	nop
a08073a4:	8fc40000 	lw	a0,0(s8)
a08073a8:	8fc30004 	lw	v1,4(s8)
a08073ac:	3c02a084 	lui	v0,0xa084
a08073b0:	24426cb4 	addiu	v0,v0,27828
a08073b4:	00621021 	addu	v0,v1,v0
a08073b8:	80430000 	lb	v1,0(v0)
a08073bc:	3c02a084 	lui	v0,0xa084
a08073c0:	24426c7c 	addiu	v0,v0,27772
a08073c4:	00821021 	addu	v0,a0,v0
a08073c8:	a0430000 	sb	v1,0(v0)
a08073cc:	8fc20004 	lw	v0,4(s8)
a08073d0:	24420001 	addiu	v0,v0,1
a08073d4:	afc20004 	sw	v0,4(s8)
a08073d8:	8fc20000 	lw	v0,0(s8)
a08073dc:	24420001 	addiu	v0,v0,1
a08073e0:	afc20000 	sw	v0,0(s8)
a08073e4:	8fc30018 	lw	v1,24(s8)
a08073e8:	3c02a084 	lui	v0,0xa084
a08073ec:	24426cb4 	addiu	v0,v0,27828
a08073f0:	00621021 	addu	v0,v1,v0
a08073f4:	80430000 	lb	v1,0(v0)
a08073f8:	2402000a 	li	v0,10
a08073fc:	10620014 	beq	v1,v0,a0807450 <get_filename+0x13c>
a0807400:	00000000 	nop
a0807404:	8fc30018 	lw	v1,24(s8)
a0807408:	3c02a084 	lui	v0,0xa084
a080740c:	24426cb4 	addiu	v0,v0,27828
a0807410:	00621021 	addu	v0,v1,v0
a0807414:	80430000 	lb	v1,0(v0)
a0807418:	2402000d 	li	v0,13
a080741c:	1062000c 	beq	v1,v0,a0807450 <get_filename+0x13c>
a0807420:	00000000 	nop
a0807424:	8fc30018 	lw	v1,24(s8)
a0807428:	3c02a084 	lui	v0,0xa084
a080742c:	24426cb4 	addiu	v0,v0,27828
a0807430:	00621021 	addu	v0,v1,v0
a0807434:	80420000 	lb	v0,0(v0)
a0807438:	10400005 	beqz	v0,a0807450 <get_filename+0x13c>
a080743c:	00000000 	nop
a0807440:	8fc20000 	lw	v0,0(s8)
a0807444:	28420037 	slti	v0,v0,55
a0807448:	1440ffd6 	bnez	v0,a08073a4 <get_filename+0x90>
a080744c:	00000000 	nop
a0807450:	8fc30000 	lw	v1,0(s8)
a0807454:	3c02a084 	lui	v0,0xa084
a0807458:	24426c7c 	addiu	v0,v0,27772
a080745c:	00621021 	addu	v0,v1,v0
a0807460:	a0400000 	sb	zero,0(v0)
a0807464:	afc00008 	sw	zero,8(s8)
a0807468:	8fc20008 	lw	v0,8(s8)
a080746c:	03c0e821 	move	sp,s8
a0807470:	8fbe0014 	lw	s8,20(sp)
a0807474:	27bd0018 	addiu	sp,sp,24
a0807478:	03e00008 	jr	ra
a080747c:	00000000 	nop

a0807480 <my_ctoi>:
a0807480:	27bdffd8 	addiu	sp,sp,-40
a0807484:	afbf0024 	sw	ra,36(sp)
a0807488:	afbe0020 	sw	s8,32(sp)
a080748c:	03a0f021 	move	s8,sp
a0807490:	afc40028 	sw	a0,40(s8)
a0807494:	8fc20028 	lw	v0,40(s8)
a0807498:	80420000 	lb	v0,0(v0)
a080749c:	2442ffd0 	addiu	v0,v0,-48
a08074a0:	afc20018 	sw	v0,24(s8)
a08074a4:	8fc20028 	lw	v0,40(s8)
a08074a8:	24420001 	addiu	v0,v0,1
a08074ac:	80420000 	lb	v0,0(v0)
a08074b0:	2442ffd0 	addiu	v0,v0,-48
a08074b4:	afc20014 	sw	v0,20(s8)
a08074b8:	8fc20018 	lw	v0,24(s8)
a08074bc:	2842000a 	slti	v0,v0,10
a08074c0:	10400004 	beqz	v0,a08074d4 <my_ctoi+0x54>
a08074c4:	00000000 	nop
a08074c8:	8fc20018 	lw	v0,24(s8)
a08074cc:	04410007 	bgez	v0,a08074ec <my_ctoi+0x6c>
a08074d0:	00000000 	nop
a08074d4:	3c02a081 	lui	v0,0xa081
a08074d8:	2444cfe8 	addiu	a0,v0,-12312
a08074dc:	0c201981 	jal	a0806604 <printk>
a08074e0:	00000000 	nop
a08074e4:	08201d39 	j	a08074e4 <my_ctoi+0x64>
a08074e8:	00000000 	nop
a08074ec:	8fc20014 	lw	v0,20(s8)
a08074f0:	2842000a 	slti	v0,v0,10
a08074f4:	1040000d 	beqz	v0,a080752c <my_ctoi+0xac>
a08074f8:	00000000 	nop
a08074fc:	8fc20014 	lw	v0,20(s8)
a0807500:	0440000a 	bltz	v0,a080752c <my_ctoi+0xac>
a0807504:	00000000 	nop
a0807508:	8fc20018 	lw	v0,24(s8)
a080750c:	00021840 	sll	v1,v0,0x1
a0807510:	00031080 	sll	v0,v1,0x2
a0807514:	00621821 	addu	v1,v1,v0
a0807518:	8fc20014 	lw	v0,20(s8)
a080751c:	00621021 	addu	v0,v1,v0
a0807520:	afc20010 	sw	v0,16(s8)
a0807524:	08201d4d 	j	a0807534 <my_ctoi+0xb4>
a0807528:	00000000 	nop
a080752c:	8fc20018 	lw	v0,24(s8)
a0807530:	afc20010 	sw	v0,16(s8)
a0807534:	8fc20010 	lw	v0,16(s8)
a0807538:	03c0e821 	move	sp,s8
a080753c:	8fbf0024 	lw	ra,36(sp)
a0807540:	8fbe0020 	lw	s8,32(sp)
a0807544:	27bd0028 	addiu	sp,sp,40
a0807548:	03e00008 	jr	ra
a080754c:	00000000 	nop

a0807550 <my_ctoi_hex>:
a0807550:	27bdffe8 	addiu	sp,sp,-24
a0807554:	afbe0014 	sw	s8,20(sp)
a0807558:	03a0f021 	move	s8,sp
a080755c:	afc40018 	sw	a0,24(s8)
a0807560:	afc5001c 	sw	a1,28(s8)
a0807564:	afc00000 	sw	zero,0(s8)
a0807568:	08201d64 	j	a0807590 <my_ctoi_hex+0x40>
a080756c:	00000000 	nop
a0807570:	8fc20018 	lw	v0,24(s8)
a0807574:	24420001 	addiu	v0,v0,1
a0807578:	afc20018 	sw	v0,24(s8)
a080757c:	8fc2001c 	lw	v0,28(s8)
a0807580:	8c420000 	lw	v0,0(v0)
a0807584:	24430001 	addiu	v1,v0,1
a0807588:	8fc2001c 	lw	v0,28(s8)
a080758c:	ac430000 	sw	v1,0(v0)
a0807590:	8fc20018 	lw	v0,24(s8)
a0807594:	80430000 	lb	v1,0(v0)
a0807598:	24020020 	li	v0,32
a080759c:	1062fff4 	beq	v1,v0,a0807570 <my_ctoi_hex+0x20>
a08075a0:	00000000 	nop
a08075a4:	8fc20018 	lw	v0,24(s8)
a08075a8:	80430000 	lb	v1,0(v0)
a08075ac:	24020030 	li	v0,48
a08075b0:	14620011 	bne	v1,v0,a08075f8 <my_ctoi_hex+0xa8>
a08075b4:	00000000 	nop
a08075b8:	8fc20018 	lw	v0,24(s8)
a08075bc:	24420001 	addiu	v0,v0,1
a08075c0:	80430000 	lb	v1,0(v0)
a08075c4:	24020078 	li	v0,120
a08075c8:	1462000b 	bne	v1,v0,a08075f8 <my_ctoi_hex+0xa8>
a08075cc:	00000000 	nop
a08075d0:	8fc20018 	lw	v0,24(s8)
a08075d4:	24420002 	addiu	v0,v0,2
a08075d8:	afc20018 	sw	v0,24(s8)
a08075dc:	8fc2001c 	lw	v0,28(s8)
a08075e0:	8c420000 	lw	v0,0(v0)
a08075e4:	24430002 	addiu	v1,v0,2
a08075e8:	8fc2001c 	lw	v0,28(s8)
a08075ec:	ac430000 	sw	v1,0(v0)
a08075f0:	08201d91 	j	a0807644 <my_ctoi_hex+0xf4>
a08075f4:	00000000 	nop
a08075f8:	8fc20018 	lw	v0,24(s8)
a08075fc:	80430000 	lb	v1,0(v0)
a0807600:	24020030 	li	v0,48
a0807604:	1462000f 	bne	v1,v0,a0807644 <my_ctoi_hex+0xf4>
a0807608:	00000000 	nop
a080760c:	8fc20018 	lw	v0,24(s8)
a0807610:	24420001 	addiu	v0,v0,1
a0807614:	80430000 	lb	v1,0(v0)
a0807618:	24020058 	li	v0,88
a080761c:	14620009 	bne	v1,v0,a0807644 <my_ctoi_hex+0xf4>
a0807620:	00000000 	nop
a0807624:	8fc20018 	lw	v0,24(s8)
a0807628:	24420002 	addiu	v0,v0,2
a080762c:	afc20018 	sw	v0,24(s8)
a0807630:	8fc2001c 	lw	v0,28(s8)
a0807634:	8c420000 	lw	v0,0(v0)
a0807638:	24430002 	addiu	v1,v0,2
a080763c:	8fc2001c 	lw	v0,28(s8)
a0807640:	ac430000 	sw	v1,0(v0)
a0807644:	8fc20018 	lw	v0,24(s8)
a0807648:	80420000 	lb	v0,0(v0)
a080764c:	28420030 	slti	v0,v0,48
a0807650:	14400006 	bnez	v0,a080766c <my_ctoi_hex+0x11c>
a0807654:	00000000 	nop
a0807658:	8fc20018 	lw	v0,24(s8)
a080765c:	80420000 	lb	v0,0(v0)
a0807660:	2842003a 	slti	v0,v0,58
a0807664:	1440006b 	bnez	v0,a0807814 <my_ctoi_hex+0x2c4>
a0807668:	00000000 	nop
a080766c:	8fc20018 	lw	v0,24(s8)
a0807670:	80420000 	lb	v0,0(v0)
a0807674:	28420061 	slti	v0,v0,97
a0807678:	14400006 	bnez	v0,a0807694 <my_ctoi_hex+0x144>
a080767c:	00000000 	nop
a0807680:	8fc20018 	lw	v0,24(s8)
a0807684:	80420000 	lb	v0,0(v0)
a0807688:	28420067 	slti	v0,v0,103
a080768c:	14400061 	bnez	v0,a0807814 <my_ctoi_hex+0x2c4>
a0807690:	00000000 	nop
a0807694:	8fc20018 	lw	v0,24(s8)
a0807698:	80420000 	lb	v0,0(v0)
a080769c:	28420041 	slti	v0,v0,65
a08076a0:	14400006 	bnez	v0,a08076bc <my_ctoi_hex+0x16c>
a08076a4:	00000000 	nop
a08076a8:	8fc20018 	lw	v0,24(s8)
a08076ac:	80420000 	lb	v0,0(v0)
a08076b0:	28420047 	slti	v0,v0,71
a08076b4:	14400057 	bnez	v0,a0807814 <my_ctoi_hex+0x2c4>
a08076b8:	00000000 	nop
a08076bc:	3c02fff0 	lui	v0,0xfff0
a08076c0:	3442bdc1 	ori	v0,v0,0xbdc1
a08076c4:	afc20000 	sw	v0,0(s8)
a08076c8:	8fc20000 	lw	v0,0(s8)
a08076cc:	afc20008 	sw	v0,8(s8)
a08076d0:	08201e1a 	j	a0807868 <my_ctoi_hex+0x318>
a08076d4:	00000000 	nop
a08076d8:	8fc20018 	lw	v0,24(s8)
a08076dc:	80420000 	lb	v0,0(v0)
a08076e0:	28420030 	slti	v0,v0,48
a08076e4:	14400017 	bnez	v0,a0807744 <my_ctoi_hex+0x1f4>
a08076e8:	00000000 	nop
a08076ec:	8fc20018 	lw	v0,24(s8)
a08076f0:	80420000 	lb	v0,0(v0)
a08076f4:	2842003a 	slti	v0,v0,58
a08076f8:	10400012 	beqz	v0,a0807744 <my_ctoi_hex+0x1f4>
a08076fc:	00000000 	nop
a0807700:	8fc20000 	lw	v0,0(s8)
a0807704:	00021900 	sll	v1,v0,0x4
a0807708:	8fc20018 	lw	v0,24(s8)
a080770c:	80420000 	lb	v0,0(v0)
a0807710:	00621021 	addu	v0,v1,v0
a0807714:	2442ffd0 	addiu	v0,v0,-48
a0807718:	afc20000 	sw	v0,0(s8)
a080771c:	8fc20018 	lw	v0,24(s8)
a0807720:	24420001 	addiu	v0,v0,1
a0807724:	afc20018 	sw	v0,24(s8)
a0807728:	8fc2001c 	lw	v0,28(s8)
a080772c:	8c420000 	lw	v0,0(v0)
a0807730:	24430001 	addiu	v1,v0,1
a0807734:	8fc2001c 	lw	v0,28(s8)
a0807738:	ac430000 	sw	v1,0(v0)
a080773c:	08201e05 	j	a0807814 <my_ctoi_hex+0x2c4>
a0807740:	00000000 	nop
a0807744:	8fc20018 	lw	v0,24(s8)
a0807748:	80420000 	lb	v0,0(v0)
a080774c:	28420061 	slti	v0,v0,97
a0807750:	14400017 	bnez	v0,a08077b0 <my_ctoi_hex+0x260>
a0807754:	00000000 	nop
a0807758:	8fc20018 	lw	v0,24(s8)
a080775c:	80420000 	lb	v0,0(v0)
a0807760:	28420067 	slti	v0,v0,103
a0807764:	10400012 	beqz	v0,a08077b0 <my_ctoi_hex+0x260>
a0807768:	00000000 	nop
a080776c:	8fc20000 	lw	v0,0(s8)
a0807770:	00021900 	sll	v1,v0,0x4
a0807774:	8fc20018 	lw	v0,24(s8)
a0807778:	80420000 	lb	v0,0(v0)
a080777c:	00621021 	addu	v0,v1,v0
a0807780:	2442ffa9 	addiu	v0,v0,-87
a0807784:	afc20000 	sw	v0,0(s8)
a0807788:	8fc20018 	lw	v0,24(s8)
a080778c:	24420001 	addiu	v0,v0,1
a0807790:	afc20018 	sw	v0,24(s8)
a0807794:	8fc2001c 	lw	v0,28(s8)
a0807798:	8c420000 	lw	v0,0(v0)
a080779c:	24430001 	addiu	v1,v0,1
a08077a0:	8fc2001c 	lw	v0,28(s8)
a08077a4:	ac430000 	sw	v1,0(v0)
a08077a8:	08201e05 	j	a0807814 <my_ctoi_hex+0x2c4>
a08077ac:	00000000 	nop
a08077b0:	8fc20018 	lw	v0,24(s8)
a08077b4:	80420000 	lb	v0,0(v0)
a08077b8:	28420041 	slti	v0,v0,65
a08077bc:	14400015 	bnez	v0,a0807814 <my_ctoi_hex+0x2c4>
a08077c0:	00000000 	nop
a08077c4:	8fc20018 	lw	v0,24(s8)
a08077c8:	80420000 	lb	v0,0(v0)
a08077cc:	28420047 	slti	v0,v0,71
a08077d0:	10400010 	beqz	v0,a0807814 <my_ctoi_hex+0x2c4>
a08077d4:	00000000 	nop
a08077d8:	8fc20000 	lw	v0,0(s8)
a08077dc:	00021900 	sll	v1,v0,0x4
a08077e0:	8fc20018 	lw	v0,24(s8)
a08077e4:	80420000 	lb	v0,0(v0)
a08077e8:	00621021 	addu	v0,v1,v0
a08077ec:	2442ffc9 	addiu	v0,v0,-55
a08077f0:	afc20000 	sw	v0,0(s8)
a08077f4:	8fc20018 	lw	v0,24(s8)
a08077f8:	24420001 	addiu	v0,v0,1
a08077fc:	afc20018 	sw	v0,24(s8)
a0807800:	8fc2001c 	lw	v0,28(s8)
a0807804:	8c420000 	lw	v0,0(v0)
a0807808:	24430001 	addiu	v1,v0,1
a080780c:	8fc2001c 	lw	v0,28(s8)
a0807810:	ac430000 	sw	v1,0(v0)
a0807814:	8fc20018 	lw	v0,24(s8)
a0807818:	80420000 	lb	v0,0(v0)
a080781c:	10400010 	beqz	v0,a0807860 <my_ctoi_hex+0x310>
a0807820:	00000000 	nop
a0807824:	8fc20018 	lw	v0,24(s8)
a0807828:	80430000 	lb	v1,0(v0)
a080782c:	24020020 	li	v0,32
a0807830:	1062000b 	beq	v1,v0,a0807860 <my_ctoi_hex+0x310>
a0807834:	00000000 	nop
a0807838:	8fc20018 	lw	v0,24(s8)
a080783c:	80430000 	lb	v1,0(v0)
a0807840:	2402000d 	li	v0,13
a0807844:	10620006 	beq	v1,v0,a0807860 <my_ctoi_hex+0x310>
a0807848:	00000000 	nop
a080784c:	8fc20018 	lw	v0,24(s8)
a0807850:	80430000 	lb	v1,0(v0)
a0807854:	2402000a 	li	v0,10
a0807858:	1462ff9f 	bne	v1,v0,a08076d8 <my_ctoi_hex+0x188>
a080785c:	00000000 	nop
a0807860:	8fc20000 	lw	v0,0(s8)
a0807864:	afc20008 	sw	v0,8(s8)
a0807868:	8fc20008 	lw	v0,8(s8)
a080786c:	03c0e821 	move	sp,s8
a0807870:	8fbe0014 	lw	s8,20(sp)
a0807874:	27bd0018 	addiu	sp,sp,24
a0807878:	03e00008 	jr	ra
a080787c:	00000000 	nop

a0807880 <os_strcpy>:
a0807880:	27bdfff0 	addiu	sp,sp,-16
a0807884:	afbe000c 	sw	s8,12(sp)
a0807888:	03a0f021 	move	s8,sp
a080788c:	afc40010 	sw	a0,16(s8)
a0807890:	afc50014 	sw	a1,20(s8)
a0807894:	8fc20010 	lw	v0,16(s8)
a0807898:	afc20000 	sw	v0,0(s8)
a080789c:	08201e33 	j	a08078cc <os_strcpy+0x4c>
a08078a0:	00000000 	nop
a08078a4:	8fc20014 	lw	v0,20(s8)
a08078a8:	80430000 	lb	v1,0(v0)
a08078ac:	8fc20010 	lw	v0,16(s8)
a08078b0:	a0430000 	sb	v1,0(v0)
a08078b4:	8fc20010 	lw	v0,16(s8)
a08078b8:	24420001 	addiu	v0,v0,1
a08078bc:	afc20010 	sw	v0,16(s8)
a08078c0:	8fc20014 	lw	v0,20(s8)
a08078c4:	24420001 	addiu	v0,v0,1
a08078c8:	afc20014 	sw	v0,20(s8)
a08078cc:	8fc20014 	lw	v0,20(s8)
a08078d0:	80420000 	lb	v0,0(v0)
a08078d4:	1440fff3 	bnez	v0,a08078a4 <os_strcpy+0x24>
a08078d8:	00000000 	nop
a08078dc:	8fc20010 	lw	v0,16(s8)
a08078e0:	a0400000 	sb	zero,0(v0)
a08078e4:	8fc20010 	lw	v0,16(s8)
a08078e8:	03c0e821 	move	sp,s8
a08078ec:	8fbe000c 	lw	s8,12(sp)
a08078f0:	27bd0010 	addiu	sp,sp,16
a08078f4:	03e00008 	jr	ra
a08078f8:	00000000 	nop

a08078fc <do_cmd>:
a08078fc:	27bdffd0 	addiu	sp,sp,-48
a0807900:	afbf002c 	sw	ra,44(sp)
a0807904:	afbe0028 	sw	s8,40(sp)
a0807908:	afb00024 	sw	s0,36(sp)
a080790c:	03a0f021 	move	s8,sp
a0807910:	3c02a084 	lui	v0,0xa084
a0807914:	24446cb4 	addiu	a0,v0,27828
a0807918:	3c02a081 	lui	v0,0xa081
a080791c:	2445cff8 	addiu	a1,v0,-12296
a0807920:	24060003 	li	a2,3
a0807924:	0c20169a 	jal	a0805a68 <my_strncmp>
a0807928:	00000000 	nop
a080792c:	14400009 	bnez	v0,a0807954 <do_cmd+0x58>
a0807930:	00000000 	nop
a0807934:	3c02a081 	lui	v0,0xa081
a0807938:	2444cffc 	addiu	a0,v0,-12292
a080793c:	0c2019a3 	jal	a080668c <printf>
a0807940:	00000000 	nop
a0807944:	0c201343 	jal	a0804d0c <sys_process_show>
a0807948:	00000000 	nop
a080794c:	0820205b 	j	a080816c <do_cmd+0x870>
a0807950:	00000000 	nop
a0807954:	3c02a084 	lui	v0,0xa084
a0807958:	24446cb4 	addiu	a0,v0,27828
a080795c:	3c02a081 	lui	v0,0xa081
a0807960:	2445d000 	addiu	a1,v0,-12288
a0807964:	24060006 	li	a2,6
a0807968:	0c20169a 	jal	a0805a68 <my_strncmp>
a080796c:	00000000 	nop
a0807970:	1440000a 	bnez	v0,a080799c <do_cmd+0xa0>
a0807974:	00000000 	nop
a0807978:	2404000e 	li	a0,14
a080797c:	24050027 	li	a1,39
a0807980:	0c201484 	jal	a0805210 <sys_clear>
a0807984:	00000000 	nop
a0807988:	3c03a081 	lui	v1,0xa081
a080798c:	2402000d 	li	v0,13
a0807990:	ac62d94c 	sw	v0,-9908(v1)
a0807994:	0820205b 	j	a080816c <do_cmd+0x870>
a0807998:	00000000 	nop
a080799c:	3c02a084 	lui	v0,0xa084
a08079a0:	24446cb4 	addiu	a0,v0,27828
a08079a4:	3c02a081 	lui	v0,0xa081
a08079a8:	2445d008 	addiu	a1,v0,-12280
a08079ac:	24060004 	li	a2,4
a08079b0:	0c20169a 	jal	a0805a68 <my_strncmp>
a08079b4:	00000000 	nop
a08079b8:	1440008a 	bnez	v0,a0807be4 <do_cmd+0x2e8>
a08079bc:	00000000 	nop
a08079c0:	3c02a084 	lui	v0,0xa084
a08079c4:	24426cb4 	addiu	v0,v0,27828
a08079c8:	80420005 	lb	v0,5(v0)
a08079cc:	2442ffd0 	addiu	v0,v0,-48
a08079d0:	afc20018 	sw	v0,24(s8)
a08079d4:	8fc20018 	lw	v0,24(s8)
a08079d8:	2842000a 	slti	v0,v0,10
a08079dc:	10400004 	beqz	v0,a08079f0 <do_cmd+0xf4>
a08079e0:	00000000 	nop
a08079e4:	8fc20018 	lw	v0,24(s8)
a08079e8:	04410012 	bgez	v0,a0807a34 <do_cmd+0x138>
a08079ec:	00000000 	nop
a08079f0:	3c02a081 	lui	v0,0xa081
a08079f4:	8c42d94c 	lw	v0,-9908(v0)
a08079f8:	24430001 	addiu	v1,v0,1
a08079fc:	3c02a081 	lui	v0,0xa081
a0807a00:	ac43d94c 	sw	v1,-9908(v0)
a0807a04:	3c02a081 	lui	v0,0xa081
a0807a08:	8c42d94c 	lw	v0,-9908(v0)
a0807a0c:	24040001 	li	a0,1
a0807a10:	00402821 	move	a1,v0
a0807a14:	0c201472 	jal	a08051c8 <sys_move_cursor>
a0807a18:	00000000 	nop
a0807a1c:	3c02a081 	lui	v0,0xa081
a0807a20:	2444d010 	addiu	a0,v0,-12272
a0807a24:	0c2019a3 	jal	a080668c <printf>
a0807a28:	00000000 	nop
a0807a2c:	0820205b 	j	a080816c <do_cmd+0x870>
a0807a30:	00000000 	nop
a0807a34:	afc0001c 	sw	zero,28(s8)
a0807a38:	afc00014 	sw	zero,20(s8)
a0807a3c:	3c02a084 	lui	v0,0xa084
a0807a40:	24446cb9 	addiu	a0,v0,27833
a0807a44:	0c201d20 	jal	a0807480 <my_ctoi>
a0807a48:	00000000 	nop
a0807a4c:	afc20018 	sw	v0,24(s8)
a0807a50:	8fc20018 	lw	v0,24(s8)
a0807a54:	2842000a 	slti	v0,v0,10
a0807a58:	10400005 	beqz	v0,a0807a70 <do_cmd+0x174>
a0807a5c:	00000000 	nop
a0807a60:	24020007 	li	v0,7
a0807a64:	afc2001c 	sw	v0,28(s8)
a0807a68:	08201e9e 	j	a0807a78 <do_cmd+0x17c>
a0807a6c:	00000000 	nop
a0807a70:	24020008 	li	v0,8
a0807a74:	afc2001c 	sw	v0,28(s8)
a0807a78:	afc00014 	sw	zero,20(s8)
a0807a7c:	08201eaa 	j	a0807aa8 <do_cmd+0x1ac>
a0807a80:	00000000 	nop
a0807a84:	8fc20014 	lw	v0,20(s8)
a0807a88:	3c03a084 	lui	v1,0xa084
a0807a8c:	00022080 	sll	a0,v0,0x2
a0807a90:	24626c00 	addiu	v0,v1,27648
a0807a94:	00821021 	addu	v0,a0,v0
a0807a98:	ac400000 	sw	zero,0(v0)
a0807a9c:	8fc20014 	lw	v0,20(s8)
a0807aa0:	24420001 	addiu	v0,v0,1
a0807aa4:	afc20014 	sw	v0,20(s8)
a0807aa8:	8fc20014 	lw	v0,20(s8)
a0807aac:	28420006 	slti	v0,v0,6
a0807ab0:	1440fff4 	bnez	v0,a0807a84 <do_cmd+0x188>
a0807ab4:	00000000 	nop
a0807ab8:	afc00014 	sw	zero,20(s8)
a0807abc:	08201ec5 	j	a0807b14 <do_cmd+0x218>
a0807ac0:	00000000 	nop
a0807ac4:	8fd00014 	lw	s0,20(s8)
a0807ac8:	8fc2001c 	lw	v0,28(s8)
a0807acc:	00401821 	move	v1,v0
a0807ad0:	3c02a084 	lui	v0,0xa084
a0807ad4:	24426cb4 	addiu	v0,v0,27828
a0807ad8:	00621021 	addu	v0,v1,v0
a0807adc:	27c3001c 	addiu	v1,s8,28
a0807ae0:	00402021 	move	a0,v0
a0807ae4:	00602821 	move	a1,v1
a0807ae8:	0c201d54 	jal	a0807550 <my_ctoi_hex>
a0807aec:	00000000 	nop
a0807af0:	00402021 	move	a0,v0
a0807af4:	3c02a084 	lui	v0,0xa084
a0807af8:	00101880 	sll	v1,s0,0x2
a0807afc:	24426c00 	addiu	v0,v0,27648
a0807b00:	00621021 	addu	v0,v1,v0
a0807b04:	ac440000 	sw	a0,0(v0)
a0807b08:	8fc20014 	lw	v0,20(s8)
a0807b0c:	24420001 	addiu	v0,v0,1
a0807b10:	afc20014 	sw	v0,20(s8)
a0807b14:	8fc3001c 	lw	v1,28(s8)
a0807b18:	3c02a084 	lui	v0,0xa084
a0807b1c:	24426cb4 	addiu	v0,v0,27828
a0807b20:	00621021 	addu	v0,v1,v0
a0807b24:	80430000 	lb	v1,0(v0)
a0807b28:	2402000d 	li	v0,13
a0807b2c:	10620010 	beq	v1,v0,a0807b70 <do_cmd+0x274>
a0807b30:	00000000 	nop
a0807b34:	8fc3001c 	lw	v1,28(s8)
a0807b38:	3c02a084 	lui	v0,0xa084
a0807b3c:	24426cb4 	addiu	v0,v0,27828
a0807b40:	00621021 	addu	v0,v1,v0
a0807b44:	80420000 	lb	v0,0(v0)
a0807b48:	10400009 	beqz	v0,a0807b70 <do_cmd+0x274>
a0807b4c:	00000000 	nop
a0807b50:	8fc3001c 	lw	v1,28(s8)
a0807b54:	3c02a084 	lui	v0,0xa084
a0807b58:	24426cb4 	addiu	v0,v0,27828
a0807b5c:	00621021 	addu	v0,v1,v0
a0807b60:	80430000 	lb	v1,0(v0)
a0807b64:	2402000a 	li	v0,10
a0807b68:	1462ffd6 	bne	v1,v0,a0807ac4 <do_cmd+0x1c8>
a0807b6c:	00000000 	nop
a0807b70:	8fc20018 	lw	v0,24(s8)
a0807b74:	3c03a081 	lui	v1,0xa081
a0807b78:	00022080 	sll	a0,v0,0x2
a0807b7c:	2462d8ac 	addiu	v0,v1,-10068
a0807b80:	00821021 	addu	v0,a0,v0
a0807b84:	8c420000 	lw	v0,0(v0)
a0807b88:	00402021 	move	a0,v0
a0807b8c:	3c02a084 	lui	v0,0xa084
a0807b90:	24456c00 	addiu	a1,v0,27648
a0807b94:	0c201353 	jal	a0804d4c <sys_spawn>
a0807b98:	00000000 	nop
a0807b9c:	3c02a081 	lui	v0,0xa081
a0807ba0:	8c42d94c 	lw	v0,-9908(v0)
a0807ba4:	24430001 	addiu	v1,v0,1
a0807ba8:	3c02a081 	lui	v0,0xa081
a0807bac:	ac43d94c 	sw	v1,-9908(v0)
a0807bb0:	3c02a081 	lui	v0,0xa081
a0807bb4:	8c42d94c 	lw	v0,-9908(v0)
a0807bb8:	24040001 	li	a0,1
a0807bbc:	00402821 	move	a1,v0
a0807bc0:	0c201472 	jal	a08051c8 <sys_move_cursor>
a0807bc4:	00000000 	nop
a0807bc8:	3c02a081 	lui	v0,0xa081
a0807bcc:	2444d04c 	addiu	a0,v0,-12212
a0807bd0:	8fc50018 	lw	a1,24(s8)
a0807bd4:	0c2019a3 	jal	a080668c <printf>
a0807bd8:	00000000 	nop
a0807bdc:	0820205b 	j	a080816c <do_cmd+0x870>
a0807be0:	00000000 	nop
a0807be4:	3c02a084 	lui	v0,0xa084
a0807be8:	24446cb4 	addiu	a0,v0,27828
a0807bec:	3c02a081 	lui	v0,0xa081
a0807bf0:	2445d060 	addiu	a1,v0,-12192
a0807bf4:	24060004 	li	a2,4
a0807bf8:	0c20169a 	jal	a0805a68 <my_strncmp>
a0807bfc:	00000000 	nop
a0807c00:	14400050 	bnez	v0,a0807d44 <do_cmd+0x448>
a0807c04:	00000000 	nop
a0807c08:	3c02a084 	lui	v0,0xa084
a0807c0c:	24426cb4 	addiu	v0,v0,27828
a0807c10:	80420005 	lb	v0,5(v0)
a0807c14:	2442ffd0 	addiu	v0,v0,-48
a0807c18:	afc20010 	sw	v0,16(s8)
a0807c1c:	8fc20010 	lw	v0,16(s8)
a0807c20:	2842000a 	slti	v0,v0,10
a0807c24:	10400004 	beqz	v0,a0807c38 <do_cmd+0x33c>
a0807c28:	00000000 	nop
a0807c2c:	8fc20010 	lw	v0,16(s8)
a0807c30:	04410012 	bgez	v0,a0807c7c <do_cmd+0x380>
a0807c34:	00000000 	nop
a0807c38:	3c02a081 	lui	v0,0xa081
a0807c3c:	8c42d94c 	lw	v0,-9908(v0)
a0807c40:	24430001 	addiu	v1,v0,1
a0807c44:	3c02a081 	lui	v0,0xa081
a0807c48:	ac43d94c 	sw	v1,-9908(v0)
a0807c4c:	3c02a081 	lui	v0,0xa081
a0807c50:	8c42d94c 	lw	v0,-9908(v0)
a0807c54:	24040001 	li	a0,1
a0807c58:	00402821 	move	a1,v0
a0807c5c:	0c201472 	jal	a08051c8 <sys_move_cursor>
a0807c60:	00000000 	nop
a0807c64:	3c02a081 	lui	v0,0xa081
a0807c68:	2444d010 	addiu	a0,v0,-12272
a0807c6c:	0c2019a3 	jal	a080668c <printf>
a0807c70:	00000000 	nop
a0807c74:	0820205b 	j	a080816c <do_cmd+0x870>
a0807c78:	00000000 	nop
a0807c7c:	3c02a084 	lui	v0,0xa084
a0807c80:	24446cb9 	addiu	a0,v0,27833
a0807c84:	0c201d20 	jal	a0807480 <my_ctoi>
a0807c88:	00000000 	nop
a0807c8c:	afc20010 	sw	v0,16(s8)
a0807c90:	8fc20010 	lw	v0,16(s8)
a0807c94:	10400005 	beqz	v0,a0807cac <do_cmd+0x3b0>
a0807c98:	00000000 	nop
a0807c9c:	8fc30010 	lw	v1,16(s8)
a0807ca0:	24020001 	li	v0,1
a0807ca4:	14620012 	bne	v1,v0,a0807cf0 <do_cmd+0x3f4>
a0807ca8:	00000000 	nop
a0807cac:	3c02a081 	lui	v0,0xa081
a0807cb0:	8c42d94c 	lw	v0,-9908(v0)
a0807cb4:	24430001 	addiu	v1,v0,1
a0807cb8:	3c02a081 	lui	v0,0xa081
a0807cbc:	ac43d94c 	sw	v1,-9908(v0)
a0807cc0:	3c02a081 	lui	v0,0xa081
a0807cc4:	8c42d94c 	lw	v0,-9908(v0)
a0807cc8:	24040001 	li	a0,1
a0807ccc:	00402821 	move	a1,v0
a0807cd0:	0c201472 	jal	a08051c8 <sys_move_cursor>
a0807cd4:	00000000 	nop
a0807cd8:	3c02a081 	lui	v0,0xa081
a0807cdc:	2444d068 	addiu	a0,v0,-12184
a0807ce0:	0c2019a3 	jal	a080668c <printf>
a0807ce4:	00000000 	nop
a0807ce8:	0820205b 	j	a080816c <do_cmd+0x870>
a0807cec:	00000000 	nop
a0807cf0:	8fc40010 	lw	a0,16(s8)
a0807cf4:	0c201367 	jal	a0804d9c <sys_kill>
a0807cf8:	00000000 	nop
a0807cfc:	3c02a081 	lui	v0,0xa081
a0807d00:	8c42d94c 	lw	v0,-9908(v0)
a0807d04:	24430001 	addiu	v1,v0,1
a0807d08:	3c02a081 	lui	v0,0xa081
a0807d0c:	ac43d94c 	sw	v1,-9908(v0)
a0807d10:	3c02a081 	lui	v0,0xa081
a0807d14:	8c42d94c 	lw	v0,-9908(v0)
a0807d18:	24040001 	li	a0,1
a0807d1c:	00402821 	move	a1,v0
a0807d20:	0c201472 	jal	a08051c8 <sys_move_cursor>
a0807d24:	00000000 	nop
a0807d28:	3c02a081 	lui	v0,0xa081
a0807d2c:	2444d08c 	addiu	a0,v0,-12148
a0807d30:	8fc50010 	lw	a1,16(s8)
a0807d34:	0c2019a3 	jal	a080668c <printf>
a0807d38:	00000000 	nop
a0807d3c:	0820205b 	j	a080816c <do_cmd+0x870>
a0807d40:	00000000 	nop
a0807d44:	3c02a084 	lui	v0,0xa084
a0807d48:	24446cb4 	addiu	a0,v0,27828
a0807d4c:	3c02a081 	lui	v0,0xa081
a0807d50:	2445d0a0 	addiu	a1,v0,-12128
a0807d54:	24060004 	li	a2,4
a0807d58:	0c20169a 	jal	a0805a68 <my_strncmp>
a0807d5c:	00000000 	nop
a0807d60:	14400009 	bnez	v0,a0807d88 <do_cmd+0x48c>
a0807d64:	00000000 	nop
a0807d68:	3c02a081 	lui	v0,0xa081
a0807d6c:	2444cffc 	addiu	a0,v0,-12292
a0807d70:	0c2019a3 	jal	a080668c <printf>
a0807d74:	00000000 	nop
a0807d78:	0c20154c 	jal	a0805530 <sys_mkfs>
a0807d7c:	00000000 	nop
a0807d80:	0820205b 	j	a080816c <do_cmd+0x870>
a0807d84:	00000000 	nop
a0807d88:	3c02a084 	lui	v0,0xa084
a0807d8c:	24446cb4 	addiu	a0,v0,27828
a0807d90:	3c02a081 	lui	v0,0xa081
a0807d94:	2445d0a8 	addiu	a1,v0,-12120
a0807d98:	24060006 	li	a2,6
a0807d9c:	0c20169a 	jal	a0805a68 <my_strncmp>
a0807da0:	00000000 	nop
a0807da4:	14400009 	bnez	v0,a0807dcc <do_cmd+0x4d0>
a0807da8:	00000000 	nop
a0807dac:	3c02a081 	lui	v0,0xa081
a0807db0:	2444cffc 	addiu	a0,v0,-12292
a0807db4:	0c2019a3 	jal	a080668c <printf>
a0807db8:	00000000 	nop
a0807dbc:	0c20155c 	jal	a0805570 <sys_statfs>
a0807dc0:	00000000 	nop
a0807dc4:	0820205b 	j	a080816c <do_cmd+0x870>
a0807dc8:	00000000 	nop
a0807dcc:	3c02a084 	lui	v0,0xa084
a0807dd0:	24446cb4 	addiu	a0,v0,27828
a0807dd4:	3c02a081 	lui	v0,0xa081
a0807dd8:	2445d0b0 	addiu	a1,v0,-12112
a0807ddc:	24060005 	li	a2,5
a0807de0:	0c20169a 	jal	a0805a68 <my_strncmp>
a0807de4:	00000000 	nop
a0807de8:	14400020 	bnez	v0,a0807e6c <do_cmd+0x570>
a0807dec:	00000000 	nop
a0807df0:	0c201cae 	jal	a08072b8 <reset_filename>
a0807df4:	00000000 	nop
a0807df8:	24040006 	li	a0,6
a0807dfc:	0c201cc5 	jal	a0807314 <get_filename>
a0807e00:	00000000 	nop
a0807e04:	10400012 	beqz	v0,a0807e50 <do_cmd+0x554>
a0807e08:	00000000 	nop
a0807e0c:	3c02a081 	lui	v0,0xa081
a0807e10:	8c42d94c 	lw	v0,-9908(v0)
a0807e14:	24430001 	addiu	v1,v0,1
a0807e18:	3c02a081 	lui	v0,0xa081
a0807e1c:	ac43d94c 	sw	v1,-9908(v0)
a0807e20:	3c02a081 	lui	v0,0xa081
a0807e24:	8c42d94c 	lw	v0,-9908(v0)
a0807e28:	24040001 	li	a0,1
a0807e2c:	00402821 	move	a1,v0
a0807e30:	0c201472 	jal	a08051c8 <sys_move_cursor>
a0807e34:	00000000 	nop
a0807e38:	3c02a081 	lui	v0,0xa081
a0807e3c:	2444d0b8 	addiu	a0,v0,-12104
a0807e40:	0c2019a3 	jal	a080668c <printf>
a0807e44:	00000000 	nop
a0807e48:	0820205b 	j	a080816c <do_cmd+0x870>
a0807e4c:	00000000 	nop
a0807e50:	3c02a084 	lui	v0,0xa084
a0807e54:	24426c7c 	addiu	v0,v0,27772
a0807e58:	00402021 	move	a0,v0
a0807e5c:	0c20157e 	jal	a08055f8 <sys_mkdir>
a0807e60:	00000000 	nop
a0807e64:	0820205b 	j	a080816c <do_cmd+0x870>
a0807e68:	00000000 	nop
a0807e6c:	3c02a084 	lui	v0,0xa084
a0807e70:	24446cb4 	addiu	a0,v0,27828
a0807e74:	3c02a081 	lui	v0,0xa081
a0807e78:	2445d0d0 	addiu	a1,v0,-12080
a0807e7c:	24060005 	li	a2,5
a0807e80:	0c20169a 	jal	a0805a68 <my_strncmp>
a0807e84:	00000000 	nop
a0807e88:	14400020 	bnez	v0,a0807f0c <do_cmd+0x610>
a0807e8c:	00000000 	nop
a0807e90:	0c201cae 	jal	a08072b8 <reset_filename>
a0807e94:	00000000 	nop
a0807e98:	24040006 	li	a0,6
a0807e9c:	0c201cc5 	jal	a0807314 <get_filename>
a0807ea0:	00000000 	nop
a0807ea4:	10400012 	beqz	v0,a0807ef0 <do_cmd+0x5f4>
a0807ea8:	00000000 	nop
a0807eac:	3c02a081 	lui	v0,0xa081
a0807eb0:	8c42d94c 	lw	v0,-9908(v0)
a0807eb4:	24430001 	addiu	v1,v0,1
a0807eb8:	3c02a081 	lui	v0,0xa081
a0807ebc:	ac43d94c 	sw	v1,-9908(v0)
a0807ec0:	3c02a081 	lui	v0,0xa081
a0807ec4:	8c42d94c 	lw	v0,-9908(v0)
a0807ec8:	24040001 	li	a0,1
a0807ecc:	00402821 	move	a1,v0
a0807ed0:	0c201472 	jal	a08051c8 <sys_move_cursor>
a0807ed4:	00000000 	nop
a0807ed8:	3c02a081 	lui	v0,0xa081
a0807edc:	2444d0b8 	addiu	a0,v0,-12104
a0807ee0:	0c2019a3 	jal	a080668c <printf>
a0807ee4:	00000000 	nop
a0807ee8:	0820205b 	j	a080816c <do_cmd+0x870>
a0807eec:	00000000 	nop
a0807ef0:	3c02a084 	lui	v0,0xa084
a0807ef4:	24426c7c 	addiu	v0,v0,27772
a0807ef8:	00402021 	move	a0,v0
a0807efc:	0c201590 	jal	a0805640 <sys_rmdir>
a0807f00:	00000000 	nop
a0807f04:	0820205b 	j	a080816c <do_cmd+0x870>
a0807f08:	00000000 	nop
a0807f0c:	3c02a084 	lui	v0,0xa084
a0807f10:	24446cb4 	addiu	a0,v0,27828
a0807f14:	3c02a081 	lui	v0,0xa081
a0807f18:	2445d0d8 	addiu	a1,v0,-12072
a0807f1c:	24060002 	li	a2,2
a0807f20:	0c20169a 	jal	a0805a68 <my_strncmp>
a0807f24:	00000000 	nop
a0807f28:	14400020 	bnez	v0,a0807fac <do_cmd+0x6b0>
a0807f2c:	00000000 	nop
a0807f30:	0c201cae 	jal	a08072b8 <reset_filename>
a0807f34:	00000000 	nop
a0807f38:	24040003 	li	a0,3
a0807f3c:	0c201cc5 	jal	a0807314 <get_filename>
a0807f40:	00000000 	nop
a0807f44:	10400012 	beqz	v0,a0807f90 <do_cmd+0x694>
a0807f48:	00000000 	nop
a0807f4c:	3c02a081 	lui	v0,0xa081
a0807f50:	8c42d94c 	lw	v0,-9908(v0)
a0807f54:	24430001 	addiu	v1,v0,1
a0807f58:	3c02a081 	lui	v0,0xa081
a0807f5c:	ac43d94c 	sw	v1,-9908(v0)
a0807f60:	3c02a081 	lui	v0,0xa081
a0807f64:	8c42d94c 	lw	v0,-9908(v0)
a0807f68:	24040001 	li	a0,1
a0807f6c:	00402821 	move	a1,v0
a0807f70:	0c201472 	jal	a08051c8 <sys_move_cursor>
a0807f74:	00000000 	nop
a0807f78:	3c02a081 	lui	v0,0xa081
a0807f7c:	2444d0b8 	addiu	a0,v0,-12104
a0807f80:	0c2019a3 	jal	a080668c <printf>
a0807f84:	00000000 	nop
a0807f88:	0820205b 	j	a080816c <do_cmd+0x870>
a0807f8c:	00000000 	nop
a0807f90:	3c02a084 	lui	v0,0xa084
a0807f94:	24426c7c 	addiu	v0,v0,27772
a0807f98:	00402021 	move	a0,v0
a0807f9c:	0c20156c 	jal	a08055b0 <sys_cd>
a0807fa0:	00000000 	nop
a0807fa4:	0820205b 	j	a080816c <do_cmd+0x870>
a0807fa8:	00000000 	nop
a0807fac:	3c02a084 	lui	v0,0xa084
a0807fb0:	24446cb4 	addiu	a0,v0,27828
a0807fb4:	3c02a081 	lui	v0,0xa081
a0807fb8:	2445d0dc 	addiu	a1,v0,-12068
a0807fbc:	24060002 	li	a2,2
a0807fc0:	0c20169a 	jal	a0805a68 <my_strncmp>
a0807fc4:	00000000 	nop
a0807fc8:	14400009 	bnez	v0,a0807ff0 <do_cmd+0x6f4>
a0807fcc:	00000000 	nop
a0807fd0:	3c02a081 	lui	v0,0xa081
a0807fd4:	2444cffc 	addiu	a0,v0,-12292
a0807fd8:	0c2019a3 	jal	a080668c <printf>
a0807fdc:	00000000 	nop
a0807fe0:	0c2015a2 	jal	a0805688 <sys_ls>
a0807fe4:	00000000 	nop
a0807fe8:	0820205b 	j	a080816c <do_cmd+0x870>
a0807fec:	00000000 	nop
a0807ff0:	3c02a084 	lui	v0,0xa084
a0807ff4:	24446cb4 	addiu	a0,v0,27828
a0807ff8:	3c02a081 	lui	v0,0xa081
a0807ffc:	2445d0e0 	addiu	a1,v0,-12064
a0808000:	24060005 	li	a2,5
a0808004:	0c20169a 	jal	a0805a68 <my_strncmp>
a0808008:	00000000 	nop
a080800c:	14400020 	bnez	v0,a0808090 <do_cmd+0x794>
a0808010:	00000000 	nop
a0808014:	0c201cae 	jal	a08072b8 <reset_filename>
a0808018:	00000000 	nop
a080801c:	24040006 	li	a0,6
a0808020:	0c201cc5 	jal	a0807314 <get_filename>
a0808024:	00000000 	nop
a0808028:	10400012 	beqz	v0,a0808074 <do_cmd+0x778>
a080802c:	00000000 	nop
a0808030:	3c02a081 	lui	v0,0xa081
a0808034:	8c42d94c 	lw	v0,-9908(v0)
a0808038:	24430001 	addiu	v1,v0,1
a080803c:	3c02a081 	lui	v0,0xa081
a0808040:	ac43d94c 	sw	v1,-9908(v0)
a0808044:	3c02a081 	lui	v0,0xa081
a0808048:	8c42d94c 	lw	v0,-9908(v0)
a080804c:	24040001 	li	a0,1
a0808050:	00402821 	move	a1,v0
a0808054:	0c201472 	jal	a08051c8 <sys_move_cursor>
a0808058:	00000000 	nop
a080805c:	3c02a081 	lui	v0,0xa081
a0808060:	2444d0b8 	addiu	a0,v0,-12104
a0808064:	0c2019a3 	jal	a080668c <printf>
a0808068:	00000000 	nop
a080806c:	0820205b 	j	a080816c <do_cmd+0x870>
a0808070:	00000000 	nop
a0808074:	3c02a084 	lui	v0,0xa084
a0808078:	24426c7c 	addiu	v0,v0,27772
a080807c:	00402021 	move	a0,v0
a0808080:	0c2015b2 	jal	a08056c8 <sys_touch>
a0808084:	00000000 	nop
a0808088:	0820205b 	j	a080816c <do_cmd+0x870>
a080808c:	00000000 	nop
a0808090:	3c02a084 	lui	v0,0xa084
a0808094:	24446cb4 	addiu	a0,v0,27828
a0808098:	3c02a081 	lui	v0,0xa081
a080809c:	2445d0e8 	addiu	a1,v0,-12056
a08080a0:	24060003 	li	a2,3
a08080a4:	0c20169a 	jal	a0805a68 <my_strncmp>
a08080a8:	00000000 	nop
a08080ac:	14400020 	bnez	v0,a0808130 <do_cmd+0x834>
a08080b0:	00000000 	nop
a08080b4:	0c201cae 	jal	a08072b8 <reset_filename>
a08080b8:	00000000 	nop
a08080bc:	24040004 	li	a0,4
a08080c0:	0c201cc5 	jal	a0807314 <get_filename>
a08080c4:	00000000 	nop
a08080c8:	10400012 	beqz	v0,a0808114 <do_cmd+0x818>
a08080cc:	00000000 	nop
a08080d0:	3c02a081 	lui	v0,0xa081
a08080d4:	8c42d94c 	lw	v0,-9908(v0)
a08080d8:	24430001 	addiu	v1,v0,1
a08080dc:	3c02a081 	lui	v0,0xa081
a08080e0:	ac43d94c 	sw	v1,-9908(v0)
a08080e4:	3c02a081 	lui	v0,0xa081
a08080e8:	8c42d94c 	lw	v0,-9908(v0)
a08080ec:	24040001 	li	a0,1
a08080f0:	00402821 	move	a1,v0
a08080f4:	0c201472 	jal	a08051c8 <sys_move_cursor>
a08080f8:	00000000 	nop
a08080fc:	3c02a081 	lui	v0,0xa081
a0808100:	2444d0b8 	addiu	a0,v0,-12104
a0808104:	0c2019a3 	jal	a080668c <printf>
a0808108:	00000000 	nop
a080810c:	0820205b 	j	a080816c <do_cmd+0x870>
a0808110:	00000000 	nop
a0808114:	3c02a084 	lui	v0,0xa084
a0808118:	24426c7c 	addiu	v0,v0,27772
a080811c:	00402021 	move	a0,v0
a0808120:	0c2015c4 	jal	a0805710 <sys_cat>
a0808124:	00000000 	nop
a0808128:	0820205b 	j	a080816c <do_cmd+0x870>
a080812c:	00000000 	nop
a0808130:	3c02a081 	lui	v0,0xa081
a0808134:	8c42d94c 	lw	v0,-9908(v0)
a0808138:	24430001 	addiu	v1,v0,1
a080813c:	3c02a081 	lui	v0,0xa081
a0808140:	ac43d94c 	sw	v1,-9908(v0)
a0808144:	3c02a081 	lui	v0,0xa081
a0808148:	8c42d94c 	lw	v0,-9908(v0)
a080814c:	24040001 	li	a0,1
a0808150:	00402821 	move	a1,v0
a0808154:	0c201472 	jal	a08051c8 <sys_move_cursor>
a0808158:	00000000 	nop
a080815c:	3c02a081 	lui	v0,0xa081
a0808160:	2444d0ec 	addiu	a0,v0,-12052
a0808164:	0c2019a3 	jal	a080668c <printf>
a0808168:	00000000 	nop
a080816c:	03c0e821 	move	sp,s8
a0808170:	8fbf002c 	lw	ra,44(sp)
a0808174:	8fbe0028 	lw	s8,40(sp)
a0808178:	8fb00024 	lw	s0,36(sp)
a080817c:	27bd0030 	addiu	sp,sp,48
a0808180:	03e00008 	jr	ra
a0808184:	00000000 	nop

a0808188 <refill_print_path>:
a0808188:	27bdffd0 	addiu	sp,sp,-48
a080818c:	afbf002c 	sw	ra,44(sp)
a0808190:	afbe0028 	sw	s8,40(sp)
a0808194:	03a0f021 	move	s8,sp
a0808198:	3c02a081 	lui	v0,0xa081
a080819c:	8c42d92c 	lw	v0,-9940(v0)
a08081a0:	afc20020 	sw	v0,32(s8)
a08081a4:	3c02a084 	lui	v0,0xa084
a08081a8:	24426c18 	addiu	v0,v0,27672
a08081ac:	afc2001c 	sw	v0,28(s8)
a08081b0:	afc00018 	sw	zero,24(s8)
a08081b4:	8fc20020 	lw	v0,32(s8)
a08081b8:	10400042 	beqz	v0,a08082c4 <refill_print_path+0x13c>
a08081bc:	00000000 	nop
a08081c0:	08202087 	j	a080821c <refill_print_path+0x94>
a08081c4:	00000000 	nop
a08081c8:	3c02a084 	lui	v0,0xa084
a08081cc:	244409b0 	addiu	a0,v0,2480
a08081d0:	8fc20018 	lw	v0,24(s8)
a08081d4:	000218c0 	sll	v1,v0,0x3
a08081d8:	000310c0 	sll	v0,v1,0x3
a08081dc:	00431023 	subu	v0,v0,v1
a08081e0:	00821021 	addu	v0,a0,v0
a08081e4:	8fc4001c 	lw	a0,28(s8)
a08081e8:	00402821 	move	a1,v0
a08081ec:	0c201e20 	jal	a0807880 <os_strcpy>
a08081f0:	00000000 	nop
a08081f4:	afc2001c 	sw	v0,28(s8)
a08081f8:	8fc3001c 	lw	v1,28(s8)
a08081fc:	2402002f 	li	v0,47
a0808200:	a0620000 	sb	v0,0(v1)
a0808204:	8fc2001c 	lw	v0,28(s8)
a0808208:	24420001 	addiu	v0,v0,1
a080820c:	afc2001c 	sw	v0,28(s8)
a0808210:	8fc20018 	lw	v0,24(s8)
a0808214:	24420001 	addiu	v0,v0,1
a0808218:	afc20018 	sw	v0,24(s8)
a080821c:	8fc20018 	lw	v0,24(s8)
a0808220:	8fc30020 	lw	v1,32(s8)
a0808224:	0043102b 	sltu	v0,v0,v1
a0808228:	1440ffe7 	bnez	v0,a08081c8 <refill_print_path+0x40>
a080822c:	00000000 	nop
a0808230:	8fc2001c 	lw	v0,28(s8)
a0808234:	a0400000 	sb	zero,0(v0)
a0808238:	afc00014 	sw	zero,20(s8)
a080823c:	082020ab 	j	a08082ac <refill_print_path+0x124>
a0808240:	00000000 	nop
a0808244:	8fc30014 	lw	v1,20(s8)
a0808248:	3c02a084 	lui	v0,0xa084
a080824c:	24426c18 	addiu	v0,v0,27672
a0808250:	00621021 	addu	v0,v1,v0
a0808254:	80420000 	lb	v0,0(v0)
a0808258:	10400020 	beqz	v0,a08082dc <refill_print_path+0x154>
a080825c:	00000000 	nop
a0808260:	8fc30014 	lw	v1,20(s8)
a0808264:	3c02a084 	lui	v0,0xa084
a0808268:	24426c18 	addiu	v0,v0,27672
a080826c:	00621021 	addu	v0,v1,v0
a0808270:	80430000 	lb	v1,0(v0)
a0808274:	2402000d 	li	v0,13
a0808278:	10620018 	beq	v1,v0,a08082dc <refill_print_path+0x154>
a080827c:	00000000 	nop
a0808280:	8fc30014 	lw	v1,20(s8)
a0808284:	3c02a084 	lui	v0,0xa084
a0808288:	24426c18 	addiu	v0,v0,27672
a080828c:	00621021 	addu	v0,v1,v0
a0808290:	80430000 	lb	v1,0(v0)
a0808294:	2402000a 	li	v0,10
a0808298:	10620010 	beq	v1,v0,a08082dc <refill_print_path+0x154>
a080829c:	00000000 	nop
a08082a0:	8fc20014 	lw	v0,20(s8)
a08082a4:	24420001 	addiu	v0,v0,1
a08082a8:	afc20014 	sw	v0,20(s8)
a08082ac:	8fc20014 	lw	v0,20(s8)
a08082b0:	2c420064 	sltiu	v0,v0,100
a08082b4:	1440ffe3 	bnez	v0,a0808244 <refill_print_path+0xbc>
a08082b8:	00000000 	nop
a08082bc:	082020b7 	j	a08082dc <refill_print_path+0x154>
a08082c0:	00000000 	nop
a08082c4:	3c02a084 	lui	v0,0xa084
a08082c8:	24446c18 	addiu	a0,v0,27672
a08082cc:	3c02a081 	lui	v0,0xa081
a08082d0:	2445d124 	addiu	a1,v0,-11996
a08082d4:	0c201e20 	jal	a0807880 <os_strcpy>
a08082d8:	00000000 	nop
a08082dc:	8fc20014 	lw	v0,20(s8)
a08082e0:	03c0e821 	move	sp,s8
a08082e4:	8fbf002c 	lw	ra,44(sp)
a08082e8:	8fbe0028 	lw	s8,40(sp)
a08082ec:	27bd0030 	addiu	sp,sp,48
a08082f0:	03e00008 	jr	ra
a08082f4:	00000000 	nop

a08082f8 <test_shell>:
a08082f8:	27bdffd8 	addiu	sp,sp,-40
a08082fc:	afbf0024 	sw	ra,36(sp)
a0808300:	afbe0020 	sw	s8,32(sp)
a0808304:	03a0f021 	move	s8,sp
a0808308:	3c03a081 	lui	v1,0xa081
a080830c:	24020001 	li	v0,1
a0808310:	ac62d92c 	sw	v0,-9940(v1)
a0808314:	3c02a081 	lui	v0,0xa081
a0808318:	ac40d928 	sw	zero,-9944(v0)
a080831c:	3c02a084 	lui	v0,0xa084
a0808320:	244209b0 	addiu	v0,v0,2480
a0808324:	00402021 	move	a0,v0
a0808328:	3c02a081 	lui	v0,0xa081
a080832c:	2445d124 	addiu	a1,v0,-11996
a0808330:	24060002 	li	a2,2
a0808334:	0c20167d 	jal	a08059f4 <os_memcpy>
a0808338:	00000000 	nop
a080833c:	0c202062 	jal	a0808188 <refill_print_path>
a0808340:	00000000 	nop
a0808344:	afc20014 	sw	v0,20(s8)
a0808348:	0c203293 	jal	a080ca4c <init_fd_array>
a080834c:	00000000 	nop
a0808350:	3c03a081 	lui	v1,0xa081
a0808354:	2402000e 	li	v0,14
a0808358:	ac62d94c 	sw	v0,-9908(v1)
a080835c:	8fc20014 	lw	v0,20(s8)
a0808360:	24430013 	addiu	v1,v0,19
a0808364:	3c02a081 	lui	v0,0xa081
a0808368:	ac43d950 	sw	v1,-9904(v0)
a080836c:	24040001 	li	a0,1
a0808370:	2405000d 	li	a1,13
a0808374:	0c201472 	jal	a08051c8 <sys_move_cursor>
a0808378:	00000000 	nop
a080837c:	3c02a081 	lui	v0,0xa081
a0808380:	2444d128 	addiu	a0,v0,-11992
a0808384:	0c2019a3 	jal	a080668c <printf>
a0808388:	00000000 	nop
a080838c:	24040001 	li	a0,1
a0808390:	2405000e 	li	a1,14
a0808394:	0c201472 	jal	a08051c8 <sys_move_cursor>
a0808398:	00000000 	nop
a080839c:	0c202062 	jal	a0808188 <refill_print_path>
a08083a0:	00000000 	nop
a08083a4:	afc20014 	sw	v0,20(s8)
a08083a8:	8fc20014 	lw	v0,20(s8)
a08083ac:	24430013 	addiu	v1,v0,19
a08083b0:	3c02a081 	lui	v0,0xa081
a08083b4:	ac43d950 	sw	v1,-9904(v0)
a08083b8:	3c02a081 	lui	v0,0xa081
a08083bc:	2444d15c 	addiu	a0,v0,-11940
a08083c0:	0c2019a3 	jal	a080668c <printf>
a08083c4:	00000000 	nop
a08083c8:	3c02a084 	lui	v0,0xa084
a08083cc:	24446c18 	addiu	a0,v0,27672
a08083d0:	0c2019a3 	jal	a080668c <printf>
a08083d4:	00000000 	nop
a08083d8:	3c02a081 	lui	v0,0xa081
a08083dc:	2444d16c 	addiu	a0,v0,-11924
a08083e0:	0c2019a3 	jal	a080668c <printf>
a08083e4:	00000000 	nop
a08083e8:	3c02a081 	lui	v0,0xa081
a08083ec:	8c42d950 	lw	v0,-9904(v0)
a08083f0:	00401821 	move	v1,v0
a08083f4:	3c02a081 	lui	v0,0xa081
a08083f8:	8c42d94c 	lw	v0,-9908(v0)
a08083fc:	00602021 	move	a0,v1
a0808400:	00402821 	move	a1,v0
a0808404:	0c201472 	jal	a08051c8 <sys_move_cursor>
a0808408:	00000000 	nop
a080840c:	3c02a081 	lui	v0,0xa081
a0808410:	2444d170 	addiu	a0,v0,-11920
a0808414:	0c2019a3 	jal	a080668c <printf>
a0808418:	00000000 	nop
a080841c:	afc0001c 	sw	zero,28(s8)
a0808420:	08202112 	j	a0808448 <test_shell+0x150>
a0808424:	00000000 	nop
a0808428:	8fc3001c 	lw	v1,28(s8)
a080842c:	3c02a084 	lui	v0,0xa084
a0808430:	24426cb4 	addiu	v0,v0,27828
a0808434:	00621021 	addu	v0,v1,v0
a0808438:	a0400000 	sb	zero,0(v0)
a080843c:	8fc2001c 	lw	v0,28(s8)
a0808440:	24420001 	addiu	v0,v0,1
a0808444:	afc2001c 	sw	v0,28(s8)
a0808448:	8fc2001c 	lw	v0,28(s8)
a080844c:	28420064 	slti	v0,v0,100
a0808450:	1440fff5 	bnez	v0,a0808428 <test_shell+0x130>
a0808454:	00000000 	nop
a0808458:	afc00018 	sw	zero,24(s8)
a080845c:	0c201c6c 	jal	a08071b0 <disable_interrupt>
a0808460:	00000000 	nop
a0808464:	0c201c93 	jal	a080724c <read_uart_ch>
a0808468:	00000000 	nop
a080846c:	a3c20010 	sb	v0,16(s8)
a0808470:	0c201c80 	jal	a0807200 <enable_interrupt>
a0808474:	00000000 	nop
a0808478:	83c30010 	lb	v1,16(s8)
a080847c:	24020008 	li	v0,8
a0808480:	14620028 	bne	v1,v0,a0808524 <test_shell+0x22c>
a0808484:	00000000 	nop
a0808488:	8fc20018 	lw	v0,24(s8)
a080848c:	10400009 	beqz	v0,a08084b4 <test_shell+0x1bc>
a0808490:	00000000 	nop
a0808494:	8fc20018 	lw	v0,24(s8)
a0808498:	2442ffff 	addiu	v0,v0,-1
a080849c:	afc20018 	sw	v0,24(s8)
a08084a0:	8fc30018 	lw	v1,24(s8)
a08084a4:	3c02a084 	lui	v0,0xa084
a08084a8:	24426cb4 	addiu	v0,v0,27828
a08084ac:	00621021 	addu	v0,v1,v0
a08084b0:	a0400000 	sb	zero,0(v0)
a08084b4:	3c02a081 	lui	v0,0xa081
a08084b8:	8c42d950 	lw	v0,-9904(v0)
a08084bc:	00401821 	move	v1,v0
a08084c0:	3c02a081 	lui	v0,0xa081
a08084c4:	8c42d94c 	lw	v0,-9908(v0)
a08084c8:	00602021 	move	a0,v1
a08084cc:	00402821 	move	a1,v0
a08084d0:	0c201472 	jal	a08051c8 <sys_move_cursor>
a08084d4:	00000000 	nop
a08084d8:	3c02a081 	lui	v0,0xa081
a08084dc:	2444d170 	addiu	a0,v0,-11920
a08084e0:	0c2019a3 	jal	a080668c <printf>
a08084e4:	00000000 	nop
a08084e8:	3c02a081 	lui	v0,0xa081
a08084ec:	8c42d950 	lw	v0,-9904(v0)
a08084f0:	00401821 	move	v1,v0
a08084f4:	3c02a081 	lui	v0,0xa081
a08084f8:	8c42d94c 	lw	v0,-9908(v0)
a08084fc:	00602021 	move	a0,v1
a0808500:	00402821 	move	a1,v0
a0808504:	0c201472 	jal	a08051c8 <sys_move_cursor>
a0808508:	00000000 	nop
a080850c:	3c02a084 	lui	v0,0xa084
a0808510:	24446cb4 	addiu	a0,v0,27828
a0808514:	0c2019a3 	jal	a080668c <printf>
a0808518:	00000000 	nop
a080851c:	08202117 	j	a080845c <test_shell+0x164>
a0808520:	00000000 	nop
a0808524:	83c30010 	lb	v1,16(s8)
a0808528:	2402007f 	li	v0,127
a080852c:	14620028 	bne	v1,v0,a08085d0 <test_shell+0x2d8>
a0808530:	00000000 	nop
a0808534:	8fc20018 	lw	v0,24(s8)
a0808538:	10400009 	beqz	v0,a0808560 <test_shell+0x268>
a080853c:	00000000 	nop
a0808540:	8fc20018 	lw	v0,24(s8)
a0808544:	2442ffff 	addiu	v0,v0,-1
a0808548:	afc20018 	sw	v0,24(s8)
a080854c:	8fc30018 	lw	v1,24(s8)
a0808550:	3c02a084 	lui	v0,0xa084
a0808554:	24426cb4 	addiu	v0,v0,27828
a0808558:	00621021 	addu	v0,v1,v0
a080855c:	a0400000 	sb	zero,0(v0)
a0808560:	3c02a081 	lui	v0,0xa081
a0808564:	8c42d950 	lw	v0,-9904(v0)
a0808568:	00401821 	move	v1,v0
a080856c:	3c02a081 	lui	v0,0xa081
a0808570:	8c42d94c 	lw	v0,-9908(v0)
a0808574:	00602021 	move	a0,v1
a0808578:	00402821 	move	a1,v0
a080857c:	0c201472 	jal	a08051c8 <sys_move_cursor>
a0808580:	00000000 	nop
a0808584:	3c02a081 	lui	v0,0xa081
a0808588:	2444d170 	addiu	a0,v0,-11920
a080858c:	0c2019a3 	jal	a080668c <printf>
a0808590:	00000000 	nop
a0808594:	3c02a081 	lui	v0,0xa081
a0808598:	8c42d950 	lw	v0,-9904(v0)
a080859c:	00401821 	move	v1,v0
a08085a0:	3c02a081 	lui	v0,0xa081
a08085a4:	8c42d94c 	lw	v0,-9908(v0)
a08085a8:	00602021 	move	a0,v1
a08085ac:	00402821 	move	a1,v0
a08085b0:	0c201472 	jal	a08051c8 <sys_move_cursor>
a08085b4:	00000000 	nop
a08085b8:	3c02a084 	lui	v0,0xa084
a08085bc:	24446cb4 	addiu	a0,v0,27828
a08085c0:	0c2019a3 	jal	a080668c <printf>
a08085c4:	00000000 	nop
a08085c8:	08202117 	j	a080845c <test_shell+0x164>
a08085cc:	00000000 	nop
a08085d0:	83c20010 	lb	v0,16(s8)
a08085d4:	1040ffa1 	beqz	v0,a080845c <test_shell+0x164>
a08085d8:	00000000 	nop
a08085dc:	83c30010 	lb	v1,16(s8)
a08085e0:	2402000d 	li	v0,13
a08085e4:	1462005d 	bne	v1,v0,a080875c <test_shell+0x464>
a08085e8:	00000000 	nop
a08085ec:	3c02a081 	lui	v0,0xa081
a08085f0:	8c42d950 	lw	v0,-9904(v0)
a08085f4:	00401821 	move	v1,v0
a08085f8:	3c02a081 	lui	v0,0xa081
a08085fc:	8c42d94c 	lw	v0,-9908(v0)
a0808600:	00602021 	move	a0,v1
a0808604:	00402821 	move	a1,v0
a0808608:	0c201472 	jal	a08051c8 <sys_move_cursor>
a080860c:	00000000 	nop
a0808610:	3c02a081 	lui	v0,0xa081
a0808614:	2444d170 	addiu	a0,v0,-11920
a0808618:	0c2019a3 	jal	a080668c <printf>
a080861c:	00000000 	nop
a0808620:	3c02a081 	lui	v0,0xa081
a0808624:	8c42d950 	lw	v0,-9904(v0)
a0808628:	00401821 	move	v1,v0
a080862c:	3c02a081 	lui	v0,0xa081
a0808630:	8c42d94c 	lw	v0,-9908(v0)
a0808634:	00602021 	move	a0,v1
a0808638:	00402821 	move	a1,v0
a080863c:	0c201472 	jal	a08051c8 <sys_move_cursor>
a0808640:	00000000 	nop
a0808644:	3c02a084 	lui	v0,0xa084
a0808648:	24446cb4 	addiu	a0,v0,27828
a080864c:	0c2019a3 	jal	a080668c <printf>
a0808650:	00000000 	nop
a0808654:	8fc20018 	lw	v0,24(s8)
a0808658:	10400013 	beqz	v0,a08086a8 <test_shell+0x3b0>
a080865c:	00000000 	nop
a0808660:	0c201e3f 	jal	a08078fc <do_cmd>
a0808664:	00000000 	nop
a0808668:	afc0001c 	sw	zero,28(s8)
a080866c:	082021a5 	j	a0808694 <test_shell+0x39c>
a0808670:	00000000 	nop
a0808674:	8fc3001c 	lw	v1,28(s8)
a0808678:	3c02a084 	lui	v0,0xa084
a080867c:	24426cb4 	addiu	v0,v0,27828
a0808680:	00621021 	addu	v0,v1,v0
a0808684:	a0400000 	sb	zero,0(v0)
a0808688:	8fc2001c 	lw	v0,28(s8)
a080868c:	24420001 	addiu	v0,v0,1
a0808690:	afc2001c 	sw	v0,28(s8)
a0808694:	8fc2001c 	lw	v0,28(s8)
a0808698:	28420064 	slti	v0,v0,100
a080869c:	1440fff5 	bnez	v0,a0808674 <test_shell+0x37c>
a08086a0:	00000000 	nop
a08086a4:	afc00018 	sw	zero,24(s8)
a08086a8:	3c02a081 	lui	v0,0xa081
a08086ac:	8c42d94c 	lw	v0,-9908(v0)
a08086b0:	24430001 	addiu	v1,v0,1
a08086b4:	3c02a081 	lui	v0,0xa081
a08086b8:	ac43d94c 	sw	v1,-9908(v0)
a08086bc:	3c02a081 	lui	v0,0xa081
a08086c0:	8c42d94c 	lw	v0,-9908(v0)
a08086c4:	24040001 	li	a0,1
a08086c8:	00402821 	move	a1,v0
a08086cc:	0c201472 	jal	a08051c8 <sys_move_cursor>
a08086d0:	00000000 	nop
a08086d4:	0c202062 	jal	a0808188 <refill_print_path>
a08086d8:	00000000 	nop
a08086dc:	afc20014 	sw	v0,20(s8)
a08086e0:	8fc20014 	lw	v0,20(s8)
a08086e4:	24430013 	addiu	v1,v0,19
a08086e8:	3c02a081 	lui	v0,0xa081
a08086ec:	ac43d950 	sw	v1,-9904(v0)
a08086f0:	3c02a081 	lui	v0,0xa081
a08086f4:	2444d15c 	addiu	a0,v0,-11940
a08086f8:	0c2019a3 	jal	a080668c <printf>
a08086fc:	00000000 	nop
a0808700:	3c02a084 	lui	v0,0xa084
a0808704:	24446c18 	addiu	a0,v0,27672
a0808708:	0c2019a3 	jal	a080668c <printf>
a080870c:	00000000 	nop
a0808710:	3c02a081 	lui	v0,0xa081
a0808714:	2444d16c 	addiu	a0,v0,-11924
a0808718:	0c2019a3 	jal	a080668c <printf>
a080871c:	00000000 	nop
a0808720:	3c02a081 	lui	v0,0xa081
a0808724:	8c42d950 	lw	v0,-9904(v0)
a0808728:	00401821 	move	v1,v0
a080872c:	3c02a081 	lui	v0,0xa081
a0808730:	8c42d94c 	lw	v0,-9908(v0)
a0808734:	00602021 	move	a0,v1
a0808738:	00402821 	move	a1,v0
a080873c:	0c201472 	jal	a08051c8 <sys_move_cursor>
a0808740:	00000000 	nop
a0808744:	3c02a081 	lui	v0,0xa081
a0808748:	2444d170 	addiu	a0,v0,-11920
a080874c:	0c2019a3 	jal	a080668c <printf>
a0808750:	00000000 	nop
a0808754:	08202117 	j	a080845c <test_shell+0x164>
a0808758:	00000000 	nop
a080875c:	8fc30018 	lw	v1,24(s8)
a0808760:	3c02a084 	lui	v0,0xa084
a0808764:	24426cb4 	addiu	v0,v0,27828
a0808768:	00621821 	addu	v1,v1,v0
a080876c:	93c20010 	lbu	v0,16(s8)
a0808770:	a0620000 	sb	v0,0(v1)
a0808774:	8fc20018 	lw	v0,24(s8)
a0808778:	24420001 	addiu	v0,v0,1
a080877c:	afc20018 	sw	v0,24(s8)
a0808780:	3c02a081 	lui	v0,0xa081
a0808784:	8c42d950 	lw	v0,-9904(v0)
a0808788:	00401821 	move	v1,v0
a080878c:	3c02a081 	lui	v0,0xa081
a0808790:	8c42d94c 	lw	v0,-9908(v0)
a0808794:	00602021 	move	a0,v1
a0808798:	00402821 	move	a1,v0
a080879c:	0c201472 	jal	a08051c8 <sys_move_cursor>
a08087a0:	00000000 	nop
a08087a4:	3c02a081 	lui	v0,0xa081
a08087a8:	2444d170 	addiu	a0,v0,-11920
a08087ac:	0c2019a3 	jal	a080668c <printf>
a08087b0:	00000000 	nop
a08087b4:	3c02a081 	lui	v0,0xa081
a08087b8:	8c42d950 	lw	v0,-9904(v0)
a08087bc:	00401821 	move	v1,v0
a08087c0:	3c02a081 	lui	v0,0xa081
a08087c4:	8c42d94c 	lw	v0,-9908(v0)
a08087c8:	00602021 	move	a0,v1
a08087cc:	00402821 	move	a1,v0
a08087d0:	0c201472 	jal	a08051c8 <sys_move_cursor>
a08087d4:	00000000 	nop
a08087d8:	3c02a084 	lui	v0,0xa084
a08087dc:	24446cb4 	addiu	a0,v0,27828
a08087e0:	0c2019a3 	jal	a080668c <printf>
a08087e4:	00000000 	nop
a08087e8:	08202117 	j	a080845c <test_shell+0x164>
a08087ec:	00000000 	nop

a08087f0 <test_fs>:
a08087f0:	27bdffd8 	addiu	sp,sp,-40
a08087f4:	afbf0024 	sw	ra,36(sp)
a08087f8:	afbe0020 	sw	s8,32(sp)
a08087fc:	03a0f021 	move	s8,sp
a0808800:	3c02a081 	lui	v0,0xa081
a0808804:	2444d1c0 	addiu	a0,v0,-11840
a0808808:	24050003 	li	a1,3
a080880c:	0c2015d6 	jal	a0805758 <sys_fopen>
a0808810:	00000000 	nop
a0808814:	afc20014 	sw	v0,20(s8)
a0808818:	24020002 	li	v0,2
a080881c:	afc20010 	sw	v0,16(s8)
a0808820:	8fc30014 	lw	v1,20(s8)
a0808824:	3c020001 	lui	v0,0x1
a0808828:	3442e240 	ori	v0,v0,0xe240
a080882c:	14620003 	bne	v1,v0,a080883c <test_fs+0x4c>
a0808830:	00000000 	nop
a0808834:	0c201378 	jal	a0804de0 <sys_exit>
a0808838:	00000000 	nop
a080883c:	afc0001c 	sw	zero,28(s8)
a0808840:	0820221b 	j	a080886c <test_fs+0x7c>
a0808844:	00000000 	nop
a0808848:	8fc40014 	lw	a0,20(s8)
a080884c:	3c02a081 	lui	v0,0xa081
a0808850:	2445d1c8 	addiu	a1,v0,-11832
a0808854:	2406000d 	li	a2,13
a0808858:	0c2015fd 	jal	a08057f4 <sys_fwrite>
a080885c:	00000000 	nop
a0808860:	8fc2001c 	lw	v0,28(s8)
a0808864:	24420001 	addiu	v0,v0,1
a0808868:	afc2001c 	sw	v0,28(s8)
a080886c:	8fc2001c 	lw	v0,28(s8)
a0808870:	2842000a 	slti	v0,v0,10
a0808874:	1440fff4 	bnez	v0,a0808848 <test_fs+0x58>
a0808878:	00000000 	nop
a080887c:	afc0001c 	sw	zero,28(s8)
a0808880:	08202247 	j	a080891c <test_fs+0x12c>
a0808884:	00000000 	nop
a0808888:	8fc40014 	lw	a0,20(s8)
a080888c:	3c02a081 	lui	v0,0xa081
a0808890:	2445ff50 	addiu	a1,v0,-176
a0808894:	2406000d 	li	a2,13
a0808898:	0c2015e9 	jal	a08057a4 <sys_fread>
a080889c:	00000000 	nop
a08088a0:	8fc3001c 	lw	v1,28(s8)
a08088a4:	8fc20010 	lw	v0,16(s8)
a08088a8:	00621021 	addu	v0,v1,v0
a08088ac:	24040001 	li	a0,1
a08088b0:	00402821 	move	a1,v0
a08088b4:	0c201472 	jal	a08051c8 <sys_move_cursor>
a08088b8:	00000000 	nop
a08088bc:	afc00018 	sw	zero,24(s8)
a08088c0:	08202240 	j	a0808900 <test_fs+0x110>
a08088c4:	00000000 	nop
a08088c8:	8fc30018 	lw	v1,24(s8)
a08088cc:	3c02a081 	lui	v0,0xa081
a08088d0:	2442ff50 	addiu	v0,v0,-176
a08088d4:	00621021 	addu	v0,v1,v0
a08088d8:	80420000 	lb	v0,0(v0)
a08088dc:	00401821 	move	v1,v0
a08088e0:	3c02a081 	lui	v0,0xa081
a08088e4:	2444d1d8 	addiu	a0,v0,-11816
a08088e8:	00602821 	move	a1,v1
a08088ec:	0c2019a3 	jal	a080668c <printf>
a08088f0:	00000000 	nop
a08088f4:	8fc20018 	lw	v0,24(s8)
a08088f8:	24420001 	addiu	v0,v0,1
a08088fc:	afc20018 	sw	v0,24(s8)
a0808900:	8fc20018 	lw	v0,24(s8)
a0808904:	2842000d 	slti	v0,v0,13
a0808908:	1440ffef 	bnez	v0,a08088c8 <test_fs+0xd8>
a080890c:	00000000 	nop
a0808910:	8fc2001c 	lw	v0,28(s8)
a0808914:	24420001 	addiu	v0,v0,1
a0808918:	afc2001c 	sw	v0,28(s8)
a080891c:	8fc2001c 	lw	v0,28(s8)
a0808920:	2842000a 	slti	v0,v0,10
a0808924:	1440ffd8 	bnez	v0,a0808888 <test_fs+0x98>
a0808928:	00000000 	nop
a080892c:	8fc40014 	lw	a0,20(s8)
a0808930:	0c201611 	jal	a0805844 <sys_fclose>
a0808934:	00000000 	nop
a0808938:	0c201378 	jal	a0804de0 <sys_exit>
a080893c:	00000000 	nop
a0808940:	03c0e821 	move	sp,s8
a0808944:	8fbf0024 	lw	ra,36(sp)
a0808948:	8fbe0020 	lw	s8,32(sp)
a080894c:	27bd0028 	addiu	sp,sp,40
a0808950:	03e00008 	jr	ra
a0808954:	00000000 	nop
	...

a0808960 <init_read_buffer>:
a0808960:	27bdfff0 	addiu	sp,sp,-16
a0808964:	afbe000c 	sw	s8,12(sp)
a0808968:	03a0f021 	move	s8,sp
a080896c:	afc00000 	sw	zero,0(s8)
a0808970:	08202266 	j	a0808998 <init_read_buffer+0x38>
a0808974:	00000000 	nop
a0808978:	8fc30000 	lw	v1,0(s8)
a080897c:	3c02a084 	lui	v0,0xa084
a0808980:	24426d18 	addiu	v0,v0,27928
a0808984:	00621021 	addu	v0,v1,v0
a0808988:	a0400000 	sb	zero,0(v0)
a080898c:	8fc20000 	lw	v0,0(s8)
a0808990:	24420001 	addiu	v0,v0,1
a0808994:	afc20000 	sw	v0,0(s8)
a0808998:	8fc20000 	lw	v0,0(s8)
a080899c:	28421000 	slti	v0,v0,4096
a08089a0:	1440fff5 	bnez	v0,a0808978 <init_read_buffer+0x18>
a08089a4:	00000000 	nop
a08089a8:	03c0e821 	move	sp,s8
a08089ac:	8fbe000c 	lw	s8,12(sp)
a08089b0:	27bd0010 	addiu	sp,sp,16
a08089b4:	03e00008 	jr	ra
a08089b8:	00000000 	nop

a08089bc <init_tmp_path>:
a08089bc:	27bdfff0 	addiu	sp,sp,-16
a08089c0:	afbe000c 	sw	s8,12(sp)
a08089c4:	03a0f021 	move	s8,sp
a08089c8:	afc00004 	sw	zero,4(s8)
a08089cc:	0820228c 	j	a0808a30 <init_tmp_path+0x74>
a08089d0:	00000000 	nop
a08089d4:	afc00000 	sw	zero,0(s8)
a08089d8:	08202285 	j	a0808a14 <init_tmp_path+0x58>
a08089dc:	00000000 	nop
a08089e0:	8fc20004 	lw	v0,4(s8)
a08089e4:	8fc40000 	lw	a0,0(s8)
a08089e8:	3c05a084 	lui	a1,0xa084
a08089ec:	000218c0 	sll	v1,v0,0x3
a08089f0:	000310c0 	sll	v0,v1,0x3
a08089f4:	00431023 	subu	v0,v0,v1
a08089f8:	00441821 	addu	v1,v0,a0
a08089fc:	24a27d18 	addiu	v0,a1,32024
a0808a00:	00621021 	addu	v0,v1,v0
a0808a04:	a0400000 	sb	zero,0(v0)
a0808a08:	8fc20000 	lw	v0,0(s8)
a0808a0c:	24420001 	addiu	v0,v0,1
a0808a10:	afc20000 	sw	v0,0(s8)
a0808a14:	8fc20000 	lw	v0,0(s8)
a0808a18:	2c420038 	sltiu	v0,v0,56
a0808a1c:	1440fff0 	bnez	v0,a08089e0 <init_tmp_path+0x24>
a0808a20:	00000000 	nop
a0808a24:	8fc20004 	lw	v0,4(s8)
a0808a28:	24420001 	addiu	v0,v0,1
a0808a2c:	afc20004 	sw	v0,4(s8)
a0808a30:	8fc20004 	lw	v0,4(s8)
a0808a34:	2c420004 	sltiu	v0,v0,4
a0808a38:	1440ffe6 	bnez	v0,a08089d4 <init_tmp_path+0x18>
a0808a3c:	00000000 	nop
a0808a40:	03c0e821 	move	sp,s8
a0808a44:	8fbe000c 	lw	s8,12(sp)
a0808a48:	27bd0010 	addiu	sp,sp,16
a0808a4c:	03e00008 	jr	ra
a0808a50:	00000000 	nop

a0808a54 <load_dentry_arr>:
a0808a54:	27bdffe8 	addiu	sp,sp,-24
a0808a58:	afbf0014 	sw	ra,20(sp)
a0808a5c:	afbe0010 	sw	s8,16(sp)
a0808a60:	03a0f021 	move	s8,sp
a0808a64:	afc40018 	sw	a0,24(s8)
a0808a68:	8fc30018 	lw	v1,24(s8)
a0808a6c:	3c020002 	lui	v0,0x2
a0808a70:	00621021 	addu	v0,v1,v0
a0808a74:	00021b00 	sll	v1,v0,0xc
a0808a78:	3c02a084 	lui	v0,0xa084
a0808a7c:	24446d18 	addiu	a0,v0,27928
a0808a80:	00602821 	move	a1,v1
a0808a84:	24061000 	li	a2,4096
a0808a88:	0c2032e6 	jal	a080cb98 <.pic.sdread>
a0808a8c:	00000000 	nop
a0808a90:	3c02a084 	lui	v0,0xa084
a0808a94:	24427df8 	addiu	v0,v0,32248
a0808a98:	00402021 	move	a0,v0
a0808a9c:	3c02a084 	lui	v0,0xa084
a0808aa0:	24456d18 	addiu	a1,v0,27928
a0808aa4:	24061000 	li	a2,4096
a0808aa8:	0c20167d 	jal	a08059f4 <os_memcpy>
a0808aac:	00000000 	nop
a0808ab0:	03c0e821 	move	sp,s8
a0808ab4:	8fbf0014 	lw	ra,20(sp)
a0808ab8:	8fbe0010 	lw	s8,16(sp)
a0808abc:	27bd0018 	addiu	sp,sp,24
a0808ac0:	03e00008 	jr	ra
a0808ac4:	00000000 	nop

a0808ac8 <get_inode>:
a0808ac8:	27bdffe8 	addiu	sp,sp,-24
a0808acc:	afbe0014 	sw	s8,20(sp)
a0808ad0:	03a0f021 	move	s8,sp
a0808ad4:	afc40018 	sw	a0,24(s8)
a0808ad8:	8fc20018 	lw	v0,24(s8)
a0808adc:	00021182 	srl	v0,v0,0x6
a0808ae0:	afc20004 	sw	v0,4(s8)
a0808ae4:	8fc20018 	lw	v0,24(s8)
a0808ae8:	3042003f 	andi	v0,v0,0x3f
a0808aec:	afc20000 	sw	v0,0(s8)
a0808af0:	3c02a085 	lui	v0,0xa085
a0808af4:	24448df8 	addiu	a0,v0,-29192
a0808af8:	8fc20004 	lw	v0,4(s8)
a0808afc:	00021980 	sll	v1,v0,0x6
a0808b00:	8fc20000 	lw	v0,0(s8)
a0808b04:	00621021 	addu	v0,v1,v0
a0808b08:	00021180 	sll	v0,v0,0x6
a0808b0c:	00821021 	addu	v0,a0,v0
a0808b10:	afc20008 	sw	v0,8(s8)
a0808b14:	8fc20008 	lw	v0,8(s8)
a0808b18:	03c0e821 	move	sp,s8
a0808b1c:	8fbe0014 	lw	s8,20(sp)
a0808b20:	27bd0018 	addiu	sp,sp,24
a0808b24:	03e00008 	jr	ra
a0808b28:	00000000 	nop

a0808b2c <load_inode_array>:
a0808b2c:	27bdffe0 	addiu	sp,sp,-32
a0808b30:	afbf001c 	sw	ra,28(sp)
a0808b34:	afbe0018 	sw	s8,24(sp)
a0808b38:	03a0f021 	move	s8,sp
a0808b3c:	afc40020 	sw	a0,32(s8)
a0808b40:	afc00010 	sw	zero,16(s8)
a0808b44:	082022ed 	j	a0808bb4 <load_inode_array+0x88>
a0808b48:	00000000 	nop
a0808b4c:	8fc30020 	lw	v1,32(s8)
a0808b50:	8fc20010 	lw	v0,16(s8)
a0808b54:	00621821 	addu	v1,v1,v0
a0808b58:	3c020002 	lui	v0,0x2
a0808b5c:	00621021 	addu	v0,v1,v0
a0808b60:	00021b00 	sll	v1,v0,0xc
a0808b64:	3c02a084 	lui	v0,0xa084
a0808b68:	24446d18 	addiu	a0,v0,27928
a0808b6c:	00602821 	move	a1,v1
a0808b70:	24061000 	li	a2,4096
a0808b74:	0c2032e6 	jal	a080cb98 <.pic.sdread>
a0808b78:	00000000 	nop
a0808b7c:	3c02a085 	lui	v0,0xa085
a0808b80:	24438df8 	addiu	v1,v0,-29192
a0808b84:	8fc20010 	lw	v0,16(s8)
a0808b88:	00021300 	sll	v0,v0,0xc
a0808b8c:	00621021 	addu	v0,v1,v0
a0808b90:	00402021 	move	a0,v0
a0808b94:	3c02a084 	lui	v0,0xa084
a0808b98:	24456d18 	addiu	a1,v0,27928
a0808b9c:	24061000 	li	a2,4096
a0808ba0:	0c20167d 	jal	a08059f4 <os_memcpy>
a0808ba4:	00000000 	nop
a0808ba8:	8fc20010 	lw	v0,16(s8)
a0808bac:	24420001 	addiu	v0,v0,1
a0808bb0:	afc20010 	sw	v0,16(s8)
a0808bb4:	8fc20010 	lw	v0,16(s8)
a0808bb8:	2c420004 	sltiu	v0,v0,4
a0808bbc:	1440ffe3 	bnez	v0,a0808b4c <load_inode_array+0x20>
a0808bc0:	00000000 	nop
a0808bc4:	03c0e821 	move	sp,s8
a0808bc8:	8fbf001c 	lw	ra,28(sp)
a0808bcc:	8fbe0018 	lw	s8,24(sp)
a0808bd0:	27bd0020 	addiu	sp,sp,32
a0808bd4:	03e00008 	jr	ra
a0808bd8:	00000000 	nop

a0808bdc <init_inode>:
a0808bdc:	27bdfff0 	addiu	sp,sp,-16
a0808be0:	afbe000c 	sw	s8,12(sp)
a0808be4:	03a0f021 	move	s8,sp
a0808be8:	afc40010 	sw	a0,16(s8)
a0808bec:	afc00000 	sw	zero,0(s8)
a0808bf0:	8fc20010 	lw	v0,16(s8)
a0808bf4:	ac400000 	sw	zero,0(v0)
a0808bf8:	8fc20010 	lw	v0,16(s8)
a0808bfc:	ac400004 	sw	zero,4(v0)
a0808c00:	8fc20010 	lw	v0,16(s8)
a0808c04:	ac400008 	sw	zero,8(v0)
a0808c08:	8fc20010 	lw	v0,16(s8)
a0808c0c:	ac40000c 	sw	zero,12(v0)
a0808c10:	8fc20010 	lw	v0,16(s8)
a0808c14:	ac400038 	sw	zero,56(v0)
a0808c18:	8fc20010 	lw	v0,16(s8)
a0808c1c:	ac40003c 	sw	zero,60(v0)
a0808c20:	afc00000 	sw	zero,0(s8)
a0808c24:	08202314 	j	a0808c50 <init_inode+0x74>
a0808c28:	00000000 	nop
a0808c2c:	8fc20000 	lw	v0,0(s8)
a0808c30:	8fc30010 	lw	v1,16(s8)
a0808c34:	24420004 	addiu	v0,v0,4
a0808c38:	00021080 	sll	v0,v0,0x2
a0808c3c:	00621021 	addu	v0,v1,v0
a0808c40:	ac400000 	sw	zero,0(v0)
a0808c44:	8fc20000 	lw	v0,0(s8)
a0808c48:	24420001 	addiu	v0,v0,1
a0808c4c:	afc20000 	sw	v0,0(s8)
a0808c50:	8fc20000 	lw	v0,0(s8)
a0808c54:	2842000a 	slti	v0,v0,10
a0808c58:	1440fff4 	bnez	v0,a0808c2c <init_inode+0x50>
a0808c5c:	00000000 	nop
a0808c60:	03c0e821 	move	sp,s8
a0808c64:	8fbe000c 	lw	s8,12(sp)
a0808c68:	27bd0010 	addiu	sp,sp,16
a0808c6c:	03e00008 	jr	ra
a0808c70:	00000000 	nop

a0808c74 <write_bitmap>:
a0808c74:	27bdffd0 	addiu	sp,sp,-48
a0808c78:	afbf002c 	sw	ra,44(sp)
a0808c7c:	afbe0028 	sw	s8,40(sp)
a0808c80:	03a0f021 	move	s8,sp
a0808c84:	afc40030 	sw	a0,48(s8)
a0808c88:	afc50034 	sw	a1,52(s8)
a0808c8c:	afc60038 	sw	a2,56(s8)
a0808c90:	8fc20038 	lw	v0,56(s8)
a0808c94:	00021142 	srl	v0,v0,0x5
a0808c98:	afc20020 	sw	v0,32(s8)
a0808c9c:	8fc20038 	lw	v0,56(s8)
a0808ca0:	3042001f 	andi	v0,v0,0x1f
a0808ca4:	afc2001c 	sw	v0,28(s8)
a0808ca8:	afc00014 	sw	zero,20(s8)
a0808cac:	8fc20020 	lw	v0,32(s8)
a0808cb0:	1040001c 	beqz	v0,a0808d24 <write_bitmap+0xb0>
a0808cb4:	00000000 	nop
a0808cb8:	08202339 	j	a0808ce4 <write_bitmap+0x70>
a0808cbc:	00000000 	nop
a0808cc0:	8fc20014 	lw	v0,20(s8)
a0808cc4:	00021880 	sll	v1,v0,0x2
a0808cc8:	8fc20030 	lw	v0,48(s8)
a0808ccc:	00431821 	addu	v1,v0,v1
a0808cd0:	2402ffff 	li	v0,-1
a0808cd4:	ac620000 	sw	v0,0(v1)
a0808cd8:	8fc20014 	lw	v0,20(s8)
a0808cdc:	24420001 	addiu	v0,v0,1
a0808ce0:	afc20014 	sw	v0,20(s8)
a0808ce4:	8fc20014 	lw	v0,20(s8)
a0808ce8:	8fc30020 	lw	v1,32(s8)
a0808cec:	0043102b 	sltu	v0,v0,v1
a0808cf0:	1440fff3 	bnez	v0,a0808cc0 <write_bitmap+0x4c>
a0808cf4:	00000000 	nop
a0808cf8:	8fc20014 	lw	v0,20(s8)
a0808cfc:	8fc30034 	lw	v1,52(s8)
a0808d00:	0043102b 	sltu	v0,v0,v1
a0808d04:	14400007 	bnez	v0,a0808d24 <write_bitmap+0xb0>
a0808d08:	00000000 	nop
a0808d0c:	3c02a081 	lui	v0,0xa081
a0808d10:	2444d1e0 	addiu	a0,v0,-11808
a0808d14:	0c201981 	jal	a0806604 <printk>
a0808d18:	00000000 	nop
a0808d1c:	08202347 	j	a0808d1c <write_bitmap+0xa8>
a0808d20:	00000000 	nop
a0808d24:	afc00018 	sw	zero,24(s8)
a0808d28:	afc00010 	sw	zero,16(s8)
a0808d2c:	08202356 	j	a0808d58 <write_bitmap+0xe4>
a0808d30:	00000000 	nop
a0808d34:	8fc20018 	lw	v0,24(s8)
a0808d38:	00021040 	sll	v0,v0,0x1
a0808d3c:	afc20018 	sw	v0,24(s8)
a0808d40:	8fc20018 	lw	v0,24(s8)
a0808d44:	24420001 	addiu	v0,v0,1
a0808d48:	afc20018 	sw	v0,24(s8)
a0808d4c:	8fc20010 	lw	v0,16(s8)
a0808d50:	24420001 	addiu	v0,v0,1
a0808d54:	afc20010 	sw	v0,16(s8)
a0808d58:	8fc20010 	lw	v0,16(s8)
a0808d5c:	8fc3001c 	lw	v1,28(s8)
a0808d60:	0043102b 	sltu	v0,v0,v1
a0808d64:	1440fff3 	bnez	v0,a0808d34 <write_bitmap+0xc0>
a0808d68:	00000000 	nop
a0808d6c:	8fc20014 	lw	v0,20(s8)
a0808d70:	00021880 	sll	v1,v0,0x2
a0808d74:	8fc20030 	lw	v0,48(s8)
a0808d78:	00431821 	addu	v1,v0,v1
a0808d7c:	8fc20018 	lw	v0,24(s8)
a0808d80:	ac620000 	sw	v0,0(v1)
a0808d84:	03c0e821 	move	sp,s8
a0808d88:	8fbf002c 	lw	ra,44(sp)
a0808d8c:	8fbe0028 	lw	s8,40(sp)
a0808d90:	27bd0030 	addiu	sp,sp,48
a0808d94:	03e00008 	jr	ra
a0808d98:	00000000 	nop

a0808d9c <refresh_bitmap>:
a0808d9c:	27bdffe8 	addiu	sp,sp,-24
a0808da0:	afbe0014 	sw	s8,20(sp)
a0808da4:	03a0f021 	move	s8,sp
a0808da8:	afc40018 	sw	a0,24(s8)
a0808dac:	afc5001c 	sw	a1,28(s8)
a0808db0:	afc60020 	sw	a2,32(s8)
a0808db4:	8fc2001c 	lw	v0,28(s8)
a0808db8:	00021142 	srl	v0,v0,0x5
a0808dbc:	afc2000c 	sw	v0,12(s8)
a0808dc0:	8fc2001c 	lw	v0,28(s8)
a0808dc4:	3042001f 	andi	v0,v0,0x1f
a0808dc8:	afc20008 	sw	v0,8(s8)
a0808dcc:	8fc30008 	lw	v1,8(s8)
a0808dd0:	24020001 	li	v0,1
a0808dd4:	00621004 	sllv	v0,v0,v1
a0808dd8:	afc20004 	sw	v0,4(s8)
a0808ddc:	8fc20020 	lw	v0,32(s8)
a0808de0:	1440000f 	bnez	v0,a0808e20 <refresh_bitmap+0x84>
a0808de4:	00000000 	nop
a0808de8:	8fc2000c 	lw	v0,12(s8)
a0808dec:	00021880 	sll	v1,v0,0x2
a0808df0:	8fc20018 	lw	v0,24(s8)
a0808df4:	00432021 	addu	a0,v0,v1
a0808df8:	8fc2000c 	lw	v0,12(s8)
a0808dfc:	00021880 	sll	v1,v0,0x2
a0808e00:	8fc20018 	lw	v0,24(s8)
a0808e04:	00431021 	addu	v0,v0,v1
a0808e08:	8c430000 	lw	v1,0(v0)
a0808e0c:	8fc20004 	lw	v0,4(s8)
a0808e10:	00621025 	or	v0,v1,v0
a0808e14:	ac820000 	sw	v0,0(a0)
a0808e18:	08202397 	j	a0808e5c <refresh_bitmap+0xc0>
a0808e1c:	00000000 	nop
a0808e20:	8fc20004 	lw	v0,4(s8)
a0808e24:	00021027 	nor	v0,zero,v0
a0808e28:	afc20000 	sw	v0,0(s8)
a0808e2c:	8fc2000c 	lw	v0,12(s8)
a0808e30:	00021880 	sll	v1,v0,0x2
a0808e34:	8fc20018 	lw	v0,24(s8)
a0808e38:	00432021 	addu	a0,v0,v1
a0808e3c:	8fc2000c 	lw	v0,12(s8)
a0808e40:	00021880 	sll	v1,v0,0x2
a0808e44:	8fc20018 	lw	v0,24(s8)
a0808e48:	00431021 	addu	v0,v0,v1
a0808e4c:	8c430000 	lw	v1,0(v0)
a0808e50:	8fc20000 	lw	v0,0(s8)
a0808e54:	00621024 	and	v0,v1,v0
a0808e58:	ac820000 	sw	v0,0(a0)
a0808e5c:	03c0e821 	move	sp,s8
a0808e60:	8fbe0014 	lw	s8,20(sp)
a0808e64:	27bd0018 	addiu	sp,sp,24
a0808e68:	03e00008 	jr	ra
a0808e6c:	00000000 	nop

a0808e70 <get_new_no>:
a0808e70:	27bdffe8 	addiu	sp,sp,-24
a0808e74:	afbe0014 	sw	s8,20(sp)
a0808e78:	03a0f021 	move	s8,sp
a0808e7c:	afc40018 	sw	a0,24(s8)
a0808e80:	afc5001c 	sw	a1,28(s8)
a0808e84:	afc00004 	sw	zero,4(s8)
a0808e88:	082023af 	j	a0808ebc <get_new_no+0x4c>
a0808e8c:	00000000 	nop
a0808e90:	8fc30004 	lw	v1,4(s8)
a0808e94:	8fc2001c 	lw	v0,28(s8)
a0808e98:	00621006 	srlv	v0,v0,v1
a0808e9c:	afc20000 	sw	v0,0(s8)
a0808ea0:	8fc20000 	lw	v0,0(s8)
a0808ea4:	30420001 	andi	v0,v0,0x1
a0808ea8:	10400008 	beqz	v0,a0808ecc <get_new_no+0x5c>
a0808eac:	00000000 	nop
a0808eb0:	8fc20004 	lw	v0,4(s8)
a0808eb4:	24420001 	addiu	v0,v0,1
a0808eb8:	afc20004 	sw	v0,4(s8)
a0808ebc:	8fc20004 	lw	v0,4(s8)
a0808ec0:	2c420020 	sltiu	v0,v0,32
a0808ec4:	1440fff2 	bnez	v0,a0808e90 <get_new_no+0x20>
a0808ec8:	00000000 	nop
a0808ecc:	8fc20018 	lw	v0,24(s8)
a0808ed0:	00021940 	sll	v1,v0,0x5
a0808ed4:	8fc20004 	lw	v0,4(s8)
a0808ed8:	00621021 	addu	v0,v1,v0
a0808edc:	afc20008 	sw	v0,8(s8)
a0808ee0:	8fc20008 	lw	v0,8(s8)
a0808ee4:	03c0e821 	move	sp,s8
a0808ee8:	8fbe0014 	lw	s8,20(sp)
a0808eec:	27bd0018 	addiu	sp,sp,24
a0808ef0:	03e00008 	jr	ra
a0808ef4:	00000000 	nop

a0808ef8 <do_mkfs>:
a0808ef8:	27bdff68 	addiu	sp,sp,-152
a0808efc:	afbf0094 	sw	ra,148(sp)
a0808f00:	afbe0090 	sw	s8,144(sp)
a0808f04:	03a0f021 	move	s8,sp
a0808f08:	3c02a081 	lui	v0,0xa081
a0808f0c:	8c42d94c 	lw	v0,-9908(v0)
a0808f10:	24430002 	addiu	v1,v0,2
a0808f14:	3c02a081 	lui	v0,0xa081
a0808f18:	ac43d94c 	sw	v1,-9908(v0)
a0808f1c:	3c02a081 	lui	v0,0xa081
a0808f20:	8c42d94c 	lw	v0,-9908(v0)
a0808f24:	24040001 	li	a0,1
a0808f28:	00402821 	move	a1,v0
a0808f2c:	0c2002a0 	jal	a0800a80 <vt100_move_cursor>
a0808f30:	00000000 	nop
a0808f34:	a7c0002c 	sh	zero,44(s8)
a0808f38:	24020004 	li	v0,4
a0808f3c:	afc20020 	sw	v0,32(s8)
a0808f40:	24020001 	li	v0,1
a0808f44:	afc2001c 	sw	v0,28(s8)
a0808f48:	24020004 	li	v0,4
a0808f4c:	afc20018 	sw	v0,24(s8)
a0808f50:	3c02a081 	lui	v0,0xa081
a0808f54:	2444d1f8 	addiu	a0,v0,-11784
a0808f58:	0c201981 	jal	a0806604 <printk>
a0808f5c:	00000000 	nop
a0808f60:	3c02a081 	lui	v0,0xa081
a0808f64:	8c42d94c 	lw	v0,-9908(v0)
a0808f68:	24430001 	addiu	v1,v0,1
a0808f6c:	3c02a081 	lui	v0,0xa081
a0808f70:	ac43d94c 	sw	v1,-9908(v0)
a0808f74:	3c02a084 	lui	v0,0xa084
a0808f78:	24446d18 	addiu	a0,v0,27928
a0808f7c:	3c052000 	lui	a1,0x2000
a0808f80:	24061000 	li	a2,4096
a0808f84:	0c2032e6 	jal	a080cb98 <.pic.sdread>
a0808f88:	00000000 	nop
a0808f8c:	27c20030 	addiu	v0,s8,48
a0808f90:	00402021 	move	a0,v0
a0808f94:	3c02a084 	lui	v0,0xa084
a0808f98:	24456d18 	addiu	a1,v0,27928
a0808f9c:	24060020 	li	a2,32
a0808fa0:	0c20167d 	jal	a08059f4 <os_memcpy>
a0808fa4:	00000000 	nop
a0808fa8:	8fc30030 	lw	v1,48(s8)
a0808fac:	3c020011 	lui	v0,0x11
a0808fb0:	34424514 	ori	v0,v0,0x4514
a0808fb4:	1462000e 	bne	v1,v0,a0808ff0 <do_mkfs+0xf8>
a0808fb8:	00000000 	nop
a0808fbc:	3c02a081 	lui	v0,0xa081
a0808fc0:	2444d218 	addiu	a0,v0,-11752
a0808fc4:	0c201981 	jal	a0806604 <printk>
a0808fc8:	00000000 	nop
a0808fcc:	3c02a081 	lui	v0,0xa081
a0808fd0:	8c42d94c 	lw	v0,-9908(v0)
a0808fd4:	24430001 	addiu	v1,v0,1
a0808fd8:	3c02a081 	lui	v0,0xa081
a0808fdc:	ac43d94c 	sw	v1,-9908(v0)
a0808fe0:	24020001 	li	v0,1
a0808fe4:	a7c2002c 	sh	v0,44(s8)
a0808fe8:	08202434 	j	a08090d0 <do_mkfs+0x1d8>
a0808fec:	00000000 	nop
a0808ff0:	a7c0002c 	sh	zero,44(s8)
a0808ff4:	3c02a081 	lui	v0,0xa081
a0808ff8:	2444d240 	addiu	a0,v0,-11712
a0808ffc:	0c201981 	jal	a0806604 <printk>
a0809000:	00000000 	nop
a0809004:	3c02a081 	lui	v0,0xa081
a0809008:	8c42d94c 	lw	v0,-9908(v0)
a080900c:	24430001 	addiu	v1,v0,1
a0809010:	3c02a081 	lui	v0,0xa081
a0809014:	ac43d94c 	sw	v1,-9908(v0)
a0809018:	3c02a081 	lui	v0,0xa081
a080901c:	2444d264 	addiu	a0,v0,-11676
a0809020:	0c201981 	jal	a0806604 <printk>
a0809024:	00000000 	nop
a0809028:	3c02a081 	lui	v0,0xa081
a080902c:	8c42d94c 	lw	v0,-9908(v0)
a0809030:	24430001 	addiu	v1,v0,1
a0809034:	3c02a081 	lui	v0,0xa081
a0809038:	ac43d94c 	sw	v1,-9908(v0)
a080903c:	3c020011 	lui	v0,0x11
a0809040:	34424514 	ori	v0,v0,0x4514
a0809044:	afc20030 	sw	v0,48(s8)
a0809048:	3c020002 	lui	v0,0x2
a080904c:	afc20034 	sw	v0,52(s8)
a0809050:	24020001 	li	v0,1
a0809054:	afc20038 	sw	v0,56(s8)
a0809058:	8fc30038 	lw	v1,56(s8)
a080905c:	8fc20020 	lw	v0,32(s8)
a0809060:	00621021 	addu	v0,v1,v0
a0809064:	afc2003c 	sw	v0,60(s8)
a0809068:	8fc3003c 	lw	v1,60(s8)
a080906c:	8fc2001c 	lw	v0,28(s8)
a0809070:	00621021 	addu	v0,v1,v0
a0809074:	afc20040 	sw	v0,64(s8)
a0809078:	8fc30040 	lw	v1,64(s8)
a080907c:	8fc20018 	lw	v0,24(s8)
a0809080:	00621021 	addu	v0,v1,v0
a0809084:	afc20044 	sw	v0,68(s8)
a0809088:	8fc20044 	lw	v0,68(s8)
a080908c:	24420001 	addiu	v0,v0,1
a0809090:	afc20048 	sw	v0,72(s8)
a0809094:	24020001 	li	v0,1
a0809098:	afc2004c 	sw	v0,76(s8)
a080909c:	27c30030 	addiu	v1,s8,48
a08090a0:	3c02a084 	lui	v0,0xa084
a08090a4:	24446d18 	addiu	a0,v0,27928
a08090a8:	00602821 	move	a1,v1
a08090ac:	24060020 	li	a2,32
a08090b0:	0c20167d 	jal	a08059f4 <os_memcpy>
a08090b4:	00000000 	nop
a08090b8:	3c02a084 	lui	v0,0xa084
a08090bc:	24446d18 	addiu	a0,v0,27928
a08090c0:	3c052000 	lui	a1,0x2000
a08090c4:	24061000 	li	a2,4096
a08090c8:	0c2032c6 	jal	a080cb18 <.pic.sdwrite>
a08090cc:	00000000 	nop
a08090d0:	8fc30030 	lw	v1,48(s8)
a08090d4:	3c02a081 	lui	v0,0xa081
a08090d8:	2444d280 	addiu	a0,v0,-11648
a08090dc:	00602821 	move	a1,v1
a08090e0:	0c201981 	jal	a0806604 <printk>
a08090e4:	00000000 	nop
a08090e8:	3c02a081 	lui	v0,0xa081
a08090ec:	8c42d94c 	lw	v0,-9908(v0)
a08090f0:	24430001 	addiu	v1,v0,1
a08090f4:	3c02a081 	lui	v0,0xa081
a08090f8:	ac43d94c 	sw	v1,-9908(v0)
a08090fc:	8fc30034 	lw	v1,52(s8)
a0809100:	3c02a081 	lui	v0,0xa081
a0809104:	2444d290 	addiu	a0,v0,-11632
a0809108:	00602821 	move	a1,v1
a080910c:	3c060010 	lui	a2,0x10
a0809110:	0c201981 	jal	a0806604 <printk>
a0809114:	00000000 	nop
a0809118:	3c02a081 	lui	v0,0xa081
a080911c:	8c42d94c 	lw	v0,-9908(v0)
a0809120:	24430001 	addiu	v1,v0,1
a0809124:	3c02a081 	lui	v0,0xa081
a0809128:	ac43d94c 	sw	v1,-9908(v0)
a080912c:	8fc30038 	lw	v1,56(s8)
a0809130:	3c02a081 	lui	v0,0xa081
a0809134:	2444d2c4 	addiu	a0,v0,-11580
a0809138:	00602821 	move	a1,v1
a080913c:	0c201981 	jal	a0806604 <printk>
a0809140:	00000000 	nop
a0809144:	3c02a081 	lui	v0,0xa081
a0809148:	8c42d94c 	lw	v0,-9908(v0)
a080914c:	24430001 	addiu	v1,v0,1
a0809150:	3c02a081 	lui	v0,0xa081
a0809154:	ac43d94c 	sw	v1,-9908(v0)
a0809158:	8fc3003c 	lw	v1,60(s8)
a080915c:	3c02a081 	lui	v0,0xa081
a0809160:	2444d2e0 	addiu	a0,v0,-11552
a0809164:	00602821 	move	a1,v1
a0809168:	0c201981 	jal	a0806604 <printk>
a080916c:	00000000 	nop
a0809170:	3c02a081 	lui	v0,0xa081
a0809174:	8c42d94c 	lw	v0,-9908(v0)
a0809178:	24430001 	addiu	v1,v0,1
a080917c:	3c02a081 	lui	v0,0xa081
a0809180:	ac43d94c 	sw	v1,-9908(v0)
a0809184:	8fc30040 	lw	v1,64(s8)
a0809188:	3c02a081 	lui	v0,0xa081
a080918c:	2444d2fc 	addiu	a0,v0,-11524
a0809190:	00602821 	move	a1,v1
a0809194:	0c201981 	jal	a0806604 <printk>
a0809198:	00000000 	nop
a080919c:	3c02a081 	lui	v0,0xa081
a08091a0:	8c42d94c 	lw	v0,-9908(v0)
a08091a4:	24430001 	addiu	v1,v0,1
a08091a8:	3c02a081 	lui	v0,0xa081
a08091ac:	ac43d94c 	sw	v1,-9908(v0)
a08091b0:	8fc30044 	lw	v1,68(s8)
a08091b4:	3c02a081 	lui	v0,0xa081
a08091b8:	2444d314 	addiu	a0,v0,-11500
a08091bc:	00602821 	move	a1,v1
a08091c0:	0c201981 	jal	a0806604 <printk>
a08091c4:	00000000 	nop
a08091c8:	3c02a081 	lui	v0,0xa081
a08091cc:	8c42d94c 	lw	v0,-9908(v0)
a08091d0:	24430001 	addiu	v1,v0,1
a08091d4:	3c02a081 	lui	v0,0xa081
a08091d8:	ac43d94c 	sw	v1,-9908(v0)
a08091dc:	3c02a081 	lui	v0,0xa081
a08091e0:	2444d32c 	addiu	a0,v0,-11476
a08091e4:	24050040 	li	a1,64
a08091e8:	24060040 	li	a2,64
a08091ec:	0c201981 	jal	a0806604 <printk>
a08091f0:	00000000 	nop
a08091f4:	3c02a081 	lui	v0,0xa081
a08091f8:	8c42d94c 	lw	v0,-9908(v0)
a08091fc:	24430001 	addiu	v1,v0,1
a0809200:	3c02a081 	lui	v0,0xa081
a0809204:	ac43d94c 	sw	v1,-9908(v0)
a0809208:	97c2002c 	lhu	v0,44(s8)
a080920c:	14400138 	bnez	v0,a08096f0 <do_mkfs+0x7f8>
a0809210:	00000000 	nop
a0809214:	3c02a081 	lui	v0,0xa081
a0809218:	2444d35c 	addiu	a0,v0,-11428
a080921c:	0c201981 	jal	a0806604 <printk>
a0809220:	00000000 	nop
a0809224:	3c02a081 	lui	v0,0xa081
a0809228:	8c42d94c 	lw	v0,-9908(v0)
a080922c:	24430001 	addiu	v1,v0,1
a0809230:	3c02a081 	lui	v0,0xa081
a0809234:	ac43d94c 	sw	v1,-9908(v0)
a0809238:	afc00028 	sw	zero,40(s8)
a080923c:	0820249a 	j	a0809268 <do_mkfs+0x370>
a0809240:	00000000 	nop
a0809244:	8fc20028 	lw	v0,40(s8)
a0809248:	3c03a084 	lui	v1,0xa084
a080924c:	00022080 	sll	a0,v0,0x2
a0809250:	24620e90 	addiu	v0,v1,3728
a0809254:	00821021 	addu	v0,a0,v0
a0809258:	ac400000 	sw	zero,0(v0)
a080925c:	8fc20028 	lw	v0,40(s8)
a0809260:	24420001 	addiu	v0,v0,1
a0809264:	afc20028 	sw	v0,40(s8)
a0809268:	8fc20028 	lw	v0,40(s8)
a080926c:	28421000 	slti	v0,v0,4096
a0809270:	1440fff4 	bnez	v0,a0809244 <do_mkfs+0x34c>
a0809274:	00000000 	nop
a0809278:	8fc30048 	lw	v1,72(s8)
a080927c:	3c02a084 	lui	v0,0xa084
a0809280:	24440e90 	addiu	a0,v0,3728
a0809284:	24051000 	li	a1,4096
a0809288:	00603021 	move	a2,v1
a080928c:	0c20231d 	jal	a0808c74 <write_bitmap>
a0809290:	00000000 	nop
a0809294:	3c02a084 	lui	v0,0xa084
a0809298:	24420e90 	addiu	v0,v0,3728
a080929c:	afc20010 	sw	v0,16(s8)
a08092a0:	afc00024 	sw	zero,36(s8)
a08092a4:	082024c4 	j	a0809310 <do_mkfs+0x418>
a08092a8:	00000000 	nop
a08092ac:	8fc30010 	lw	v1,16(s8)
a08092b0:	3c02a084 	lui	v0,0xa084
a08092b4:	24446d18 	addiu	a0,v0,27928
a08092b8:	00602821 	move	a1,v1
a08092bc:	24061000 	li	a2,4096
a08092c0:	0c20167d 	jal	a08059f4 <os_memcpy>
a08092c4:	00000000 	nop
a08092c8:	8fc30038 	lw	v1,56(s8)
a08092cc:	8fc20024 	lw	v0,36(s8)
a08092d0:	00621821 	addu	v1,v1,v0
a08092d4:	3c020002 	lui	v0,0x2
a08092d8:	00621021 	addu	v0,v1,v0
a08092dc:	00021b00 	sll	v1,v0,0xc
a08092e0:	3c02a084 	lui	v0,0xa084
a08092e4:	24446d18 	addiu	a0,v0,27928
a08092e8:	00602821 	move	a1,v1
a08092ec:	24061000 	li	a2,4096
a08092f0:	0c2032c6 	jal	a080cb18 <.pic.sdwrite>
a08092f4:	00000000 	nop
a08092f8:	8fc20010 	lw	v0,16(s8)
a08092fc:	24421000 	addiu	v0,v0,4096
a0809300:	afc20010 	sw	v0,16(s8)
a0809304:	8fc20024 	lw	v0,36(s8)
a0809308:	24420001 	addiu	v0,v0,1
a080930c:	afc20024 	sw	v0,36(s8)
a0809310:	8fc20024 	lw	v0,36(s8)
a0809314:	8fc30020 	lw	v1,32(s8)
a0809318:	0043102b 	sltu	v0,v0,v1
a080931c:	1440ffe3 	bnez	v0,a08092ac <do_mkfs+0x3b4>
a0809320:	00000000 	nop
a0809324:	3c02a081 	lui	v0,0xa081
a0809328:	2444d378 	addiu	a0,v0,-11400
a080932c:	0c201981 	jal	a0806604 <printk>
a0809330:	00000000 	nop
a0809334:	3c02a081 	lui	v0,0xa081
a0809338:	8c42d94c 	lw	v0,-9908(v0)
a080933c:	24430001 	addiu	v1,v0,1
a0809340:	3c02a081 	lui	v0,0xa081
a0809344:	ac43d94c 	sw	v1,-9908(v0)
a0809348:	afc00028 	sw	zero,40(s8)
a080934c:	082024de 	j	a0809378 <do_mkfs+0x480>
a0809350:	00000000 	nop
a0809354:	8fc20028 	lw	v0,40(s8)
a0809358:	3c03a084 	lui	v1,0xa084
a080935c:	00022080 	sll	a0,v0,0x2
a0809360:	24620990 	addiu	v0,v1,2448
a0809364:	00821021 	addu	v0,a0,v0
a0809368:	ac400000 	sw	zero,0(v0)
a080936c:	8fc20028 	lw	v0,40(s8)
a0809370:	24420001 	addiu	v0,v0,1
a0809374:	afc20028 	sw	v0,40(s8)
a0809378:	8fc20028 	lw	v0,40(s8)
a080937c:	28420008 	slti	v0,v0,8
a0809380:	1440fff4 	bnez	v0,a0809354 <do_mkfs+0x45c>
a0809384:	00000000 	nop
a0809388:	8fc3004c 	lw	v1,76(s8)
a080938c:	3c02a084 	lui	v0,0xa084
a0809390:	24440990 	addiu	a0,v0,2448
a0809394:	24050008 	li	a1,8
a0809398:	00603021 	move	a2,v1
a080939c:	0c20231d 	jal	a0808c74 <write_bitmap>
a08093a0:	00000000 	nop
a08093a4:	8fc2001c 	lw	v0,28(s8)
a08093a8:	2c420002 	sltiu	v0,v0,2
a08093ac:	10400015 	beqz	v0,a0809404 <do_mkfs+0x50c>
a08093b0:	00000000 	nop
a08093b4:	3c02a084 	lui	v0,0xa084
a08093b8:	24430990 	addiu	v1,v0,2448
a08093bc:	3c02a084 	lui	v0,0xa084
a08093c0:	24446d18 	addiu	a0,v0,27928
a08093c4:	00602821 	move	a1,v1
a08093c8:	24060020 	li	a2,32
a08093cc:	0c20167d 	jal	a08059f4 <os_memcpy>
a08093d0:	00000000 	nop
a08093d4:	8fc3003c 	lw	v1,60(s8)
a08093d8:	3c020002 	lui	v0,0x2
a08093dc:	00621021 	addu	v0,v1,v0
a08093e0:	00021b00 	sll	v1,v0,0xc
a08093e4:	3c02a084 	lui	v0,0xa084
a08093e8:	24446d18 	addiu	a0,v0,27928
a08093ec:	00602821 	move	a1,v1
a08093f0:	24061000 	li	a2,4096
a08093f4:	0c2032c6 	jal	a080cb18 <.pic.sdwrite>
a08093f8:	00000000 	nop
a08093fc:	08202525 	j	a0809494 <do_mkfs+0x59c>
a0809400:	00000000 	nop
a0809404:	3c02a084 	lui	v0,0xa084
a0809408:	24420990 	addiu	v0,v0,2448
a080940c:	afc20014 	sw	v0,20(s8)
a0809410:	afc00024 	sw	zero,36(s8)
a0809414:	08202520 	j	a0809480 <do_mkfs+0x588>
a0809418:	00000000 	nop
a080941c:	8fc30014 	lw	v1,20(s8)
a0809420:	3c02a084 	lui	v0,0xa084
a0809424:	24446d18 	addiu	a0,v0,27928
a0809428:	00602821 	move	a1,v1
a080942c:	24061000 	li	a2,4096
a0809430:	0c20167d 	jal	a08059f4 <os_memcpy>
a0809434:	00000000 	nop
a0809438:	8fc3003c 	lw	v1,60(s8)
a080943c:	8fc20024 	lw	v0,36(s8)
a0809440:	00621821 	addu	v1,v1,v0
a0809444:	3c020002 	lui	v0,0x2
a0809448:	00621021 	addu	v0,v1,v0
a080944c:	00021b00 	sll	v1,v0,0xc
a0809450:	3c02a084 	lui	v0,0xa084
a0809454:	24446d18 	addiu	a0,v0,27928
a0809458:	00602821 	move	a1,v1
a080945c:	24061000 	li	a2,4096
a0809460:	0c2032c6 	jal	a080cb18 <.pic.sdwrite>
a0809464:	00000000 	nop
a0809468:	8fc20014 	lw	v0,20(s8)
a080946c:	24421000 	addiu	v0,v0,4096
a0809470:	afc20014 	sw	v0,20(s8)
a0809474:	8fc20024 	lw	v0,36(s8)
a0809478:	24420001 	addiu	v0,v0,1
a080947c:	afc20024 	sw	v0,36(s8)
a0809480:	8fc20024 	lw	v0,36(s8)
a0809484:	8fc3001c 	lw	v1,28(s8)
a0809488:	0043102b 	sltu	v0,v0,v1
a080948c:	1440ffe3 	bnez	v0,a080941c <do_mkfs+0x524>
a0809490:	00000000 	nop
a0809494:	3c02a081 	lui	v0,0xa081
a0809498:	2444d394 	addiu	a0,v0,-11372
a080949c:	0c201981 	jal	a0806604 <printk>
a08094a0:	00000000 	nop
a08094a4:	3c02a081 	lui	v0,0xa081
a08094a8:	8c42d94c 	lw	v0,-9908(v0)
a08094ac:	24430001 	addiu	v1,v0,1
a08094b0:	3c02a081 	lui	v0,0xa081
a08094b4:	ac43d94c 	sw	v1,-9908(v0)
a08094b8:	24020001 	li	v0,1
a08094bc:	afc20050 	sw	v0,80(s8)
a08094c0:	24020002 	li	v0,2
a08094c4:	afc20058 	sw	v0,88(s8)
a08094c8:	afc0005c 	sw	zero,92(s8)
a08094cc:	0c2012e6 	jal	a0804b98 <get_timer>
a08094d0:	00000000 	nop
a08094d4:	afc20054 	sw	v0,84(s8)
a08094d8:	afc00028 	sw	zero,40(s8)
a08094dc:	08202542 	j	a0809508 <do_mkfs+0x610>
a08094e0:	00000000 	nop
a08094e4:	8fc20028 	lw	v0,40(s8)
a08094e8:	24420004 	addiu	v0,v0,4
a08094ec:	00021080 	sll	v0,v0,0x2
a08094f0:	27c30010 	addiu	v1,s8,16
a08094f4:	00621021 	addu	v0,v1,v0
a08094f8:	ac400040 	sw	zero,64(v0)
a08094fc:	8fc20028 	lw	v0,40(s8)
a0809500:	24420001 	addiu	v0,v0,1
a0809504:	afc20028 	sw	v0,40(s8)
a0809508:	8fc20028 	lw	v0,40(s8)
a080950c:	2842000a 	slti	v0,v0,10
a0809510:	1440fff4 	bnez	v0,a08094e4 <do_mkfs+0x5ec>
a0809514:	00000000 	nop
a0809518:	8fc20048 	lw	v0,72(s8)
a080951c:	2442ffff 	addiu	v0,v0,-1
a0809520:	afc20060 	sw	v0,96(s8)
a0809524:	afc00088 	sw	zero,136(s8)
a0809528:	afc0008c 	sw	zero,140(s8)
a080952c:	27c30050 	addiu	v1,s8,80
a0809530:	3c02a084 	lui	v0,0xa084
a0809534:	24446d18 	addiu	a0,v0,27928
a0809538:	00602821 	move	a1,v1
a080953c:	24060040 	li	a2,64
a0809540:	0c20167d 	jal	a08059f4 <os_memcpy>
a0809544:	00000000 	nop
a0809548:	8fc30040 	lw	v1,64(s8)
a080954c:	3c020002 	lui	v0,0x2
a0809550:	00621021 	addu	v0,v1,v0
a0809554:	00021b00 	sll	v1,v0,0xc
a0809558:	3c02a084 	lui	v0,0xa084
a080955c:	24446d18 	addiu	a0,v0,27928
a0809560:	00602821 	move	a1,v1
a0809564:	24061000 	li	a2,4096
a0809568:	0c2032c6 	jal	a080cb18 <.pic.sdwrite>
a080956c:	00000000 	nop
a0809570:	afc00024 	sw	zero,36(s8)
a0809574:	08202574 	j	a08095d0 <do_mkfs+0x6d8>
a0809578:	00000000 	nop
a080957c:	8fc40024 	lw	a0,36(s8)
a0809580:	3c02a084 	lui	v0,0xa084
a0809584:	24437df8 	addiu	v1,v0,32248
a0809588:	00041180 	sll	v0,a0,0x6
a080958c:	00621021 	addu	v0,v1,v0
a0809590:	ac40003c 	sw	zero,60(v0)
a0809594:	8fc20024 	lw	v0,36(s8)
a0809598:	3c03a084 	lui	v1,0xa084
a080959c:	00022180 	sll	a0,v0,0x6
a08095a0:	24627df8 	addiu	v0,v1,32248
a08095a4:	00821021 	addu	v0,a0,v0
a08095a8:	ac400038 	sw	zero,56(v0)
a08095ac:	8fc20024 	lw	v0,36(s8)
a08095b0:	3c03a084 	lui	v1,0xa084
a08095b4:	00022180 	sll	a0,v0,0x6
a08095b8:	24627df8 	addiu	v0,v1,32248
a08095bc:	00821021 	addu	v0,a0,v0
a08095c0:	a0400000 	sb	zero,0(v0)
a08095c4:	8fc20024 	lw	v0,36(s8)
a08095c8:	24420001 	addiu	v0,v0,1
a08095cc:	afc20024 	sw	v0,36(s8)
a08095d0:	8fc20024 	lw	v0,36(s8)
a08095d4:	2c420040 	sltiu	v0,v0,64
a08095d8:	1440ffe8 	bnez	v0,a080957c <do_mkfs+0x684>
a08095dc:	00000000 	nop
a08095e0:	3c02a084 	lui	v0,0xa084
a08095e4:	24427df8 	addiu	v0,v0,32248
a08095e8:	ac40003c 	sw	zero,60(v0)
a08095ec:	3c02a084 	lui	v0,0xa084
a08095f0:	24427df8 	addiu	v0,v0,32248
a08095f4:	ac40007c 	sw	zero,124(v0)
a08095f8:	3c02a084 	lui	v0,0xa084
a08095fc:	24447df8 	addiu	a0,v0,32248
a0809600:	3c02a081 	lui	v0,0xa081
a0809604:	2445d3ac 	addiu	a1,v0,-11348
a0809608:	24060002 	li	a2,2
a080960c:	0c20167d 	jal	a08059f4 <os_memcpy>
a0809610:	00000000 	nop
a0809614:	3c02a084 	lui	v0,0xa084
a0809618:	24447e38 	addiu	a0,v0,32312
a080961c:	3c02a081 	lui	v0,0xa081
a0809620:	2445d3ac 	addiu	a1,v0,-11348
a0809624:	24060002 	li	a2,2
a0809628:	0c20167d 	jal	a08059f4 <os_memcpy>
a080962c:	00000000 	nop
a0809630:	3c02a084 	lui	v0,0xa084
a0809634:	24437df8 	addiu	v1,v0,32248
a0809638:	24020001 	li	v0,1
a080963c:	ac620038 	sw	v0,56(v1)
a0809640:	3c02a084 	lui	v0,0xa084
a0809644:	24437df8 	addiu	v1,v0,32248
a0809648:	24020001 	li	v0,1
a080964c:	ac620078 	sw	v0,120(v1)
a0809650:	3c02a084 	lui	v0,0xa084
a0809654:	24437df8 	addiu	v1,v0,32248
a0809658:	3c02a084 	lui	v0,0xa084
a080965c:	24446d18 	addiu	a0,v0,27928
a0809660:	00602821 	move	a1,v1
a0809664:	24061000 	li	a2,4096
a0809668:	0c20167d 	jal	a08059f4 <os_memcpy>
a080966c:	00000000 	nop
a0809670:	8fc30060 	lw	v1,96(s8)
a0809674:	3c020002 	lui	v0,0x2
a0809678:	00621021 	addu	v0,v1,v0
a080967c:	00021b00 	sll	v1,v0,0xc
a0809680:	3c02a084 	lui	v0,0xa084
a0809684:	24446d18 	addiu	a0,v0,27928
a0809688:	00602821 	move	a1,v1
a080968c:	24061000 	li	a2,4096
a0809690:	0c2032c6 	jal	a080cb18 <.pic.sdwrite>
a0809694:	00000000 	nop
a0809698:	3c02a081 	lui	v0,0xa081
a080969c:	2444d3b0 	addiu	a0,v0,-11344
a08096a0:	0c201981 	jal	a0806604 <printk>
a08096a4:	00000000 	nop
a08096a8:	3c02a081 	lui	v0,0xa081
a08096ac:	8c42d94c 	lw	v0,-9908(v0)
a08096b0:	24430001 	addiu	v1,v0,1
a08096b4:	3c02a081 	lui	v0,0xa081
a08096b8:	ac43d94c 	sw	v1,-9908(v0)
a08096bc:	3c03a081 	lui	v1,0xa081
a08096c0:	24020001 	li	v0,1
a08096c4:	ac62d92c 	sw	v0,-9940(v1)
a08096c8:	3c02a081 	lui	v0,0xa081
a08096cc:	ac40d928 	sw	zero,-9944(v0)
a08096d0:	3c02a084 	lui	v0,0xa084
a08096d4:	244209b0 	addiu	v0,v0,2480
a08096d8:	00402021 	move	a0,v0
a08096dc:	3c02a081 	lui	v0,0xa081
a08096e0:	2445d3ac 	addiu	a1,v0,-11348
a08096e4:	24060002 	li	a2,2
a08096e8:	0c20167d 	jal	a08059f4 <os_memcpy>
a08096ec:	00000000 	nop
a08096f0:	03c0e821 	move	sp,s8
a08096f4:	8fbf0094 	lw	ra,148(sp)
a08096f8:	8fbe0090 	lw	s8,144(sp)
a08096fc:	27bd0098 	addiu	sp,sp,152
a0809700:	03e00008 	jr	ra
a0809704:	00000000 	nop

a0809708 <do_statfs>:
a0809708:	27bdffc0 	addiu	sp,sp,-64
a080970c:	afbf003c 	sw	ra,60(sp)
a0809710:	afbe0038 	sw	s8,56(sp)
a0809714:	03a0f021 	move	s8,sp
a0809718:	3c02a081 	lui	v0,0xa081
a080971c:	8c42d94c 	lw	v0,-9908(v0)
a0809720:	24430002 	addiu	v1,v0,2
a0809724:	3c02a081 	lui	v0,0xa081
a0809728:	ac43d94c 	sw	v1,-9908(v0)
a080972c:	3c02a081 	lui	v0,0xa081
a0809730:	8c42d94c 	lw	v0,-9908(v0)
a0809734:	24040001 	li	a0,1
a0809738:	00402821 	move	a1,v0
a080973c:	0c2002a0 	jal	a0800a80 <vt100_move_cursor>
a0809740:	00000000 	nop
a0809744:	3c02a084 	lui	v0,0xa084
a0809748:	24446d18 	addiu	a0,v0,27928
a080974c:	3c052000 	lui	a1,0x2000
a0809750:	24061000 	li	a2,4096
a0809754:	0c2032e6 	jal	a080cb98 <.pic.sdread>
a0809758:	00000000 	nop
a080975c:	27c20018 	addiu	v0,s8,24
a0809760:	00402021 	move	a0,v0
a0809764:	3c02a084 	lui	v0,0xa084
a0809768:	24456d18 	addiu	a1,v0,27928
a080976c:	24060020 	li	a2,32
a0809770:	0c20167d 	jal	a08059f4 <os_memcpy>
a0809774:	00000000 	nop
a0809778:	8fc30018 	lw	v1,24(s8)
a080977c:	3c02a081 	lui	v0,0xa081
a0809780:	2444d3d4 	addiu	a0,v0,-11308
a0809784:	00602821 	move	a1,v1
a0809788:	0c201981 	jal	a0806604 <printk>
a080978c:	00000000 	nop
a0809790:	3c02a081 	lui	v0,0xa081
a0809794:	8c42d94c 	lw	v0,-9908(v0)
a0809798:	24430001 	addiu	v1,v0,1
a080979c:	3c02a081 	lui	v0,0xa081
a08097a0:	ac43d94c 	sw	v1,-9908(v0)
a08097a4:	8fc30030 	lw	v1,48(s8)
a08097a8:	3c022000 	lui	v0,0x2000
a08097ac:	afa20010 	sw	v0,16(sp)
a08097b0:	3c02a081 	lui	v0,0xa081
a08097b4:	2444d3e0 	addiu	a0,v0,-11296
a08097b8:	00602821 	move	a1,v1
a08097bc:	3c060002 	lui	a2,0x2
a08097c0:	3c070010 	lui	a3,0x10
a08097c4:	0c201981 	jal	a0806604 <printk>
a08097c8:	00000000 	nop
a08097cc:	3c02a081 	lui	v0,0xa081
a08097d0:	8c42d94c 	lw	v0,-9908(v0)
a08097d4:	24430001 	addiu	v1,v0,1
a08097d8:	3c02a081 	lui	v0,0xa081
a08097dc:	ac43d94c 	sw	v1,-9908(v0)
a08097e0:	8fc50024 	lw	a1,36(s8)
a08097e4:	8fc30028 	lw	v1,40(s8)
a08097e8:	8fc20024 	lw	v0,36(s8)
a08097ec:	00621823 	subu	v1,v1,v0
a08097f0:	8fc70034 	lw	a3,52(s8)
a08097f4:	24020100 	li	v0,256
a08097f8:	afa20010 	sw	v0,16(sp)
a08097fc:	3c02a081 	lui	v0,0xa081
a0809800:	2444d40c 	addiu	a0,v0,-11252
a0809804:	00603021 	move	a2,v1
a0809808:	0c201981 	jal	a0806604 <printk>
a080980c:	00000000 	nop
a0809810:	3c02a081 	lui	v0,0xa081
a0809814:	8c42d94c 	lw	v0,-9908(v0)
a0809818:	24430001 	addiu	v1,v0,1
a080981c:	3c02a081 	lui	v0,0xa081
a0809820:	ac43d94c 	sw	v1,-9908(v0)
a0809824:	8fc50020 	lw	a1,32(s8)
a0809828:	8fc30024 	lw	v1,36(s8)
a080982c:	8fc20020 	lw	v0,32(s8)
a0809830:	00621823 	subu	v1,v1,v0
a0809834:	3c02a081 	lui	v0,0xa081
a0809838:	2444d444 	addiu	a0,v0,-11196
a080983c:	00603021 	move	a2,v1
a0809840:	0c201981 	jal	a0806604 <printk>
a0809844:	00000000 	nop
a0809848:	3c02a081 	lui	v0,0xa081
a080984c:	8c42d94c 	lw	v0,-9908(v0)
a0809850:	24430001 	addiu	v1,v0,1
a0809854:	3c02a081 	lui	v0,0xa081
a0809858:	ac43d94c 	sw	v1,-9908(v0)
a080985c:	8fc50028 	lw	a1,40(s8)
a0809860:	8fc3002c 	lw	v1,44(s8)
a0809864:	8fc20028 	lw	v0,40(s8)
a0809868:	00621823 	subu	v1,v1,v0
a080986c:	3c02a081 	lui	v0,0xa081
a0809870:	2444d470 	addiu	a0,v0,-11152
a0809874:	00603021 	move	a2,v1
a0809878:	0c201981 	jal	a0806604 <printk>
a080987c:	00000000 	nop
a0809880:	3c02a081 	lui	v0,0xa081
a0809884:	8c42d94c 	lw	v0,-9908(v0)
a0809888:	24430001 	addiu	v1,v0,1
a080988c:	3c02a081 	lui	v0,0xa081
a0809890:	ac43d94c 	sw	v1,-9908(v0)
a0809894:	8fc5002c 	lw	a1,44(s8)
a0809898:	8fc3002c 	lw	v1,44(s8)
a080989c:	3c020002 	lui	v0,0x2
a08098a0:	00431823 	subu	v1,v0,v1
a08098a4:	3c02a081 	lui	v0,0xa081
a08098a8:	2444d498 	addiu	a0,v0,-11112
a08098ac:	00603021 	move	a2,v1
a08098b0:	0c201981 	jal	a0806604 <printk>
a08098b4:	00000000 	nop
a08098b8:	3c02a081 	lui	v0,0xa081
a08098bc:	8c42d94c 	lw	v0,-9908(v0)
a08098c0:	24430001 	addiu	v1,v0,1
a08098c4:	3c02a081 	lui	v0,0xa081
a08098c8:	ac43d94c 	sw	v1,-9908(v0)
a08098cc:	3c02a081 	lui	v0,0xa081
a08098d0:	2444d4c0 	addiu	a0,v0,-11072
a08098d4:	24050040 	li	a1,64
a08098d8:	24060040 	li	a2,64
a08098dc:	0c201981 	jal	a0806604 <printk>
a08098e0:	00000000 	nop
a08098e4:	3c02a081 	lui	v0,0xa081
a08098e8:	8c42d94c 	lw	v0,-9908(v0)
a08098ec:	24430001 	addiu	v1,v0,1
a08098f0:	3c02a081 	lui	v0,0xa081
a08098f4:	ac43d94c 	sw	v1,-9908(v0)
a08098f8:	8fc30018 	lw	v1,24(s8)
a08098fc:	3c020011 	lui	v0,0x11
a0809900:	34424514 	ori	v0,v0,0x4514
a0809904:	1062000a 	beq	v1,v0,a0809930 <do_statfs+0x228>
a0809908:	00000000 	nop
a080990c:	3c02a081 	lui	v0,0xa081
a0809910:	2444d4ec 	addiu	a0,v0,-11028
a0809914:	0c201981 	jal	a0806604 <printk>
a0809918:	00000000 	nop
a080991c:	3c02a081 	lui	v0,0xa081
a0809920:	8c42d94c 	lw	v0,-9908(v0)
a0809924:	24430001 	addiu	v1,v0,1
a0809928:	3c02a081 	lui	v0,0xa081
a080992c:	ac43d94c 	sw	v1,-9908(v0)
a0809930:	03c0e821 	move	sp,s8
a0809934:	8fbf003c 	lw	ra,60(sp)
a0809938:	8fbe0038 	lw	s8,56(sp)
a080993c:	27bd0040 	addiu	sp,sp,64
a0809940:	03e00008 	jr	ra
a0809944:	00000000 	nop

a0809948 <do_mkdir>:
a0809948:	27bdff10 	addiu	sp,sp,-240
a080994c:	afbf00ec 	sw	ra,236(sp)
a0809950:	afbe00e8 	sw	s8,232(sp)
a0809954:	afb000e4 	sw	s0,228(sp)
a0809958:	03a0f021 	move	s8,sp
a080995c:	afc400f0 	sw	a0,240(s8)
a0809960:	8fc200f0 	lw	v0,240(s8)
a0809964:	afc20044 	sw	v0,68(s8)
a0809968:	24020100 	li	v0,256
a080996c:	afc20038 	sw	v0,56(s8)
a0809970:	3c02a081 	lui	v0,0xa081
a0809974:	8c42d94c 	lw	v0,-9908(v0)
a0809978:	24430002 	addiu	v1,v0,2
a080997c:	3c02a081 	lui	v0,0xa081
a0809980:	ac43d94c 	sw	v1,-9908(v0)
a0809984:	3c02a081 	lui	v0,0xa081
a0809988:	8c42d94c 	lw	v0,-9908(v0)
a080998c:	24040001 	li	a0,1
a0809990:	00402821 	move	a1,v0
a0809994:	0c2002a0 	jal	a0800a80 <vt100_move_cursor>
a0809998:	00000000 	nop
a080999c:	3c02a084 	lui	v0,0xa084
a08099a0:	24446d18 	addiu	a0,v0,27928
a08099a4:	3c052000 	lui	a1,0x2000
a08099a8:	24061000 	li	a2,4096
a08099ac:	0c2032e6 	jal	a080cb98 <.pic.sdread>
a08099b0:	00000000 	nop
a08099b4:	27c20088 	addiu	v0,s8,136
a08099b8:	00402021 	move	a0,v0
a08099bc:	3c02a084 	lui	v0,0xa084
a08099c0:	24456d18 	addiu	a1,v0,27928
a08099c4:	24060020 	li	a2,32
a08099c8:	0c20167d 	jal	a08059f4 <os_memcpy>
a08099cc:	00000000 	nop
a08099d0:	8fc30088 	lw	v1,136(s8)
a08099d4:	3c020011 	lui	v0,0x11
a08099d8:	34424514 	ori	v0,v0,0x4514
a08099dc:	10620007 	beq	v1,v0,a08099fc <do_mkdir+0xb4>
a08099e0:	00000000 	nop
a08099e4:	3c02a081 	lui	v0,0xa081
a08099e8:	2444d518 	addiu	a0,v0,-10984
a08099ec:	0c201981 	jal	a0806604 <printk>
a08099f0:	00000000 	nop
a08099f4:	082028b1 	j	a080a2c4 <do_mkdir+0x97c>
a08099f8:	00000000 	nop
a08099fc:	8fc20098 	lw	v0,152(s8)
a0809a00:	00402021 	move	a0,v0
a0809a04:	0c2022cb 	jal	a0808b2c <load_inode_array>
a0809a08:	00000000 	nop
a0809a0c:	3c02a081 	lui	v0,0xa081
a0809a10:	8c42d928 	lw	v0,-9944(v0)
a0809a14:	00402021 	move	a0,v0
a0809a18:	0c2022b2 	jal	a0808ac8 <get_inode>
a0809a1c:	00000000 	nop
a0809a20:	afc20040 	sw	v0,64(s8)
a0809a24:	8fc20040 	lw	v0,64(s8)
a0809a28:	8c420000 	lw	v0,0(v0)
a0809a2c:	14400007 	bnez	v0,a0809a4c <do_mkdir+0x104>
a0809a30:	00000000 	nop
a0809a34:	3c02a081 	lui	v0,0xa081
a0809a38:	2444d53c 	addiu	a0,v0,-10948
a0809a3c:	0c201981 	jal	a0806604 <printk>
a0809a40:	00000000 	nop
a0809a44:	08202691 	j	a0809a44 <do_mkdir+0xfc>
a0809a48:	00000000 	nop
a0809a4c:	8fc20040 	lw	v0,64(s8)
a0809a50:	8c420010 	lw	v0,16(v0)
a0809a54:	00402021 	move	a0,v0
a0809a58:	0c202295 	jal	a0808a54 <load_dentry_arr>
a0809a5c:	00000000 	nop
a0809a60:	8fc20040 	lw	v0,64(s8)
a0809a64:	8c420008 	lw	v0,8(v0)
a0809a68:	2c420003 	sltiu	v0,v0,3
a0809a6c:	14400028 	bnez	v0,a0809b10 <do_mkdir+0x1c8>
a0809a70:	00000000 	nop
a0809a74:	afc00024 	sw	zero,36(s8)
a0809a78:	082026be 	j	a0809af8 <do_mkdir+0x1b0>
a0809a7c:	00000000 	nop
a0809a80:	8fc20024 	lw	v0,36(s8)
a0809a84:	3c03a084 	lui	v1,0xa084
a0809a88:	00022180 	sll	a0,v0,0x6
a0809a8c:	24627df8 	addiu	v0,v1,32248
a0809a90:	00821021 	addu	v0,a0,v0
a0809a94:	8c430038 	lw	v1,56(v0)
a0809a98:	24020001 	li	v0,1
a0809a9c:	14620013 	bne	v1,v0,a0809aec <do_mkdir+0x1a4>
a0809aa0:	00000000 	nop
a0809aa4:	8fc20024 	lw	v0,36(s8)
a0809aa8:	00021980 	sll	v1,v0,0x6
a0809aac:	3c02a084 	lui	v0,0xa084
a0809ab0:	24427df8 	addiu	v0,v0,32248
a0809ab4:	00621021 	addu	v0,v1,v0
a0809ab8:	00402021 	move	a0,v0
a0809abc:	8fc50044 	lw	a1,68(s8)
a0809ac0:	24060038 	li	a2,56
a0809ac4:	0c20169a 	jal	a0805a68 <my_strncmp>
a0809ac8:	00000000 	nop
a0809acc:	14400007 	bnez	v0,a0809aec <do_mkdir+0x1a4>
a0809ad0:	00000000 	nop
a0809ad4:	3c02a081 	lui	v0,0xa081
a0809ad8:	2444d558 	addiu	a0,v0,-10920
a0809adc:	0c201981 	jal	a0806604 <printk>
a0809ae0:	00000000 	nop
a0809ae4:	082028b1 	j	a080a2c4 <do_mkdir+0x97c>
a0809ae8:	00000000 	nop
a0809aec:	8fc20024 	lw	v0,36(s8)
a0809af0:	24420001 	addiu	v0,v0,1
a0809af4:	afc20024 	sw	v0,36(s8)
a0809af8:	8fc20040 	lw	v0,64(s8)
a0809afc:	8c430008 	lw	v1,8(v0)
a0809b00:	8fc20024 	lw	v0,36(s8)
a0809b04:	0043102b 	sltu	v0,v0,v1
a0809b08:	1440ffdd 	bnez	v0,a0809a80 <do_mkdir+0x138>
a0809b0c:	00000000 	nop
a0809b10:	8fc30094 	lw	v1,148(s8)
a0809b14:	3c020002 	lui	v0,0x2
a0809b18:	00621021 	addu	v0,v1,v0
a0809b1c:	00021b00 	sll	v1,v0,0xc
a0809b20:	3c02a084 	lui	v0,0xa084
a0809b24:	24446d18 	addiu	a0,v0,27928
a0809b28:	00602821 	move	a1,v1
a0809b2c:	24061000 	li	a2,4096
a0809b30:	0c2032e6 	jal	a080cb98 <.pic.sdread>
a0809b34:	00000000 	nop
a0809b38:	3c02a084 	lui	v0,0xa084
a0809b3c:	24420990 	addiu	v0,v0,2448
a0809b40:	00402021 	move	a0,v0
a0809b44:	3c02a084 	lui	v0,0xa084
a0809b48:	24456d18 	addiu	a1,v0,27928
a0809b4c:	24060020 	li	a2,32
a0809b50:	0c20167d 	jal	a08059f4 <os_memcpy>
a0809b54:	00000000 	nop
a0809b58:	afc00024 	sw	zero,36(s8)
a0809b5c:	082026e5 	j	a0809b94 <do_mkdir+0x24c>
a0809b60:	00000000 	nop
a0809b64:	8fc20024 	lw	v0,36(s8)
a0809b68:	3c03a084 	lui	v1,0xa084
a0809b6c:	00022080 	sll	a0,v0,0x2
a0809b70:	24620990 	addiu	v0,v1,2448
a0809b74:	00821021 	addu	v0,a0,v0
a0809b78:	8c430000 	lw	v1,0(v0)
a0809b7c:	2402ffff 	li	v0,-1
a0809b80:	14620008 	bne	v1,v0,a0809ba4 <do_mkdir+0x25c>
a0809b84:	00000000 	nop
a0809b88:	8fc20024 	lw	v0,36(s8)
a0809b8c:	24420001 	addiu	v0,v0,1
a0809b90:	afc20024 	sw	v0,36(s8)
a0809b94:	8fc20024 	lw	v0,36(s8)
a0809b98:	2c420008 	sltiu	v0,v0,8
a0809b9c:	1440fff1 	bnez	v0,a0809b64 <do_mkdir+0x21c>
a0809ba0:	00000000 	nop
a0809ba4:	8fc30024 	lw	v1,36(s8)
a0809ba8:	24020008 	li	v0,8
a0809bac:	14620007 	bne	v1,v0,a0809bcc <do_mkdir+0x284>
a0809bb0:	00000000 	nop
a0809bb4:	3c02a081 	lui	v0,0xa081
a0809bb8:	2444d57c 	addiu	a0,v0,-10884
a0809bbc:	0c201981 	jal	a0806604 <printk>
a0809bc0:	00000000 	nop
a0809bc4:	082026f1 	j	a0809bc4 <do_mkdir+0x27c>
a0809bc8:	00000000 	nop
a0809bcc:	8fc20024 	lw	v0,36(s8)
a0809bd0:	3c03a084 	lui	v1,0xa084
a0809bd4:	00022080 	sll	a0,v0,0x2
a0809bd8:	24620990 	addiu	v0,v1,2448
a0809bdc:	00821021 	addu	v0,a0,v0
a0809be0:	8c420000 	lw	v0,0(v0)
a0809be4:	8fc40024 	lw	a0,36(s8)
a0809be8:	00402821 	move	a1,v0
a0809bec:	0c20239c 	jal	a0808e70 <get_new_no>
a0809bf0:	00000000 	nop
a0809bf4:	afc20020 	sw	v0,32(s8)
a0809bf8:	8fc40020 	lw	a0,32(s8)
a0809bfc:	0c2022b2 	jal	a0808ac8 <get_inode>
a0809c00:	00000000 	nop
a0809c04:	afc2003c 	sw	v0,60(s8)
a0809c08:	3c02a084 	lui	v0,0xa084
a0809c0c:	24427df8 	addiu	v0,v0,32248
a0809c10:	8c42003c 	lw	v0,60(v0)
a0809c14:	afc2002c 	sw	v0,44(s8)
a0809c18:	27c200a8 	addiu	v0,s8,168
a0809c1c:	00402021 	move	a0,v0
a0809c20:	3c02a084 	lui	v0,0xa084
a0809c24:	24457df8 	addiu	a1,v0,32248
a0809c28:	24060038 	li	a2,56
a0809c2c:	0c20167d 	jal	a08059f4 <os_memcpy>
a0809c30:	00000000 	nop
a0809c34:	8fc3003c 	lw	v1,60(s8)
a0809c38:	24020001 	li	v0,1
a0809c3c:	ac620000 	sw	v0,0(v1)
a0809c40:	0c2012e6 	jal	a0804b98 <get_timer>
a0809c44:	00000000 	nop
a0809c48:	00401821 	move	v1,v0
a0809c4c:	8fc2003c 	lw	v0,60(s8)
a0809c50:	ac430004 	sw	v1,4(v0)
a0809c54:	8fc3003c 	lw	v1,60(s8)
a0809c58:	24020002 	li	v0,2
a0809c5c:	ac620008 	sw	v0,8(v1)
a0809c60:	8fc3003c 	lw	v1,60(s8)
a0809c64:	8fc2002c 	lw	v0,44(s8)
a0809c68:	ac62000c 	sw	v0,12(v1)
a0809c6c:	8fc2003c 	lw	v0,60(s8)
a0809c70:	ac400038 	sw	zero,56(v0)
a0809c74:	8fc2003c 	lw	v0,60(s8)
a0809c78:	ac40003c 	sw	zero,60(v0)
a0809c7c:	afc00024 	sw	zero,36(s8)
a0809c80:	0820272b 	j	a0809cac <do_mkdir+0x364>
a0809c84:	00000000 	nop
a0809c88:	8fc20024 	lw	v0,36(s8)
a0809c8c:	8fc3003c 	lw	v1,60(s8)
a0809c90:	24420004 	addiu	v0,v0,4
a0809c94:	00021080 	sll	v0,v0,0x2
a0809c98:	00621021 	addu	v0,v1,v0
a0809c9c:	ac400000 	sw	zero,0(v0)
a0809ca0:	8fc20024 	lw	v0,36(s8)
a0809ca4:	24420001 	addiu	v0,v0,1
a0809ca8:	afc20024 	sw	v0,36(s8)
a0809cac:	8fc20024 	lw	v0,36(s8)
a0809cb0:	2c42000a 	sltiu	v0,v0,10
a0809cb4:	1440fff4 	bnez	v0,a0809c88 <do_mkdir+0x340>
a0809cb8:	00000000 	nop
a0809cbc:	3c02a084 	lui	v0,0xa084
a0809cc0:	24420e90 	addiu	v0,v0,3728
a0809cc4:	afc20018 	sw	v0,24(s8)
a0809cc8:	afc00024 	sw	zero,36(s8)
a0809ccc:	0820274e 	j	a0809d38 <do_mkdir+0x3f0>
a0809cd0:	00000000 	nop
a0809cd4:	8fc30090 	lw	v1,144(s8)
a0809cd8:	8fc20024 	lw	v0,36(s8)
a0809cdc:	00621821 	addu	v1,v1,v0
a0809ce0:	3c020002 	lui	v0,0x2
a0809ce4:	00621021 	addu	v0,v1,v0
a0809ce8:	00021b00 	sll	v1,v0,0xc
a0809cec:	3c02a084 	lui	v0,0xa084
a0809cf0:	24446d18 	addiu	a0,v0,27928
a0809cf4:	00602821 	move	a1,v1
a0809cf8:	24061000 	li	a2,4096
a0809cfc:	0c2032e6 	jal	a080cb98 <.pic.sdread>
a0809d00:	00000000 	nop
a0809d04:	8fc20018 	lw	v0,24(s8)
a0809d08:	00402021 	move	a0,v0
a0809d0c:	3c02a084 	lui	v0,0xa084
a0809d10:	24456d18 	addiu	a1,v0,27928
a0809d14:	24061000 	li	a2,4096
a0809d18:	0c20167d 	jal	a08059f4 <os_memcpy>
a0809d1c:	00000000 	nop
a0809d20:	8fc20018 	lw	v0,24(s8)
a0809d24:	24421000 	addiu	v0,v0,4096
a0809d28:	afc20018 	sw	v0,24(s8)
a0809d2c:	8fc20024 	lw	v0,36(s8)
a0809d30:	24420001 	addiu	v0,v0,1
a0809d34:	afc20024 	sw	v0,36(s8)
a0809d38:	8fc20024 	lw	v0,36(s8)
a0809d3c:	2c420004 	sltiu	v0,v0,4
a0809d40:	1440ffe4 	bnez	v0,a0809cd4 <do_mkdir+0x38c>
a0809d44:	00000000 	nop
a0809d48:	afc00024 	sw	zero,36(s8)
a0809d4c:	08202761 	j	a0809d84 <do_mkdir+0x43c>
a0809d50:	00000000 	nop
a0809d54:	8fc20024 	lw	v0,36(s8)
a0809d58:	3c03a084 	lui	v1,0xa084
a0809d5c:	00022080 	sll	a0,v0,0x2
a0809d60:	24620e90 	addiu	v0,v1,3728
a0809d64:	00821021 	addu	v0,a0,v0
a0809d68:	8c430000 	lw	v1,0(v0)
a0809d6c:	2402ffff 	li	v0,-1
a0809d70:	14620008 	bne	v1,v0,a0809d94 <do_mkdir+0x44c>
a0809d74:	00000000 	nop
a0809d78:	8fc20024 	lw	v0,36(s8)
a0809d7c:	24420001 	addiu	v0,v0,1
a0809d80:	afc20024 	sw	v0,36(s8)
a0809d84:	8fc20024 	lw	v0,36(s8)
a0809d88:	2c421000 	sltiu	v0,v0,4096
a0809d8c:	1440fff1 	bnez	v0,a0809d54 <do_mkdir+0x40c>
a0809d90:	00000000 	nop
a0809d94:	8fc30024 	lw	v1,36(s8)
a0809d98:	24021000 	li	v0,4096
a0809d9c:	14620007 	bne	v1,v0,a0809dbc <do_mkdir+0x474>
a0809da0:	00000000 	nop
a0809da4:	3c02a081 	lui	v0,0xa081
a0809da8:	2444d5a8 	addiu	a0,v0,-10840
a0809dac:	0c201981 	jal	a0806604 <printk>
a0809db0:	00000000 	nop
a0809db4:	0820276d 	j	a0809db4 <do_mkdir+0x46c>
a0809db8:	00000000 	nop
a0809dbc:	8fc20024 	lw	v0,36(s8)
a0809dc0:	3c03a084 	lui	v1,0xa084
a0809dc4:	00022080 	sll	a0,v0,0x2
a0809dc8:	24620e90 	addiu	v0,v1,3728
a0809dcc:	00821021 	addu	v0,a0,v0
a0809dd0:	8c420000 	lw	v0,0(v0)
a0809dd4:	8fc40024 	lw	a0,36(s8)
a0809dd8:	00402821 	move	a1,v0
a0809ddc:	0c20239c 	jal	a0808e70 <get_new_no>
a0809de0:	00000000 	nop
a0809de4:	afc2001c 	sw	v0,28(s8)
a0809de8:	8fc3003c 	lw	v1,60(s8)
a0809dec:	8fc2001c 	lw	v0,28(s8)
a0809df0:	ac620010 	sw	v0,16(v1)
a0809df4:	3c02a084 	lui	v0,0xa084
a0809df8:	24440e90 	addiu	a0,v0,3728
a0809dfc:	8fc5001c 	lw	a1,28(s8)
a0809e00:	00003021 	move	a2,zero
a0809e04:	0c202367 	jal	a0808d9c <refresh_bitmap>
a0809e08:	00000000 	nop
a0809e0c:	3c02a084 	lui	v0,0xa084
a0809e10:	24440990 	addiu	a0,v0,2448
a0809e14:	8fc50020 	lw	a1,32(s8)
a0809e18:	00003021 	move	a2,zero
a0809e1c:	0c202367 	jal	a0808d9c <refresh_bitmap>
a0809e20:	00000000 	nop
a0809e24:	3c02a084 	lui	v0,0xa084
a0809e28:	24420e90 	addiu	v0,v0,3728
a0809e2c:	afc20014 	sw	v0,20(s8)
a0809e30:	afc00024 	sw	zero,36(s8)
a0809e34:	082027a8 	j	a0809ea0 <do_mkdir+0x558>
a0809e38:	00000000 	nop
a0809e3c:	8fc30014 	lw	v1,20(s8)
a0809e40:	3c02a084 	lui	v0,0xa084
a0809e44:	24446d18 	addiu	a0,v0,27928
a0809e48:	00602821 	move	a1,v1
a0809e4c:	24061000 	li	a2,4096
a0809e50:	0c20167d 	jal	a08059f4 <os_memcpy>
a0809e54:	00000000 	nop
a0809e58:	8fc30090 	lw	v1,144(s8)
a0809e5c:	8fc20024 	lw	v0,36(s8)
a0809e60:	00621821 	addu	v1,v1,v0
a0809e64:	3c020002 	lui	v0,0x2
a0809e68:	00621021 	addu	v0,v1,v0
a0809e6c:	00021b00 	sll	v1,v0,0xc
a0809e70:	3c02a084 	lui	v0,0xa084
a0809e74:	24446d18 	addiu	a0,v0,27928
a0809e78:	00602821 	move	a1,v1
a0809e7c:	24061000 	li	a2,4096
a0809e80:	0c2032c6 	jal	a080cb18 <.pic.sdwrite>
a0809e84:	00000000 	nop
a0809e88:	8fc20014 	lw	v0,20(s8)
a0809e8c:	24421000 	addiu	v0,v0,4096
a0809e90:	afc20014 	sw	v0,20(s8)
a0809e94:	8fc20024 	lw	v0,36(s8)
a0809e98:	24420001 	addiu	v0,v0,1
a0809e9c:	afc20024 	sw	v0,36(s8)
a0809ea0:	8fc20024 	lw	v0,36(s8)
a0809ea4:	2c420004 	sltiu	v0,v0,4
a0809ea8:	1440ffe4 	bnez	v0,a0809e3c <do_mkdir+0x4f4>
a0809eac:	00000000 	nop
a0809eb0:	3c02a084 	lui	v0,0xa084
a0809eb4:	24430990 	addiu	v1,v0,2448
a0809eb8:	3c02a084 	lui	v0,0xa084
a0809ebc:	24446d18 	addiu	a0,v0,27928
a0809ec0:	00602821 	move	a1,v1
a0809ec4:	24061000 	li	a2,4096
a0809ec8:	0c20167d 	jal	a08059f4 <os_memcpy>
a0809ecc:	00000000 	nop
a0809ed0:	8fc30094 	lw	v1,148(s8)
a0809ed4:	3c020002 	lui	v0,0x2
a0809ed8:	00621021 	addu	v0,v1,v0
a0809edc:	00021b00 	sll	v1,v0,0xc
a0809ee0:	3c02a084 	lui	v0,0xa084
a0809ee4:	24446d18 	addiu	a0,v0,27928
a0809ee8:	00602821 	move	a1,v1
a0809eec:	24061000 	li	a2,4096
a0809ef0:	0c2032c6 	jal	a080cb18 <.pic.sdwrite>
a0809ef4:	00000000 	nop
a0809ef8:	8fc20040 	lw	v0,64(s8)
a0809efc:	8c420008 	lw	v0,8(v0)
a0809f00:	24430001 	addiu	v1,v0,1
a0809f04:	8fc20040 	lw	v0,64(s8)
a0809f08:	ac430008 	sw	v1,8(v0)
a0809f0c:	afc00024 	sw	zero,36(s8)
a0809f10:	082027e0 	j	a0809f80 <do_mkdir+0x638>
a0809f14:	00000000 	nop
a0809f18:	3c02a085 	lui	v0,0xa085
a0809f1c:	24438df8 	addiu	v1,v0,-29192
a0809f20:	8fc20024 	lw	v0,36(s8)
a0809f24:	00021300 	sll	v0,v0,0xc
a0809f28:	00621821 	addu	v1,v1,v0
a0809f2c:	3c02a084 	lui	v0,0xa084
a0809f30:	24446d18 	addiu	a0,v0,27928
a0809f34:	00602821 	move	a1,v1
a0809f38:	24061000 	li	a2,4096
a0809f3c:	0c20167d 	jal	a08059f4 <os_memcpy>
a0809f40:	00000000 	nop
a0809f44:	8fc30098 	lw	v1,152(s8)
a0809f48:	8fc20024 	lw	v0,36(s8)
a0809f4c:	00621821 	addu	v1,v1,v0
a0809f50:	3c020002 	lui	v0,0x2
a0809f54:	00621021 	addu	v0,v1,v0
a0809f58:	00021b00 	sll	v1,v0,0xc
a0809f5c:	3c02a084 	lui	v0,0xa084
a0809f60:	24446d18 	addiu	a0,v0,27928
a0809f64:	00602821 	move	a1,v1
a0809f68:	24061000 	li	a2,4096
a0809f6c:	0c2032c6 	jal	a080cb18 <.pic.sdwrite>
a0809f70:	00000000 	nop
a0809f74:	8fc20024 	lw	v0,36(s8)
a0809f78:	24420001 	addiu	v0,v0,1
a0809f7c:	afc20024 	sw	v0,36(s8)
a0809f80:	8fc20024 	lw	v0,36(s8)
a0809f84:	2c420004 	sltiu	v0,v0,4
a0809f88:	1440ffe3 	bnez	v0,a0809f18 <do_mkdir+0x5d0>
a0809f8c:	00000000 	nop
a0809f90:	8fc200a0 	lw	v0,160(s8)
a0809f94:	24420001 	addiu	v0,v0,1
a0809f98:	afc200a0 	sw	v0,160(s8)
a0809f9c:	8fc200a4 	lw	v0,164(s8)
a0809fa0:	24420001 	addiu	v0,v0,1
a0809fa4:	afc200a4 	sw	v0,164(s8)
a0809fa8:	27c30088 	addiu	v1,s8,136
a0809fac:	3c02a084 	lui	v0,0xa084
a0809fb0:	24446d18 	addiu	a0,v0,27928
a0809fb4:	00602821 	move	a1,v1
a0809fb8:	24060020 	li	a2,32
a0809fbc:	0c20167d 	jal	a08059f4 <os_memcpy>
a0809fc0:	00000000 	nop
a0809fc4:	3c02a084 	lui	v0,0xa084
a0809fc8:	24446d18 	addiu	a0,v0,27928
a0809fcc:	3c052000 	lui	a1,0x2000
a0809fd0:	24061000 	li	a2,4096
a0809fd4:	0c2032c6 	jal	a080cb18 <.pic.sdwrite>
a0809fd8:	00000000 	nop
a0809fdc:	8fc20040 	lw	v0,64(s8)
a0809fe0:	8c420010 	lw	v0,16(v0)
a0809fe4:	00402021 	move	a0,v0
a0809fe8:	0c202295 	jal	a0808a54 <load_dentry_arr>
a0809fec:	00000000 	nop
a0809ff0:	afc00024 	sw	zero,36(s8)
a0809ff4:	08202811 	j	a080a044 <do_mkdir+0x6fc>
a0809ff8:	00000000 	nop
a0809ffc:	8fc20024 	lw	v0,36(s8)
a080a000:	1040000d 	beqz	v0,a080a038 <do_mkdir+0x6f0>
a080a004:	00000000 	nop
a080a008:	8fc30024 	lw	v1,36(s8)
a080a00c:	24020001 	li	v0,1
a080a010:	10620009 	beq	v1,v0,a080a038 <do_mkdir+0x6f0>
a080a014:	00000000 	nop
a080a018:	8fc40024 	lw	a0,36(s8)
a080a01c:	3c02a084 	lui	v0,0xa084
a080a020:	24437df8 	addiu	v1,v0,32248
a080a024:	00041180 	sll	v0,a0,0x6
a080a028:	00621021 	addu	v0,v1,v0
a080a02c:	8c42003c 	lw	v0,60(v0)
a080a030:	10400008 	beqz	v0,a080a054 <do_mkdir+0x70c>
a080a034:	00000000 	nop
a080a038:	8fc20024 	lw	v0,36(s8)
a080a03c:	24420001 	addiu	v0,v0,1
a080a040:	afc20024 	sw	v0,36(s8)
a080a044:	8fc20024 	lw	v0,36(s8)
a080a048:	2c420040 	sltiu	v0,v0,64
a080a04c:	1440ffeb 	bnez	v0,a0809ffc <do_mkdir+0x6b4>
a080a050:	00000000 	nop
a080a054:	8fc30024 	lw	v1,36(s8)
a080a058:	24020040 	li	v0,64
a080a05c:	14620007 	bne	v1,v0,a080a07c <do_mkdir+0x734>
a080a060:	00000000 	nop
a080a064:	3c02a081 	lui	v0,0xa081
a080a068:	2444d5dc 	addiu	a0,v0,-10788
a080a06c:	0c201981 	jal	a0806604 <printk>
a080a070:	00000000 	nop
a080a074:	0820281d 	j	a080a074 <do_mkdir+0x72c>
a080a078:	00000000 	nop
a080a07c:	8fc40024 	lw	a0,36(s8)
a080a080:	3c02a084 	lui	v0,0xa084
a080a084:	24437df8 	addiu	v1,v0,32248
a080a088:	00041180 	sll	v0,a0,0x6
a080a08c:	00621021 	addu	v0,v1,v0
a080a090:	8fc30020 	lw	v1,32(s8)
a080a094:	ac43003c 	sw	v1,60(v0)
a080a098:	8fc20024 	lw	v0,36(s8)
a080a09c:	3c03a084 	lui	v1,0xa084
a080a0a0:	00022180 	sll	a0,v0,0x6
a080a0a4:	24627df8 	addiu	v0,v1,32248
a080a0a8:	00821821 	addu	v1,a0,v0
a080a0ac:	24020001 	li	v0,1
a080a0b0:	ac620038 	sw	v0,56(v1)
a080a0b4:	8fc20024 	lw	v0,36(s8)
a080a0b8:	00021980 	sll	v1,v0,0x6
a080a0bc:	3c02a084 	lui	v0,0xa084
a080a0c0:	24427df8 	addiu	v0,v0,32248
a080a0c4:	00628021 	addu	s0,v1,v0
a080a0c8:	8fc40044 	lw	a0,68(s8)
a080a0cc:	0c20164a 	jal	a0805928 <os_strlen>
a080a0d0:	00000000 	nop
a080a0d4:	02002021 	move	a0,s0
a080a0d8:	8fc50044 	lw	a1,68(s8)
a080a0dc:	00403021 	move	a2,v0
a080a0e0:	0c20167d 	jal	a08059f4 <os_memcpy>
a080a0e4:	00000000 	nop
a080a0e8:	3c02a084 	lui	v0,0xa084
a080a0ec:	24437df8 	addiu	v1,v0,32248
a080a0f0:	3c02a084 	lui	v0,0xa084
a080a0f4:	24446d18 	addiu	a0,v0,27928
a080a0f8:	00602821 	move	a1,v1
a080a0fc:	24061000 	li	a2,4096
a080a100:	0c20167d 	jal	a08059f4 <os_memcpy>
a080a104:	00000000 	nop
a080a108:	8fc20040 	lw	v0,64(s8)
a080a10c:	8c430010 	lw	v1,16(v0)
a080a110:	3c020002 	lui	v0,0x2
a080a114:	00621021 	addu	v0,v1,v0
a080a118:	00021b00 	sll	v1,v0,0xc
a080a11c:	3c02a084 	lui	v0,0xa084
a080a120:	24446d18 	addiu	a0,v0,27928
a080a124:	00602821 	move	a1,v1
a080a128:	24061000 	li	a2,4096
a080a12c:	0c2032c6 	jal	a080cb18 <.pic.sdwrite>
a080a130:	00000000 	nop
a080a134:	afc00024 	sw	zero,36(s8)
a080a138:	08202871 	j	a080a1c4 <do_mkdir+0x87c>
a080a13c:	00000000 	nop
a080a140:	8fc40024 	lw	a0,36(s8)
a080a144:	3c02a084 	lui	v0,0xa084
a080a148:	24437df8 	addiu	v1,v0,32248
a080a14c:	00041180 	sll	v0,a0,0x6
a080a150:	00621021 	addu	v0,v1,v0
a080a154:	ac40003c 	sw	zero,60(v0)
a080a158:	8fc20024 	lw	v0,36(s8)
a080a15c:	3c03a084 	lui	v1,0xa084
a080a160:	00022180 	sll	a0,v0,0x6
a080a164:	24627df8 	addiu	v0,v1,32248
a080a168:	00821021 	addu	v0,a0,v0
a080a16c:	ac400038 	sw	zero,56(v0)
a080a170:	afc00010 	sw	zero,16(s8)
a080a174:	0820286a 	j	a080a1a8 <do_mkdir+0x860>
a080a178:	00000000 	nop
a080a17c:	8fc20024 	lw	v0,36(s8)
a080a180:	8fc30010 	lw	v1,16(s8)
a080a184:	3c04a084 	lui	a0,0xa084
a080a188:	00021180 	sll	v0,v0,0x6
a080a18c:	00431821 	addu	v1,v0,v1
a080a190:	24827df8 	addiu	v0,a0,32248
a080a194:	00621021 	addu	v0,v1,v0
a080a198:	a0400000 	sb	zero,0(v0)
a080a19c:	8fc20010 	lw	v0,16(s8)
a080a1a0:	24420001 	addiu	v0,v0,1
a080a1a4:	afc20010 	sw	v0,16(s8)
a080a1a8:	8fc20010 	lw	v0,16(s8)
a080a1ac:	2c420038 	sltiu	v0,v0,56
a080a1b0:	1440fff2 	bnez	v0,a080a17c <do_mkdir+0x834>
a080a1b4:	00000000 	nop
a080a1b8:	8fc20024 	lw	v0,36(s8)
a080a1bc:	24420001 	addiu	v0,v0,1
a080a1c0:	afc20024 	sw	v0,36(s8)
a080a1c4:	8fc20024 	lw	v0,36(s8)
a080a1c8:	2c420040 	sltiu	v0,v0,64
a080a1cc:	1440ffdc 	bnez	v0,a080a140 <do_mkdir+0x7f8>
a080a1d0:	00000000 	nop
a080a1d4:	3c02a084 	lui	v0,0xa084
a080a1d8:	24437df8 	addiu	v1,v0,32248
a080a1dc:	8fc20020 	lw	v0,32(s8)
a080a1e0:	ac62003c 	sw	v0,60(v1)
a080a1e4:	3c02a084 	lui	v0,0xa084
a080a1e8:	24437df8 	addiu	v1,v0,32248
a080a1ec:	8fc2002c 	lw	v0,44(s8)
a080a1f0:	ac62007c 	sw	v0,124(v1)
a080a1f4:	8fc40044 	lw	a0,68(s8)
a080a1f8:	0c20164a 	jal	a0805928 <os_strlen>
a080a1fc:	00000000 	nop
a080a200:	00401821 	move	v1,v0
a080a204:	3c02a084 	lui	v0,0xa084
a080a208:	24447df8 	addiu	a0,v0,32248
a080a20c:	8fc50044 	lw	a1,68(s8)
a080a210:	00603021 	move	a2,v1
a080a214:	0c20167d 	jal	a08059f4 <os_memcpy>
a080a218:	00000000 	nop
a080a21c:	27c200a8 	addiu	v0,s8,168
a080a220:	00402021 	move	a0,v0
a080a224:	0c20164a 	jal	a0805928 <os_strlen>
a080a228:	00000000 	nop
a080a22c:	00403021 	move	a2,v0
a080a230:	27c300a8 	addiu	v1,s8,168
a080a234:	3c02a084 	lui	v0,0xa084
a080a238:	24447e38 	addiu	a0,v0,32312
a080a23c:	00602821 	move	a1,v1
a080a240:	0c20167d 	jal	a08059f4 <os_memcpy>
a080a244:	00000000 	nop
a080a248:	3c02a084 	lui	v0,0xa084
a080a24c:	24437df8 	addiu	v1,v0,32248
a080a250:	24020001 	li	v0,1
a080a254:	ac620038 	sw	v0,56(v1)
a080a258:	3c02a084 	lui	v0,0xa084
a080a25c:	24437df8 	addiu	v1,v0,32248
a080a260:	24020001 	li	v0,1
a080a264:	ac620078 	sw	v0,120(v1)
a080a268:	3c02a084 	lui	v0,0xa084
a080a26c:	24437df8 	addiu	v1,v0,32248
a080a270:	3c02a084 	lui	v0,0xa084
a080a274:	24446d18 	addiu	a0,v0,27928
a080a278:	00602821 	move	a1,v1
a080a27c:	24061000 	li	a2,4096
a080a280:	0c20167d 	jal	a08059f4 <os_memcpy>
a080a284:	00000000 	nop
a080a288:	8fc2003c 	lw	v0,60(s8)
a080a28c:	8c430010 	lw	v1,16(v0)
a080a290:	3c020002 	lui	v0,0x2
a080a294:	00621021 	addu	v0,v1,v0
a080a298:	00021b00 	sll	v1,v0,0xc
a080a29c:	3c02a084 	lui	v0,0xa084
a080a2a0:	24446d18 	addiu	a0,v0,27928
a080a2a4:	00602821 	move	a1,v1
a080a2a8:	24061000 	li	a2,4096
a080a2ac:	0c2032c6 	jal	a080cb18 <.pic.sdwrite>
a080a2b0:	00000000 	nop
a080a2b4:	3c02a081 	lui	v0,0xa081
a080a2b8:	2444d5e8 	addiu	a0,v0,-10776
a080a2bc:	0c201981 	jal	a0806604 <printk>
a080a2c0:	00000000 	nop
a080a2c4:	03c0e821 	move	sp,s8
a080a2c8:	8fbf00ec 	lw	ra,236(sp)
a080a2cc:	8fbe00e8 	lw	s8,232(sp)
a080a2d0:	8fb000e4 	lw	s0,228(sp)
a080a2d4:	27bd00f0 	addiu	sp,sp,240
a080a2d8:	03e00008 	jr	ra
a080a2dc:	00000000 	nop

a080a2e0 <do_rmdir>:
a080a2e0:	27bdff98 	addiu	sp,sp,-104
a080a2e4:	afbf0064 	sw	ra,100(sp)
a080a2e8:	afbe0060 	sw	s8,96(sp)
a080a2ec:	03a0f021 	move	s8,sp
a080a2f0:	afc40068 	sw	a0,104(s8)
a080a2f4:	8fc20068 	lw	v0,104(s8)
a080a2f8:	afc20030 	sw	v0,48(s8)
a080a2fc:	3c02a081 	lui	v0,0xa081
a080a300:	8c42d94c 	lw	v0,-9908(v0)
a080a304:	24430002 	addiu	v1,v0,2
a080a308:	3c02a081 	lui	v0,0xa081
a080a30c:	ac43d94c 	sw	v1,-9908(v0)
a080a310:	3c02a081 	lui	v0,0xa081
a080a314:	8c42d94c 	lw	v0,-9908(v0)
a080a318:	24040001 	li	a0,1
a080a31c:	00402821 	move	a1,v0
a080a320:	0c2002a0 	jal	a0800a80 <vt100_move_cursor>
a080a324:	00000000 	nop
a080a328:	3c02a084 	lui	v0,0xa084
a080a32c:	24446d18 	addiu	a0,v0,27928
a080a330:	3c052000 	lui	a1,0x2000
a080a334:	24061000 	li	a2,4096
a080a338:	0c2032e6 	jal	a080cb98 <.pic.sdread>
a080a33c:	00000000 	nop
a080a340:	27c20040 	addiu	v0,s8,64
a080a344:	00402021 	move	a0,v0
a080a348:	3c02a084 	lui	v0,0xa084
a080a34c:	24456d18 	addiu	a1,v0,27928
a080a350:	24060020 	li	a2,32
a080a354:	0c20167d 	jal	a08059f4 <os_memcpy>
a080a358:	00000000 	nop
a080a35c:	8fc30040 	lw	v1,64(s8)
a080a360:	3c020011 	lui	v0,0x11
a080a364:	34424514 	ori	v0,v0,0x4514
a080a368:	10620007 	beq	v1,v0,a080a388 <do_rmdir+0xa8>
a080a36c:	00000000 	nop
a080a370:	3c02a081 	lui	v0,0xa081
a080a374:	2444d518 	addiu	a0,v0,-10984
a080a378:	0c201981 	jal	a0806604 <printk>
a080a37c:	00000000 	nop
a080a380:	08202a58 	j	a080a960 <do_rmdir+0x680>
a080a384:	00000000 	nop
a080a388:	8fc20050 	lw	v0,80(s8)
a080a38c:	00402021 	move	a0,v0
a080a390:	0c2022cb 	jal	a0808b2c <load_inode_array>
a080a394:	00000000 	nop
a080a398:	3c02a081 	lui	v0,0xa081
a080a39c:	8c42d928 	lw	v0,-9944(v0)
a080a3a0:	00402021 	move	a0,v0
a080a3a4:	0c2022b2 	jal	a0808ac8 <get_inode>
a080a3a8:	00000000 	nop
a080a3ac:	afc20024 	sw	v0,36(s8)
a080a3b0:	8fc20024 	lw	v0,36(s8)
a080a3b4:	8c420000 	lw	v0,0(v0)
a080a3b8:	14400007 	bnez	v0,a080a3d8 <do_rmdir+0xf8>
a080a3bc:	00000000 	nop
a080a3c0:	3c02a081 	lui	v0,0xa081
a080a3c4:	2444d53c 	addiu	a0,v0,-10948
a080a3c8:	0c201981 	jal	a0806604 <printk>
a080a3cc:	00000000 	nop
a080a3d0:	082028f4 	j	a080a3d0 <do_rmdir+0xf0>
a080a3d4:	00000000 	nop
a080a3d8:	8fc20024 	lw	v0,36(s8)
a080a3dc:	8c420010 	lw	v0,16(v0)
a080a3e0:	00402021 	move	a0,v0
a080a3e4:	0c202295 	jal	a0808a54 <load_dentry_arr>
a080a3e8:	00000000 	nop
a080a3ec:	afc00038 	sw	zero,56(s8)
a080a3f0:	08202916 	j	a080a458 <do_rmdir+0x178>
a080a3f4:	00000000 	nop
a080a3f8:	8fc20038 	lw	v0,56(s8)
a080a3fc:	3c03a084 	lui	v1,0xa084
a080a400:	00022180 	sll	a0,v0,0x6
a080a404:	24627df8 	addiu	v0,v1,32248
a080a408:	00821021 	addu	v0,a0,v0
a080a40c:	8c430038 	lw	v1,56(v0)
a080a410:	24020001 	li	v0,1
a080a414:	1462000d 	bne	v1,v0,a080a44c <do_rmdir+0x16c>
a080a418:	00000000 	nop
a080a41c:	8fc20038 	lw	v0,56(s8)
a080a420:	00021980 	sll	v1,v0,0x6
a080a424:	3c02a084 	lui	v0,0xa084
a080a428:	24427df8 	addiu	v0,v0,32248
a080a42c:	00621021 	addu	v0,v1,v0
a080a430:	00402021 	move	a0,v0
a080a434:	8fc50030 	lw	a1,48(s8)
a080a438:	24060038 	li	a2,56
a080a43c:	0c20169a 	jal	a0805a68 <my_strncmp>
a080a440:	00000000 	nop
a080a444:	1040000a 	beqz	v0,a080a470 <do_rmdir+0x190>
a080a448:	00000000 	nop
a080a44c:	8fc20038 	lw	v0,56(s8)
a080a450:	24420001 	addiu	v0,v0,1
a080a454:	afc20038 	sw	v0,56(s8)
a080a458:	8fc20024 	lw	v0,36(s8)
a080a45c:	8c430008 	lw	v1,8(v0)
a080a460:	8fc20038 	lw	v0,56(s8)
a080a464:	0043102b 	sltu	v0,v0,v1
a080a468:	1440ffe3 	bnez	v0,a080a3f8 <do_rmdir+0x118>
a080a46c:	00000000 	nop
a080a470:	8fc20024 	lw	v0,36(s8)
a080a474:	8c430008 	lw	v1,8(v0)
a080a478:	8fc20038 	lw	v0,56(s8)
a080a47c:	14620007 	bne	v1,v0,a080a49c <do_rmdir+0x1bc>
a080a480:	00000000 	nop
a080a484:	3c02a081 	lui	v0,0xa081
a080a488:	2444d600 	addiu	a0,v0,-10752
a080a48c:	0c201981 	jal	a0806604 <printk>
a080a490:	00000000 	nop
a080a494:	08202a58 	j	a080a960 <do_rmdir+0x680>
a080a498:	00000000 	nop
a080a49c:	8fc40038 	lw	a0,56(s8)
a080a4a0:	3c02a084 	lui	v0,0xa084
a080a4a4:	24437df8 	addiu	v1,v0,32248
a080a4a8:	00041180 	sll	v0,a0,0x6
a080a4ac:	00621021 	addu	v0,v1,v0
a080a4b0:	8c42003c 	lw	v0,60(v0)
a080a4b4:	afc2001c 	sw	v0,28(s8)
a080a4b8:	8fc4001c 	lw	a0,28(s8)
a080a4bc:	0c2022b2 	jal	a0808ac8 <get_inode>
a080a4c0:	00000000 	nop
a080a4c4:	afc20020 	sw	v0,32(s8)
a080a4c8:	8fc20020 	lw	v0,32(s8)
a080a4cc:	8c420010 	lw	v0,16(v0)
a080a4d0:	afc20018 	sw	v0,24(s8)
a080a4d4:	8fc40038 	lw	a0,56(s8)
a080a4d8:	3c02a084 	lui	v0,0xa084
a080a4dc:	24437df8 	addiu	v1,v0,32248
a080a4e0:	00041180 	sll	v0,a0,0x6
a080a4e4:	00621021 	addu	v0,v1,v0
a080a4e8:	ac40003c 	sw	zero,60(v0)
a080a4ec:	8fc20038 	lw	v0,56(s8)
a080a4f0:	3c03a084 	lui	v1,0xa084
a080a4f4:	00022180 	sll	a0,v0,0x6
a080a4f8:	24627df8 	addiu	v0,v1,32248
a080a4fc:	00821021 	addu	v0,a0,v0
a080a500:	ac400038 	sw	zero,56(v0)
a080a504:	afc00034 	sw	zero,52(s8)
a080a508:	0820294f 	j	a080a53c <do_rmdir+0x25c>
a080a50c:	00000000 	nop
a080a510:	8fc20038 	lw	v0,56(s8)
a080a514:	8fc30034 	lw	v1,52(s8)
a080a518:	3c04a084 	lui	a0,0xa084
a080a51c:	00021180 	sll	v0,v0,0x6
a080a520:	00431821 	addu	v1,v0,v1
a080a524:	24827df8 	addiu	v0,a0,32248
a080a528:	00621021 	addu	v0,v1,v0
a080a52c:	a0400000 	sb	zero,0(v0)
a080a530:	8fc20034 	lw	v0,52(s8)
a080a534:	24420001 	addiu	v0,v0,1
a080a538:	afc20034 	sw	v0,52(s8)
a080a53c:	8fc20034 	lw	v0,52(s8)
a080a540:	2c420038 	sltiu	v0,v0,56
a080a544:	1440fff2 	bnez	v0,a080a510 <do_rmdir+0x230>
a080a548:	00000000 	nop
a080a54c:	3c02a084 	lui	v0,0xa084
a080a550:	24437df8 	addiu	v1,v0,32248
a080a554:	3c02a084 	lui	v0,0xa084
a080a558:	24446d18 	addiu	a0,v0,27928
a080a55c:	00602821 	move	a1,v1
a080a560:	24061000 	li	a2,4096
a080a564:	0c20167d 	jal	a08059f4 <os_memcpy>
a080a568:	00000000 	nop
a080a56c:	8fc20024 	lw	v0,36(s8)
a080a570:	8c430010 	lw	v1,16(v0)
a080a574:	3c020002 	lui	v0,0x2
a080a578:	00621021 	addu	v0,v1,v0
a080a57c:	00021b00 	sll	v1,v0,0xc
a080a580:	3c02a084 	lui	v0,0xa084
a080a584:	24446d18 	addiu	a0,v0,27928
a080a588:	00602821 	move	a1,v1
a080a58c:	24061000 	li	a2,4096
a080a590:	0c2032c6 	jal	a080cb18 <.pic.sdwrite>
a080a594:	00000000 	nop
a080a598:	3c02a084 	lui	v0,0xa084
a080a59c:	24420e90 	addiu	v0,v0,3728
a080a5a0:	afc20014 	sw	v0,20(s8)
a080a5a4:	afc00038 	sw	zero,56(s8)
a080a5a8:	08202985 	j	a080a614 <do_rmdir+0x334>
a080a5ac:	00000000 	nop
a080a5b0:	8fc30048 	lw	v1,72(s8)
a080a5b4:	8fc20038 	lw	v0,56(s8)
a080a5b8:	00621821 	addu	v1,v1,v0
a080a5bc:	3c020002 	lui	v0,0x2
a080a5c0:	00621021 	addu	v0,v1,v0
a080a5c4:	00021b00 	sll	v1,v0,0xc
a080a5c8:	3c02a084 	lui	v0,0xa084
a080a5cc:	24446d18 	addiu	a0,v0,27928
a080a5d0:	00602821 	move	a1,v1
a080a5d4:	24061000 	li	a2,4096
a080a5d8:	0c2032e6 	jal	a080cb98 <.pic.sdread>
a080a5dc:	00000000 	nop
a080a5e0:	8fc20014 	lw	v0,20(s8)
a080a5e4:	00402021 	move	a0,v0
a080a5e8:	3c02a084 	lui	v0,0xa084
a080a5ec:	24456d18 	addiu	a1,v0,27928
a080a5f0:	24061000 	li	a2,4096
a080a5f4:	0c20167d 	jal	a08059f4 <os_memcpy>
a080a5f8:	00000000 	nop
a080a5fc:	8fc20014 	lw	v0,20(s8)
a080a600:	24421000 	addiu	v0,v0,4096
a080a604:	afc20014 	sw	v0,20(s8)
a080a608:	8fc20038 	lw	v0,56(s8)
a080a60c:	24420001 	addiu	v0,v0,1
a080a610:	afc20038 	sw	v0,56(s8)
a080a614:	8fc20038 	lw	v0,56(s8)
a080a618:	2c420004 	sltiu	v0,v0,4
a080a61c:	1440ffe4 	bnez	v0,a080a5b0 <do_rmdir+0x2d0>
a080a620:	00000000 	nop
a080a624:	8fc3004c 	lw	v1,76(s8)
a080a628:	3c020002 	lui	v0,0x2
a080a62c:	00621021 	addu	v0,v1,v0
a080a630:	00021b00 	sll	v1,v0,0xc
a080a634:	3c02a084 	lui	v0,0xa084
a080a638:	24446d18 	addiu	a0,v0,27928
a080a63c:	00602821 	move	a1,v1
a080a640:	24061000 	li	a2,4096
a080a644:	0c2032e6 	jal	a080cb98 <.pic.sdread>
a080a648:	00000000 	nop
a080a64c:	3c02a084 	lui	v0,0xa084
a080a650:	24420990 	addiu	v0,v0,2448
a080a654:	00402021 	move	a0,v0
a080a658:	3c02a084 	lui	v0,0xa084
a080a65c:	24456d18 	addiu	a1,v0,27928
a080a660:	24060020 	li	a2,32
a080a664:	0c20167d 	jal	a08059f4 <os_memcpy>
a080a668:	00000000 	nop
a080a66c:	8fc20020 	lw	v0,32(s8)
a080a670:	8c430010 	lw	v1,16(v0)
a080a674:	3c02a084 	lui	v0,0xa084
a080a678:	24440e90 	addiu	a0,v0,3728
a080a67c:	00602821 	move	a1,v1
a080a680:	24060001 	li	a2,1
a080a684:	0c202367 	jal	a0808d9c <refresh_bitmap>
a080a688:	00000000 	nop
a080a68c:	3c02a084 	lui	v0,0xa084
a080a690:	24440990 	addiu	a0,v0,2448
a080a694:	8fc5001c 	lw	a1,28(s8)
a080a698:	24060001 	li	a2,1
a080a69c:	0c202367 	jal	a0808d9c <refresh_bitmap>
a080a6a0:	00000000 	nop
a080a6a4:	3c02a084 	lui	v0,0xa084
a080a6a8:	24420e90 	addiu	v0,v0,3728
a080a6ac:	afc20010 	sw	v0,16(s8)
a080a6b0:	afc00038 	sw	zero,56(s8)
a080a6b4:	082029c8 	j	a080a720 <do_rmdir+0x440>
a080a6b8:	00000000 	nop
a080a6bc:	8fc30010 	lw	v1,16(s8)
a080a6c0:	3c02a084 	lui	v0,0xa084
a080a6c4:	24446d18 	addiu	a0,v0,27928
a080a6c8:	00602821 	move	a1,v1
a080a6cc:	24061000 	li	a2,4096
a080a6d0:	0c20167d 	jal	a08059f4 <os_memcpy>
a080a6d4:	00000000 	nop
a080a6d8:	8fc30048 	lw	v1,72(s8)
a080a6dc:	8fc20038 	lw	v0,56(s8)
a080a6e0:	00621821 	addu	v1,v1,v0
a080a6e4:	3c020002 	lui	v0,0x2
a080a6e8:	00621021 	addu	v0,v1,v0
a080a6ec:	00021b00 	sll	v1,v0,0xc
a080a6f0:	3c02a084 	lui	v0,0xa084
a080a6f4:	24446d18 	addiu	a0,v0,27928
a080a6f8:	00602821 	move	a1,v1
a080a6fc:	24061000 	li	a2,4096
a080a700:	0c2032c6 	jal	a080cb18 <.pic.sdwrite>
a080a704:	00000000 	nop
a080a708:	8fc20010 	lw	v0,16(s8)
a080a70c:	24421000 	addiu	v0,v0,4096
a080a710:	afc20010 	sw	v0,16(s8)
a080a714:	8fc20038 	lw	v0,56(s8)
a080a718:	24420001 	addiu	v0,v0,1
a080a71c:	afc20038 	sw	v0,56(s8)
a080a720:	8fc20038 	lw	v0,56(s8)
a080a724:	2c420004 	sltiu	v0,v0,4
a080a728:	1440ffe4 	bnez	v0,a080a6bc <do_rmdir+0x3dc>
a080a72c:	00000000 	nop
a080a730:	3c02a084 	lui	v0,0xa084
a080a734:	24430990 	addiu	v1,v0,2448
a080a738:	3c02a084 	lui	v0,0xa084
a080a73c:	24446d18 	addiu	a0,v0,27928
a080a740:	00602821 	move	a1,v1
a080a744:	24061000 	li	a2,4096
a080a748:	0c20167d 	jal	a08059f4 <os_memcpy>
a080a74c:	00000000 	nop
a080a750:	8fc3004c 	lw	v1,76(s8)
a080a754:	3c020002 	lui	v0,0x2
a080a758:	00621021 	addu	v0,v1,v0
a080a75c:	00021b00 	sll	v1,v0,0xc
a080a760:	3c02a084 	lui	v0,0xa084
a080a764:	24446d18 	addiu	a0,v0,27928
a080a768:	00602821 	move	a1,v1
a080a76c:	24061000 	li	a2,4096
a080a770:	0c2032c6 	jal	a080cb18 <.pic.sdwrite>
a080a774:	00000000 	nop
a080a778:	8fc20024 	lw	v0,36(s8)
a080a77c:	8c420008 	lw	v0,8(v0)
a080a780:	2443ffff 	addiu	v1,v0,-1
a080a784:	8fc20024 	lw	v0,36(s8)
a080a788:	ac430008 	sw	v1,8(v0)
a080a78c:	8fc40020 	lw	a0,32(s8)
a080a790:	0c2022f7 	jal	a0808bdc <init_inode>
a080a794:	00000000 	nop
a080a798:	afc00038 	sw	zero,56(s8)
a080a79c:	08202a03 	j	a080a80c <do_rmdir+0x52c>
a080a7a0:	00000000 	nop
a080a7a4:	3c02a085 	lui	v0,0xa085
a080a7a8:	24438df8 	addiu	v1,v0,-29192
a080a7ac:	8fc20038 	lw	v0,56(s8)
a080a7b0:	00021300 	sll	v0,v0,0xc
a080a7b4:	00621821 	addu	v1,v1,v0
a080a7b8:	3c02a084 	lui	v0,0xa084
a080a7bc:	24446d18 	addiu	a0,v0,27928
a080a7c0:	00602821 	move	a1,v1
a080a7c4:	24061000 	li	a2,4096
a080a7c8:	0c20167d 	jal	a08059f4 <os_memcpy>
a080a7cc:	00000000 	nop
a080a7d0:	8fc30050 	lw	v1,80(s8)
a080a7d4:	8fc20038 	lw	v0,56(s8)
a080a7d8:	00621821 	addu	v1,v1,v0
a080a7dc:	3c020002 	lui	v0,0x2
a080a7e0:	00621021 	addu	v0,v1,v0
a080a7e4:	00021b00 	sll	v1,v0,0xc
a080a7e8:	3c02a084 	lui	v0,0xa084
a080a7ec:	24446d18 	addiu	a0,v0,27928
a080a7f0:	00602821 	move	a1,v1
a080a7f4:	24061000 	li	a2,4096
a080a7f8:	0c2032c6 	jal	a080cb18 <.pic.sdwrite>
a080a7fc:	00000000 	nop
a080a800:	8fc20038 	lw	v0,56(s8)
a080a804:	24420001 	addiu	v0,v0,1
a080a808:	afc20038 	sw	v0,56(s8)
a080a80c:	8fc20038 	lw	v0,56(s8)
a080a810:	2c420004 	sltiu	v0,v0,4
a080a814:	1440ffe3 	bnez	v0,a080a7a4 <do_rmdir+0x4c4>
a080a818:	00000000 	nop
a080a81c:	8fc20058 	lw	v0,88(s8)
a080a820:	2442ffff 	addiu	v0,v0,-1
a080a824:	afc20058 	sw	v0,88(s8)
a080a828:	8fc2005c 	lw	v0,92(s8)
a080a82c:	2442ffff 	addiu	v0,v0,-1
a080a830:	afc2005c 	sw	v0,92(s8)
a080a834:	27c30040 	addiu	v1,s8,64
a080a838:	3c02a084 	lui	v0,0xa084
a080a83c:	24446d18 	addiu	a0,v0,27928
a080a840:	00602821 	move	a1,v1
a080a844:	24060020 	li	a2,32
a080a848:	0c20167d 	jal	a08059f4 <os_memcpy>
a080a84c:	00000000 	nop
a080a850:	3c02a084 	lui	v0,0xa084
a080a854:	24446d18 	addiu	a0,v0,27928
a080a858:	3c052000 	lui	a1,0x2000
a080a85c:	24061000 	li	a2,4096
a080a860:	0c2032c6 	jal	a080cb18 <.pic.sdwrite>
a080a864:	00000000 	nop
a080a868:	afc00038 	sw	zero,56(s8)
a080a86c:	08202a3e 	j	a080a8f8 <do_rmdir+0x618>
a080a870:	00000000 	nop
a080a874:	8fc40038 	lw	a0,56(s8)
a080a878:	3c02a084 	lui	v0,0xa084
a080a87c:	24437df8 	addiu	v1,v0,32248
a080a880:	00041180 	sll	v0,a0,0x6
a080a884:	00621021 	addu	v0,v1,v0
a080a888:	ac40003c 	sw	zero,60(v0)
a080a88c:	8fc20038 	lw	v0,56(s8)
a080a890:	3c03a084 	lui	v1,0xa084
a080a894:	00022180 	sll	a0,v0,0x6
a080a898:	24627df8 	addiu	v0,v1,32248
a080a89c:	00821021 	addu	v0,a0,v0
a080a8a0:	ac400038 	sw	zero,56(v0)
a080a8a4:	afc00034 	sw	zero,52(s8)
a080a8a8:	08202a37 	j	a080a8dc <do_rmdir+0x5fc>
a080a8ac:	00000000 	nop
a080a8b0:	8fc20038 	lw	v0,56(s8)
a080a8b4:	8fc30034 	lw	v1,52(s8)
a080a8b8:	3c04a084 	lui	a0,0xa084
a080a8bc:	00021180 	sll	v0,v0,0x6
a080a8c0:	00431821 	addu	v1,v0,v1
a080a8c4:	24827df8 	addiu	v0,a0,32248
a080a8c8:	00621021 	addu	v0,v1,v0
a080a8cc:	a0400000 	sb	zero,0(v0)
a080a8d0:	8fc20034 	lw	v0,52(s8)
a080a8d4:	24420001 	addiu	v0,v0,1
a080a8d8:	afc20034 	sw	v0,52(s8)
a080a8dc:	8fc20034 	lw	v0,52(s8)
a080a8e0:	2c420038 	sltiu	v0,v0,56
a080a8e4:	1440fff2 	bnez	v0,a080a8b0 <do_rmdir+0x5d0>
a080a8e8:	00000000 	nop
a080a8ec:	8fc20038 	lw	v0,56(s8)
a080a8f0:	24420001 	addiu	v0,v0,1
a080a8f4:	afc20038 	sw	v0,56(s8)
a080a8f8:	8fc20038 	lw	v0,56(s8)
a080a8fc:	2c420040 	sltiu	v0,v0,64
a080a900:	1440ffdc 	bnez	v0,a080a874 <do_rmdir+0x594>
a080a904:	00000000 	nop
a080a908:	3c02a084 	lui	v0,0xa084
a080a90c:	24437df8 	addiu	v1,v0,32248
a080a910:	3c02a084 	lui	v0,0xa084
a080a914:	24446d18 	addiu	a0,v0,27928
a080a918:	00602821 	move	a1,v1
a080a91c:	24061000 	li	a2,4096
a080a920:	0c20167d 	jal	a08059f4 <os_memcpy>
a080a924:	00000000 	nop
a080a928:	8fc30018 	lw	v1,24(s8)
a080a92c:	3c020002 	lui	v0,0x2
a080a930:	00621021 	addu	v0,v1,v0
a080a934:	00021b00 	sll	v1,v0,0xc
a080a938:	3c02a084 	lui	v0,0xa084
a080a93c:	24446d18 	addiu	a0,v0,27928
a080a940:	00602821 	move	a1,v1
a080a944:	24061000 	li	a2,4096
a080a948:	0c2032c6 	jal	a080cb18 <.pic.sdwrite>
a080a94c:	00000000 	nop
a080a950:	3c02a081 	lui	v0,0xa081
a080a954:	2444d624 	addiu	a0,v0,-10716
a080a958:	0c201981 	jal	a0806604 <printk>
a080a95c:	00000000 	nop
a080a960:	03c0e821 	move	sp,s8
a080a964:	8fbf0064 	lw	ra,100(sp)
a080a968:	8fbe0060 	lw	s8,96(sp)
a080a96c:	27bd0068 	addiu	sp,sp,104
a080a970:	03e00008 	jr	ra
a080a974:	00000000 	nop

a080a978 <do_cd>:
a080a978:	27bdff90 	addiu	sp,sp,-112
a080a97c:	afbf006c 	sw	ra,108(sp)
a080a980:	afbe0068 	sw	s8,104(sp)
a080a984:	03a0f021 	move	s8,sp
a080a988:	afc40070 	sw	a0,112(s8)
a080a98c:	8fc20070 	lw	v0,112(s8)
a080a990:	afc20034 	sw	v0,52(s8)
a080a994:	3c02a081 	lui	v0,0xa081
a080a998:	8c42d94c 	lw	v0,-9908(v0)
a080a99c:	24430002 	addiu	v1,v0,2
a080a9a0:	3c02a081 	lui	v0,0xa081
a080a9a4:	ac43d94c 	sw	v1,-9908(v0)
a080a9a8:	3c02a081 	lui	v0,0xa081
a080a9ac:	8c42d94c 	lw	v0,-9908(v0)
a080a9b0:	24040001 	li	a0,1
a080a9b4:	00402821 	move	a1,v0
a080a9b8:	0c2002a0 	jal	a0800a80 <vt100_move_cursor>
a080a9bc:	00000000 	nop
a080a9c0:	3c02a084 	lui	v0,0xa084
a080a9c4:	24446d18 	addiu	a0,v0,27928
a080a9c8:	3c052000 	lui	a1,0x2000
a080a9cc:	24061000 	li	a2,4096
a080a9d0:	0c2032e6 	jal	a080cb98 <.pic.sdread>
a080a9d4:	00000000 	nop
a080a9d8:	27c20044 	addiu	v0,s8,68
a080a9dc:	00402021 	move	a0,v0
a080a9e0:	3c02a084 	lui	v0,0xa084
a080a9e4:	24456d18 	addiu	a1,v0,27928
a080a9e8:	24060020 	li	a2,32
a080a9ec:	0c20167d 	jal	a08059f4 <os_memcpy>
a080a9f0:	00000000 	nop
a080a9f4:	8fc30044 	lw	v1,68(s8)
a080a9f8:	3c020011 	lui	v0,0x11
a080a9fc:	34424514 	ori	v0,v0,0x4514
a080aa00:	10620007 	beq	v1,v0,a080aa20 <do_cd+0xa8>
a080aa04:	00000000 	nop
a080aa08:	3c02a081 	lui	v0,0xa081
a080aa0c:	2444d518 	addiu	a0,v0,-10984
a080aa10:	0c201981 	jal	a0806604 <printk>
a080aa14:	00000000 	nop
a080aa18:	08202c39 	j	a080b0e4 <do_cd+0x76c>
a080aa1c:	00000000 	nop
a080aa20:	8fc20054 	lw	v0,84(s8)
a080aa24:	00402021 	move	a0,v0
a080aa28:	0c2022cb 	jal	a0808b2c <load_inode_array>
a080aa2c:	00000000 	nop
a080aa30:	3c02a081 	lui	v0,0xa081
a080aa34:	8c42d928 	lw	v0,-9944(v0)
a080aa38:	00402021 	move	a0,v0
a080aa3c:	0c2022b2 	jal	a0808ac8 <get_inode>
a080aa40:	00000000 	nop
a080aa44:	afc20028 	sw	v0,40(s8)
a080aa48:	8fc20028 	lw	v0,40(s8)
a080aa4c:	8c420000 	lw	v0,0(v0)
a080aa50:	14400007 	bnez	v0,a080aa70 <do_cd+0xf8>
a080aa54:	00000000 	nop
a080aa58:	3c02a081 	lui	v0,0xa081
a080aa5c:	2444d53c 	addiu	a0,v0,-10948
a080aa60:	0c201981 	jal	a0806604 <printk>
a080aa64:	00000000 	nop
a080aa68:	08202a9a 	j	a080aa68 <do_cd+0xf0>
a080aa6c:	00000000 	nop
a080aa70:	8fc20028 	lw	v0,40(s8)
a080aa74:	8c420010 	lw	v0,16(v0)
a080aa78:	00402021 	move	a0,v0
a080aa7c:	0c202295 	jal	a0808a54 <load_dentry_arr>
a080aa80:	00000000 	nop
a080aa84:	afc00040 	sw	zero,64(s8)
a080aa88:	08202ac6 	j	a080ab18 <do_cd+0x1a0>
a080aa8c:	00000000 	nop
a080aa90:	afc0003c 	sw	zero,60(s8)
a080aa94:	08202abf 	j	a080aafc <do_cd+0x184>
a080aa98:	00000000 	nop
a080aa9c:	8fc60040 	lw	a2,64(s8)
a080aaa0:	8fc7003c 	lw	a3,60(s8)
a080aaa4:	8fc20040 	lw	v0,64(s8)
a080aaa8:	8fc4003c 	lw	a0,60(s8)
a080aaac:	3c05a084 	lui	a1,0xa084
a080aab0:	000218c0 	sll	v1,v0,0x3
a080aab4:	000310c0 	sll	v0,v1,0x3
a080aab8:	00431023 	subu	v0,v0,v1
a080aabc:	00441821 	addu	v1,v0,a0
a080aac0:	24a209b0 	addiu	v0,a1,2480
a080aac4:	00621021 	addu	v0,v1,v0
a080aac8:	80440000 	lb	a0,0(v0)
a080aacc:	3c05a085 	lui	a1,0xa085
a080aad0:	00c01021 	move	v0,a2
a080aad4:	000218c0 	sll	v1,v0,0x3
a080aad8:	000310c0 	sll	v0,v1,0x3
a080aadc:	00431023 	subu	v0,v0,v1
a080aae0:	00471821 	addu	v1,v0,a3
a080aae4:	24a2cdf8 	addiu	v0,a1,-12808
a080aae8:	00621021 	addu	v0,v1,v0
a080aaec:	a0440000 	sb	a0,0(v0)
a080aaf0:	8fc2003c 	lw	v0,60(s8)
a080aaf4:	24420001 	addiu	v0,v0,1
a080aaf8:	afc2003c 	sw	v0,60(s8)
a080aafc:	8fc2003c 	lw	v0,60(s8)
a080ab00:	2c420038 	sltiu	v0,v0,56
a080ab04:	1440ffe5 	bnez	v0,a080aa9c <do_cd+0x124>
a080ab08:	00000000 	nop
a080ab0c:	8fc20040 	lw	v0,64(s8)
a080ab10:	24420001 	addiu	v0,v0,1
a080ab14:	afc20040 	sw	v0,64(s8)
a080ab18:	8fc20040 	lw	v0,64(s8)
a080ab1c:	2c420004 	sltiu	v0,v0,4
a080ab20:	1440ffdb 	bnez	v0,a080aa90 <do_cd+0x118>
a080ab24:	00000000 	nop
a080ab28:	3c02a081 	lui	v0,0xa081
a080ab2c:	8c43d92c 	lw	v1,-9940(v0)
a080ab30:	3c02a081 	lui	v0,0xa081
a080ab34:	ac43d954 	sw	v1,-9900(v0)
a080ab38:	8fc20034 	lw	v0,52(s8)
a080ab3c:	afc20010 	sw	v0,16(s8)
a080ab40:	3c02a081 	lui	v0,0xa081
a080ab44:	ac40d958 	sw	zero,-9896(v0)
a080ab48:	afc00040 	sw	zero,64(s8)
a080ab4c:	0c20226f 	jal	a08089bc <init_tmp_path>
a080ab50:	00000000 	nop
a080ab54:	08202af8 	j	a080abe0 <do_cd+0x268>
a080ab58:	00000000 	nop
a080ab5c:	8fc20010 	lw	v0,16(s8)
a080ab60:	80430000 	lb	v1,0(v0)
a080ab64:	2402002f 	li	v0,47
a080ab68:	14620009 	bne	v1,v0,a080ab90 <do_cd+0x218>
a080ab6c:	00000000 	nop
a080ab70:	3c02a081 	lui	v0,0xa081
a080ab74:	8c42d958 	lw	v0,-9896(v0)
a080ab78:	24430001 	addiu	v1,v0,1
a080ab7c:	3c02a081 	lui	v0,0xa081
a080ab80:	ac43d958 	sw	v1,-9896(v0)
a080ab84:	afc00040 	sw	zero,64(s8)
a080ab88:	08202af5 	j	a080abd4 <do_cd+0x25c>
a080ab8c:	00000000 	nop
a080ab90:	3c02a081 	lui	v0,0xa081
a080ab94:	8c43d958 	lw	v1,-9896(v0)
a080ab98:	8fc40040 	lw	a0,64(s8)
a080ab9c:	8fc20010 	lw	v0,16(s8)
a080aba0:	80450000 	lb	a1,0(v0)
a080aba4:	3c06a084 	lui	a2,0xa084
a080aba8:	00601021 	move	v0,v1
a080abac:	000218c0 	sll	v1,v0,0x3
a080abb0:	000310c0 	sll	v0,v1,0x3
a080abb4:	00431023 	subu	v0,v0,v1
a080abb8:	00441821 	addu	v1,v0,a0
a080abbc:	24c27d18 	addiu	v0,a2,32024
a080abc0:	00621021 	addu	v0,v1,v0
a080abc4:	a0450000 	sb	a1,0(v0)
a080abc8:	8fc20040 	lw	v0,64(s8)
a080abcc:	24420001 	addiu	v0,v0,1
a080abd0:	afc20040 	sw	v0,64(s8)
a080abd4:	8fc20010 	lw	v0,16(s8)
a080abd8:	24420001 	addiu	v0,v0,1
a080abdc:	afc20010 	sw	v0,16(s8)
a080abe0:	8fc20010 	lw	v0,16(s8)
a080abe4:	80420000 	lb	v0,0(v0)
a080abe8:	1040000b 	beqz	v0,a080ac18 <do_cd+0x2a0>
a080abec:	00000000 	nop
a080abf0:	8fc20010 	lw	v0,16(s8)
a080abf4:	80430000 	lb	v1,0(v0)
a080abf8:	2402000d 	li	v0,13
a080abfc:	10620006 	beq	v1,v0,a080ac18 <do_cd+0x2a0>
a080ac00:	00000000 	nop
a080ac04:	8fc20010 	lw	v0,16(s8)
a080ac08:	80430000 	lb	v1,0(v0)
a080ac0c:	2402000a 	li	v0,10
a080ac10:	1462ffd2 	bne	v1,v0,a080ab5c <do_cd+0x1e4>
a080ac14:	00000000 	nop
a080ac18:	3c02a081 	lui	v0,0xa081
a080ac1c:	8c42d958 	lw	v0,-9896(v0)
a080ac20:	24430001 	addiu	v1,v0,1
a080ac24:	3c02a081 	lui	v0,0xa081
a080ac28:	ac43d958 	sw	v1,-9896(v0)
a080ac2c:	8fc20028 	lw	v0,40(s8)
a080ac30:	afc2001c 	sw	v0,28(s8)
a080ac34:	afc00040 	sw	zero,64(s8)
a080ac38:	08202c01 	j	a080b004 <do_cd+0x68c>
a080ac3c:	00000000 	nop
a080ac40:	3c02a084 	lui	v0,0xa084
a080ac44:	24447d18 	addiu	a0,v0,32024
a080ac48:	8fc20040 	lw	v0,64(s8)
a080ac4c:	000218c0 	sll	v1,v0,0x3
a080ac50:	000310c0 	sll	v0,v1,0x3
a080ac54:	00431023 	subu	v0,v0,v1
a080ac58:	00821021 	addu	v0,a0,v0
a080ac5c:	00402021 	move	a0,v0
a080ac60:	3c02a081 	lui	v0,0xa081
a080ac64:	2445d63c 	addiu	a1,v0,-10692
a080ac68:	24060002 	li	a2,2
a080ac6c:	0c20169a 	jal	a0805a68 <my_strncmp>
a080ac70:	00000000 	nop
a080ac74:	14400029 	bnez	v0,a080ad1c <do_cd+0x3a4>
a080ac78:	00000000 	nop
a080ac7c:	3c02a084 	lui	v0,0xa084
a080ac80:	24427df8 	addiu	v0,v0,32248
a080ac84:	8c42007c 	lw	v0,124(v0)
a080ac88:	00402021 	move	a0,v0
a080ac8c:	0c2022b2 	jal	a0808ac8 <get_inode>
a080ac90:	00000000 	nop
a080ac94:	afc2001c 	sw	v0,28(s8)
a080ac98:	8fc2001c 	lw	v0,28(s8)
a080ac9c:	8c420010 	lw	v0,16(v0)
a080aca0:	00402021 	move	a0,v0
a080aca4:	0c202295 	jal	a0808a54 <load_dentry_arr>
a080aca8:	00000000 	nop
a080acac:	3c02a081 	lui	v0,0xa081
a080acb0:	8c42d954 	lw	v0,-9900(v0)
a080acb4:	2443ffff 	addiu	v1,v0,-1
a080acb8:	3c02a081 	lui	v0,0xa081
a080acbc:	ac43d954 	sw	v1,-9900(v0)
a080acc0:	afc0003c 	sw	zero,60(s8)
a080acc4:	08202b41 	j	a080ad04 <do_cd+0x38c>
a080acc8:	00000000 	nop
a080accc:	3c02a081 	lui	v0,0xa081
a080acd0:	8c42d954 	lw	v0,-9900(v0)
a080acd4:	8fc4003c 	lw	a0,60(s8)
a080acd8:	3c05a085 	lui	a1,0xa085
a080acdc:	000218c0 	sll	v1,v0,0x3
a080ace0:	000310c0 	sll	v0,v1,0x3
a080ace4:	00431023 	subu	v0,v0,v1
a080ace8:	00441821 	addu	v1,v0,a0
a080acec:	24a2cdf8 	addiu	v0,a1,-12808
a080acf0:	00621021 	addu	v0,v1,v0
a080acf4:	a0400000 	sb	zero,0(v0)
a080acf8:	8fc2003c 	lw	v0,60(s8)
a080acfc:	24420001 	addiu	v0,v0,1
a080ad00:	afc2003c 	sw	v0,60(s8)
a080ad04:	8fc2003c 	lw	v0,60(s8)
a080ad08:	2c420038 	sltiu	v0,v0,56
a080ad0c:	1440ffef 	bnez	v0,a080accc <do_cd+0x354>
a080ad10:	00000000 	nop
a080ad14:	08202bf4 	j	a080afd0 <do_cd+0x658>
a080ad18:	00000000 	nop
a080ad1c:	3c02a084 	lui	v0,0xa084
a080ad20:	24447d18 	addiu	a0,v0,32024
a080ad24:	8fc20040 	lw	v0,64(s8)
a080ad28:	000218c0 	sll	v1,v0,0x3
a080ad2c:	000310c0 	sll	v0,v1,0x3
a080ad30:	00431023 	subu	v0,v0,v1
a080ad34:	00821021 	addu	v0,a0,v0
a080ad38:	00402021 	move	a0,v0
a080ad3c:	3c02a081 	lui	v0,0xa081
a080ad40:	2445d640 	addiu	a1,v0,-10688
a080ad44:	24060001 	li	a2,1
a080ad48:	0c20169a 	jal	a0805a68 <my_strncmp>
a080ad4c:	00000000 	nop
a080ad50:	1040009f 	beqz	v0,a080afd0 <do_cd+0x658>
a080ad54:	00000000 	nop
a080ad58:	3c02a084 	lui	v0,0xa084
a080ad5c:	24447d18 	addiu	a0,v0,32024
a080ad60:	8fc20040 	lw	v0,64(s8)
a080ad64:	000218c0 	sll	v1,v0,0x3
a080ad68:	000310c0 	sll	v0,v1,0x3
a080ad6c:	00431023 	subu	v0,v0,v1
a080ad70:	00821021 	addu	v0,a0,v0
a080ad74:	00402021 	move	a0,v0
a080ad78:	3c02a081 	lui	v0,0xa081
a080ad7c:	2445d3ac 	addiu	a1,v0,-11348
a080ad80:	24060001 	li	a2,1
a080ad84:	0c20169a 	jal	a0805a68 <my_strncmp>
a080ad88:	00000000 	nop
a080ad8c:	1440001a 	bnez	v0,a080adf8 <do_cd+0x480>
a080ad90:	00000000 	nop
a080ad94:	8fc20040 	lw	v0,64(s8)
a080ad98:	14400017 	bnez	v0,a080adf8 <do_cd+0x480>
a080ad9c:	00000000 	nop
a080ada0:	00002021 	move	a0,zero
a080ada4:	0c2022b2 	jal	a0808ac8 <get_inode>
a080ada8:	00000000 	nop
a080adac:	afc2001c 	sw	v0,28(s8)
a080adb0:	8fc2001c 	lw	v0,28(s8)
a080adb4:	8c420010 	lw	v0,16(v0)
a080adb8:	00402021 	move	a0,v0
a080adbc:	0c202295 	jal	a0808a54 <load_dentry_arr>
a080adc0:	00000000 	nop
a080adc4:	3c03a081 	lui	v1,0xa081
a080adc8:	24020001 	li	v0,1
a080adcc:	ac62d954 	sw	v0,-9900(v1)
a080add0:	3c02a085 	lui	v0,0xa085
a080add4:	2442cdf8 	addiu	v0,v0,-12808
a080add8:	00402021 	move	a0,v0
a080addc:	3c02a081 	lui	v0,0xa081
a080ade0:	2445d3ac 	addiu	a1,v0,-11348
a080ade4:	24060002 	li	a2,2
a080ade8:	0c20167d 	jal	a08059f4 <os_memcpy>
a080adec:	00000000 	nop
a080adf0:	08202bf4 	j	a080afd0 <do_cd+0x658>
a080adf4:	00000000 	nop
a080adf8:	8fc20040 	lw	v0,64(s8)
a080adfc:	14400007 	bnez	v0,a080ae1c <do_cd+0x4a4>
a080ae00:	00000000 	nop
a080ae04:	3c02a081 	lui	v0,0xa081
a080ae08:	2444d644 	addiu	a0,v0,-10684
a080ae0c:	0c201981 	jal	a0806604 <printk>
a080ae10:	00000000 	nop
a080ae14:	08202c39 	j	a080b0e4 <do_cd+0x76c>
a080ae18:	00000000 	nop
a080ae1c:	afc0003c 	sw	zero,60(s8)
a080ae20:	08202baf 	j	a080aebc <do_cd+0x544>
a080ae24:	00000000 	nop
a080ae28:	8fc2003c 	lw	v0,60(s8)
a080ae2c:	10400020 	beqz	v0,a080aeb0 <do_cd+0x538>
a080ae30:	00000000 	nop
a080ae34:	8fc3003c 	lw	v1,60(s8)
a080ae38:	24020001 	li	v0,1
a080ae3c:	1062001c 	beq	v1,v0,a080aeb0 <do_cd+0x538>
a080ae40:	00000000 	nop
a080ae44:	8fc2003c 	lw	v0,60(s8)
a080ae48:	3c03a084 	lui	v1,0xa084
a080ae4c:	00022180 	sll	a0,v0,0x6
a080ae50:	24627df8 	addiu	v0,v1,32248
a080ae54:	00821021 	addu	v0,a0,v0
a080ae58:	8c430038 	lw	v1,56(v0)
a080ae5c:	24020001 	li	v0,1
a080ae60:	14620013 	bne	v1,v0,a080aeb0 <do_cd+0x538>
a080ae64:	00000000 	nop
a080ae68:	8fc2003c 	lw	v0,60(s8)
a080ae6c:	00021980 	sll	v1,v0,0x6
a080ae70:	3c02a084 	lui	v0,0xa084
a080ae74:	24427df8 	addiu	v0,v0,32248
a080ae78:	00622021 	addu	a0,v1,v0
a080ae7c:	3c02a084 	lui	v0,0xa084
a080ae80:	24457d18 	addiu	a1,v0,32024
a080ae84:	8fc20040 	lw	v0,64(s8)
a080ae88:	000218c0 	sll	v1,v0,0x3
a080ae8c:	000310c0 	sll	v0,v1,0x3
a080ae90:	00431023 	subu	v0,v0,v1
a080ae94:	00a21021 	addu	v0,a1,v0
a080ae98:	00402821 	move	a1,v0
a080ae9c:	24060038 	li	a2,56
a080aea0:	0c20169a 	jal	a0805a68 <my_strncmp>
a080aea4:	00000000 	nop
a080aea8:	1040000a 	beqz	v0,a080aed4 <do_cd+0x55c>
a080aeac:	00000000 	nop
a080aeb0:	8fc2003c 	lw	v0,60(s8)
a080aeb4:	24420001 	addiu	v0,v0,1
a080aeb8:	afc2003c 	sw	v0,60(s8)
a080aebc:	8fc2001c 	lw	v0,28(s8)
a080aec0:	8c430008 	lw	v1,8(v0)
a080aec4:	8fc2003c 	lw	v0,60(s8)
a080aec8:	0043102b 	sltu	v0,v0,v1
a080aecc:	1440ffd6 	bnez	v0,a080ae28 <do_cd+0x4b0>
a080aed0:	00000000 	nop
a080aed4:	8fc2001c 	lw	v0,28(s8)
a080aed8:	8c430008 	lw	v1,8(v0)
a080aedc:	8fc2003c 	lw	v0,60(s8)
a080aee0:	14620007 	bne	v1,v0,a080af00 <do_cd+0x588>
a080aee4:	00000000 	nop
a080aee8:	3c02a081 	lui	v0,0xa081
a080aeec:	2444d600 	addiu	a0,v0,-10752
a080aef0:	0c201981 	jal	a0806604 <printk>
a080aef4:	00000000 	nop
a080aef8:	08202c39 	j	a080b0e4 <do_cd+0x76c>
a080aefc:	00000000 	nop
a080af00:	8fc4003c 	lw	a0,60(s8)
a080af04:	3c02a084 	lui	v0,0xa084
a080af08:	24437df8 	addiu	v1,v0,32248
a080af0c:	00041180 	sll	v0,a0,0x6
a080af10:	00621021 	addu	v0,v1,v0
a080af14:	8c42003c 	lw	v0,60(v0)
a080af18:	00402021 	move	a0,v0
a080af1c:	0c2022b2 	jal	a0808ac8 <get_inode>
a080af20:	00000000 	nop
a080af24:	afc2001c 	sw	v0,28(s8)
a080af28:	8fc2001c 	lw	v0,28(s8)
a080af2c:	8c420010 	lw	v0,16(v0)
a080af30:	00402021 	move	a0,v0
a080af34:	0c202295 	jal	a0808a54 <load_dentry_arr>
a080af38:	00000000 	nop
a080af3c:	afc00038 	sw	zero,56(s8)
a080af40:	08202beb 	j	a080afac <do_cd+0x634>
a080af44:	00000000 	nop
a080af48:	3c02a081 	lui	v0,0xa081
a080af4c:	8c46d954 	lw	a2,-9900(v0)
a080af50:	8fc70038 	lw	a3,56(s8)
a080af54:	8fc20040 	lw	v0,64(s8)
a080af58:	8fc40038 	lw	a0,56(s8)
a080af5c:	3c05a084 	lui	a1,0xa084
a080af60:	000218c0 	sll	v1,v0,0x3
a080af64:	000310c0 	sll	v0,v1,0x3
a080af68:	00431023 	subu	v0,v0,v1
a080af6c:	00441821 	addu	v1,v0,a0
a080af70:	24a27d18 	addiu	v0,a1,32024
a080af74:	00621021 	addu	v0,v1,v0
a080af78:	80440000 	lb	a0,0(v0)
a080af7c:	3c05a085 	lui	a1,0xa085
a080af80:	00c01021 	move	v0,a2
a080af84:	000218c0 	sll	v1,v0,0x3
a080af88:	000310c0 	sll	v0,v1,0x3
a080af8c:	00431023 	subu	v0,v0,v1
a080af90:	00471821 	addu	v1,v0,a3
a080af94:	24a2cdf8 	addiu	v0,a1,-12808
a080af98:	00621021 	addu	v0,v1,v0
a080af9c:	a0440000 	sb	a0,0(v0)
a080afa0:	8fc20038 	lw	v0,56(s8)
a080afa4:	24420001 	addiu	v0,v0,1
a080afa8:	afc20038 	sw	v0,56(s8)
a080afac:	8fc20038 	lw	v0,56(s8)
a080afb0:	2c420038 	sltiu	v0,v0,56
a080afb4:	1440ffe4 	bnez	v0,a080af48 <do_cd+0x5d0>
a080afb8:	00000000 	nop
a080afbc:	3c02a081 	lui	v0,0xa081
a080afc0:	8c42d954 	lw	v0,-9900(v0)
a080afc4:	24430001 	addiu	v1,v0,1
a080afc8:	3c02a081 	lui	v0,0xa081
a080afcc:	ac43d954 	sw	v1,-9900(v0)
a080afd0:	3c02a081 	lui	v0,0xa081
a080afd4:	8c42d954 	lw	v0,-9900(v0)
a080afd8:	14400007 	bnez	v0,a080aff8 <do_cd+0x680>
a080afdc:	00000000 	nop
a080afe0:	3c02a081 	lui	v0,0xa081
a080afe4:	2444d644 	addiu	a0,v0,-10684
a080afe8:	0c201981 	jal	a0806604 <printk>
a080afec:	00000000 	nop
a080aff0:	08202c39 	j	a080b0e4 <do_cd+0x76c>
a080aff4:	00000000 	nop
a080aff8:	8fc20040 	lw	v0,64(s8)
a080affc:	24420001 	addiu	v0,v0,1
a080b000:	afc20040 	sw	v0,64(s8)
a080b004:	3c02a081 	lui	v0,0xa081
a080b008:	8c43d958 	lw	v1,-9896(v0)
a080b00c:	8fc20040 	lw	v0,64(s8)
a080b010:	0043102b 	sltu	v0,v0,v1
a080b014:	1440ff0a 	bnez	v0,a080ac40 <do_cd+0x2c8>
a080b018:	00000000 	nop
a080b01c:	afc00040 	sw	zero,64(s8)
a080b020:	08202c2c 	j	a080b0b0 <do_cd+0x738>
a080b024:	00000000 	nop
a080b028:	afc0003c 	sw	zero,60(s8)
a080b02c:	08202c25 	j	a080b094 <do_cd+0x71c>
a080b030:	00000000 	nop
a080b034:	8fc60040 	lw	a2,64(s8)
a080b038:	8fc7003c 	lw	a3,60(s8)
a080b03c:	8fc20040 	lw	v0,64(s8)
a080b040:	8fc4003c 	lw	a0,60(s8)
a080b044:	3c05a085 	lui	a1,0xa085
a080b048:	000218c0 	sll	v1,v0,0x3
a080b04c:	000310c0 	sll	v0,v1,0x3
a080b050:	00431023 	subu	v0,v0,v1
a080b054:	00441821 	addu	v1,v0,a0
a080b058:	24a2cdf8 	addiu	v0,a1,-12808
a080b05c:	00621021 	addu	v0,v1,v0
a080b060:	80440000 	lb	a0,0(v0)
a080b064:	3c05a084 	lui	a1,0xa084
a080b068:	00c01021 	move	v0,a2
a080b06c:	000218c0 	sll	v1,v0,0x3
a080b070:	000310c0 	sll	v0,v1,0x3
a080b074:	00431023 	subu	v0,v0,v1
a080b078:	00471821 	addu	v1,v0,a3
a080b07c:	24a209b0 	addiu	v0,a1,2480
a080b080:	00621021 	addu	v0,v1,v0
a080b084:	a0440000 	sb	a0,0(v0)
a080b088:	8fc2003c 	lw	v0,60(s8)
a080b08c:	24420001 	addiu	v0,v0,1
a080b090:	afc2003c 	sw	v0,60(s8)
a080b094:	8fc2003c 	lw	v0,60(s8)
a080b098:	2c420038 	sltiu	v0,v0,56
a080b09c:	1440ffe5 	bnez	v0,a080b034 <do_cd+0x6bc>
a080b0a0:	00000000 	nop
a080b0a4:	8fc20040 	lw	v0,64(s8)
a080b0a8:	24420001 	addiu	v0,v0,1
a080b0ac:	afc20040 	sw	v0,64(s8)
a080b0b0:	8fc20040 	lw	v0,64(s8)
a080b0b4:	2c420004 	sltiu	v0,v0,4
a080b0b8:	1440ffdb 	bnez	v0,a080b028 <do_cd+0x6b0>
a080b0bc:	00000000 	nop
a080b0c0:	3c02a081 	lui	v0,0xa081
a080b0c4:	8c43d954 	lw	v1,-9900(v0)
a080b0c8:	3c02a081 	lui	v0,0xa081
a080b0cc:	ac43d92c 	sw	v1,-9940(v0)
a080b0d0:	3c02a084 	lui	v0,0xa084
a080b0d4:	24427df8 	addiu	v0,v0,32248
a080b0d8:	8c43003c 	lw	v1,60(v0)
a080b0dc:	3c02a081 	lui	v0,0xa081
a080b0e0:	ac43d928 	sw	v1,-9944(v0)
a080b0e4:	03c0e821 	move	sp,s8
a080b0e8:	8fbf006c 	lw	ra,108(sp)
a080b0ec:	8fbe0068 	lw	s8,104(sp)
a080b0f0:	27bd0070 	addiu	sp,sp,112
a080b0f4:	03e00008 	jr	ra
a080b0f8:	00000000 	nop

a080b0fc <do_ls>:
a080b0fc:	27bdffb8 	addiu	sp,sp,-72
a080b100:	afbf0044 	sw	ra,68(sp)
a080b104:	afbe0040 	sw	s8,64(sp)
a080b108:	03a0f021 	move	s8,sp
a080b10c:	3c02a081 	lui	v0,0xa081
a080b110:	8c42d94c 	lw	v0,-9908(v0)
a080b114:	24430002 	addiu	v1,v0,2
a080b118:	3c02a081 	lui	v0,0xa081
a080b11c:	ac43d94c 	sw	v1,-9908(v0)
a080b120:	3c02a081 	lui	v0,0xa081
a080b124:	8c42d94c 	lw	v0,-9908(v0)
a080b128:	24040001 	li	a0,1
a080b12c:	00402821 	move	a1,v0
a080b130:	0c2002a0 	jal	a0800a80 <vt100_move_cursor>
a080b134:	00000000 	nop
a080b138:	3c02a084 	lui	v0,0xa084
a080b13c:	24446d18 	addiu	a0,v0,27928
a080b140:	3c052000 	lui	a1,0x2000
a080b144:	24061000 	li	a2,4096
a080b148:	0c2032e6 	jal	a080cb98 <.pic.sdread>
a080b14c:	00000000 	nop
a080b150:	27c2001c 	addiu	v0,s8,28
a080b154:	00402021 	move	a0,v0
a080b158:	3c02a084 	lui	v0,0xa084
a080b15c:	24456d18 	addiu	a1,v0,27928
a080b160:	24060020 	li	a2,32
a080b164:	0c20167d 	jal	a08059f4 <os_memcpy>
a080b168:	00000000 	nop
a080b16c:	8fc3001c 	lw	v1,28(s8)
a080b170:	3c020011 	lui	v0,0x11
a080b174:	34424514 	ori	v0,v0,0x4514
a080b178:	10620007 	beq	v1,v0,a080b198 <do_ls+0x9c>
a080b17c:	00000000 	nop
a080b180:	3c02a081 	lui	v0,0xa081
a080b184:	2444d518 	addiu	a0,v0,-10984
a080b188:	0c201981 	jal	a0806604 <printk>
a080b18c:	00000000 	nop
a080b190:	08202cfb 	j	a080b3ec <do_ls+0x2f0>
a080b194:	00000000 	nop
a080b198:	8fc2002c 	lw	v0,44(s8)
a080b19c:	00402021 	move	a0,v0
a080b1a0:	0c2022cb 	jal	a0808b2c <load_inode_array>
a080b1a4:	00000000 	nop
a080b1a8:	3c02a081 	lui	v0,0xa081
a080b1ac:	8c42d928 	lw	v0,-9944(v0)
a080b1b0:	00402021 	move	a0,v0
a080b1b4:	0c2022b2 	jal	a0808ac8 <get_inode>
a080b1b8:	00000000 	nop
a080b1bc:	afc20018 	sw	v0,24(s8)
a080b1c0:	8fc20018 	lw	v0,24(s8)
a080b1c4:	8c420010 	lw	v0,16(v0)
a080b1c8:	00402021 	move	a0,v0
a080b1cc:	0c202295 	jal	a0808a54 <load_dentry_arr>
a080b1d0:	00000000 	nop
a080b1d4:	afc00014 	sw	zero,20(s8)
a080b1d8:	08202cbc 	j	a080b2f0 <do_ls+0x1f4>
a080b1dc:	00000000 	nop
a080b1e0:	8fc40014 	lw	a0,20(s8)
a080b1e4:	3c02a084 	lui	v0,0xa084
a080b1e8:	24437df8 	addiu	v1,v0,32248
a080b1ec:	00041180 	sll	v0,a0,0x6
a080b1f0:	00621021 	addu	v0,v1,v0
a080b1f4:	8c43003c 	lw	v1,60(v0)
a080b1f8:	3c02a081 	lui	v0,0xa081
a080b1fc:	2444d65c 	addiu	a0,v0,-10660
a080b200:	00602821 	move	a1,v1
a080b204:	0c201981 	jal	a0806604 <printk>
a080b208:	00000000 	nop
a080b20c:	8fc20014 	lw	v0,20(s8)
a080b210:	3c03a084 	lui	v1,0xa084
a080b214:	00022180 	sll	a0,v0,0x6
a080b218:	24627df8 	addiu	v0,v1,32248
a080b21c:	00821021 	addu	v0,a0,v0
a080b220:	8c420038 	lw	v0,56(v0)
a080b224:	14400007 	bnez	v0,a080b244 <do_ls+0x148>
a080b228:	00000000 	nop
a080b22c:	3c02a081 	lui	v0,0xa081
a080b230:	2444d664 	addiu	a0,v0,-10652
a080b234:	0c201981 	jal	a0806604 <printk>
a080b238:	00000000 	nop
a080b23c:	08202c95 	j	a080b254 <do_ls+0x158>
a080b240:	00000000 	nop
a080b244:	3c02a081 	lui	v0,0xa081
a080b248:	2444d66c 	addiu	a0,v0,-10644
a080b24c:	0c201981 	jal	a0806604 <printk>
a080b250:	00000000 	nop
a080b254:	8fc20014 	lw	v0,20(s8)
a080b258:	14400007 	bnez	v0,a080b278 <do_ls+0x17c>
a080b25c:	00000000 	nop
a080b260:	3c02a081 	lui	v0,0xa081
a080b264:	2444d640 	addiu	a0,v0,-10688
a080b268:	0c201981 	jal	a0806604 <printk>
a080b26c:	00000000 	nop
a080b270:	08202cb0 	j	a080b2c0 <do_ls+0x1c4>
a080b274:	00000000 	nop
a080b278:	8fc30014 	lw	v1,20(s8)
a080b27c:	24020001 	li	v0,1
a080b280:	14620007 	bne	v1,v0,a080b2a0 <do_ls+0x1a4>
a080b284:	00000000 	nop
a080b288:	3c02a081 	lui	v0,0xa081
a080b28c:	2444d63c 	addiu	a0,v0,-10692
a080b290:	0c201981 	jal	a0806604 <printk>
a080b294:	00000000 	nop
a080b298:	08202cb0 	j	a080b2c0 <do_ls+0x1c4>
a080b29c:	00000000 	nop
a080b2a0:	8fc20014 	lw	v0,20(s8)
a080b2a4:	00021980 	sll	v1,v0,0x6
a080b2a8:	3c02a084 	lui	v0,0xa084
a080b2ac:	24427df8 	addiu	v0,v0,32248
a080b2b0:	00621021 	addu	v0,v1,v0
a080b2b4:	00402021 	move	a0,v0
a080b2b8:	0c201981 	jal	a0806604 <printk>
a080b2bc:	00000000 	nop
a080b2c0:	3c02a081 	lui	v0,0xa081
a080b2c4:	2444d674 	addiu	a0,v0,-10636
a080b2c8:	0c201981 	jal	a0806604 <printk>
a080b2cc:	00000000 	nop
a080b2d0:	3c02a081 	lui	v0,0xa081
a080b2d4:	8c42d94c 	lw	v0,-9908(v0)
a080b2d8:	24430001 	addiu	v1,v0,1
a080b2dc:	3c02a081 	lui	v0,0xa081
a080b2e0:	ac43d94c 	sw	v1,-9908(v0)
a080b2e4:	8fc20014 	lw	v0,20(s8)
a080b2e8:	24420001 	addiu	v0,v0,1
a080b2ec:	afc20014 	sw	v0,20(s8)
a080b2f0:	8fc20018 	lw	v0,24(s8)
a080b2f4:	8c420008 	lw	v0,8(v0)
a080b2f8:	2443ffff 	addiu	v1,v0,-1
a080b2fc:	8fc20014 	lw	v0,20(s8)
a080b300:	0043102b 	sltu	v0,v0,v1
a080b304:	1440ffb6 	bnez	v0,a080b1e0 <do_ls+0xe4>
a080b308:	00000000 	nop
a080b30c:	8fc40014 	lw	a0,20(s8)
a080b310:	3c02a084 	lui	v0,0xa084
a080b314:	24437df8 	addiu	v1,v0,32248
a080b318:	00041180 	sll	v0,a0,0x6
a080b31c:	00621021 	addu	v0,v1,v0
a080b320:	8c43003c 	lw	v1,60(v0)
a080b324:	3c02a081 	lui	v0,0xa081
a080b328:	2444d65c 	addiu	a0,v0,-10660
a080b32c:	00602821 	move	a1,v1
a080b330:	0c201981 	jal	a0806604 <printk>
a080b334:	00000000 	nop
a080b338:	8fc20014 	lw	v0,20(s8)
a080b33c:	3c03a084 	lui	v1,0xa084
a080b340:	00022180 	sll	a0,v0,0x6
a080b344:	24627df8 	addiu	v0,v1,32248
a080b348:	00821021 	addu	v0,a0,v0
a080b34c:	8c420038 	lw	v0,56(v0)
a080b350:	14400007 	bnez	v0,a080b370 <do_ls+0x274>
a080b354:	00000000 	nop
a080b358:	3c02a081 	lui	v0,0xa081
a080b35c:	2444d664 	addiu	a0,v0,-10652
a080b360:	0c201981 	jal	a0806604 <printk>
a080b364:	00000000 	nop
a080b368:	08202ce0 	j	a080b380 <do_ls+0x284>
a080b36c:	00000000 	nop
a080b370:	3c02a081 	lui	v0,0xa081
a080b374:	2444d66c 	addiu	a0,v0,-10644
a080b378:	0c201981 	jal	a0806604 <printk>
a080b37c:	00000000 	nop
a080b380:	8fc20014 	lw	v0,20(s8)
a080b384:	14400007 	bnez	v0,a080b3a4 <do_ls+0x2a8>
a080b388:	00000000 	nop
a080b38c:	3c02a081 	lui	v0,0xa081
a080b390:	2444d640 	addiu	a0,v0,-10688
a080b394:	0c201981 	jal	a0806604 <printk>
a080b398:	00000000 	nop
a080b39c:	08202cfb 	j	a080b3ec <do_ls+0x2f0>
a080b3a0:	00000000 	nop
a080b3a4:	8fc30014 	lw	v1,20(s8)
a080b3a8:	24020001 	li	v0,1
a080b3ac:	14620007 	bne	v1,v0,a080b3cc <do_ls+0x2d0>
a080b3b0:	00000000 	nop
a080b3b4:	3c02a081 	lui	v0,0xa081
a080b3b8:	2444d63c 	addiu	a0,v0,-10692
a080b3bc:	0c201981 	jal	a0806604 <printk>
a080b3c0:	00000000 	nop
a080b3c4:	08202cfb 	j	a080b3ec <do_ls+0x2f0>
a080b3c8:	00000000 	nop
a080b3cc:	8fc20014 	lw	v0,20(s8)
a080b3d0:	00021980 	sll	v1,v0,0x6
a080b3d4:	3c02a084 	lui	v0,0xa084
a080b3d8:	24427df8 	addiu	v0,v0,32248
a080b3dc:	00621021 	addu	v0,v1,v0
a080b3e0:	00402021 	move	a0,v0
a080b3e4:	0c201981 	jal	a0806604 <printk>
a080b3e8:	00000000 	nop
a080b3ec:	03c0e821 	move	sp,s8
a080b3f0:	8fbf0044 	lw	ra,68(sp)
a080b3f4:	8fbe0040 	lw	s8,64(sp)
a080b3f8:	27bd0048 	addiu	sp,sp,72
a080b3fc:	03e00008 	jr	ra
a080b400:	00000000 	nop

a080b404 <do_touch>:
a080b404:	27bdff90 	addiu	sp,sp,-112
a080b408:	afbf006c 	sw	ra,108(sp)
a080b40c:	afbe0068 	sw	s8,104(sp)
a080b410:	afb00064 	sw	s0,100(sp)
a080b414:	03a0f021 	move	s8,sp
a080b418:	afc40070 	sw	a0,112(s8)
a080b41c:	8fc20070 	lw	v0,112(s8)
a080b420:	afc20038 	sw	v0,56(s8)
a080b424:	3c02a081 	lui	v0,0xa081
a080b428:	8c42d94c 	lw	v0,-9908(v0)
a080b42c:	24430002 	addiu	v1,v0,2
a080b430:	3c02a081 	lui	v0,0xa081
a080b434:	ac43d94c 	sw	v1,-9908(v0)
a080b438:	3c02a081 	lui	v0,0xa081
a080b43c:	8c42d94c 	lw	v0,-9908(v0)
a080b440:	24040001 	li	a0,1
a080b444:	00402821 	move	a1,v0
a080b448:	0c2002a0 	jal	a0800a80 <vt100_move_cursor>
a080b44c:	00000000 	nop
a080b450:	3c02a084 	lui	v0,0xa084
a080b454:	24446d18 	addiu	a0,v0,27928
a080b458:	3c052000 	lui	a1,0x2000
a080b45c:	24061000 	li	a2,4096
a080b460:	0c2032e6 	jal	a080cb98 <.pic.sdread>
a080b464:	00000000 	nop
a080b468:	27c2003c 	addiu	v0,s8,60
a080b46c:	00402021 	move	a0,v0
a080b470:	3c02a084 	lui	v0,0xa084
a080b474:	24456d18 	addiu	a1,v0,27928
a080b478:	24060020 	li	a2,32
a080b47c:	0c20167d 	jal	a08059f4 <os_memcpy>
a080b480:	00000000 	nop
a080b484:	8fc3003c 	lw	v1,60(s8)
a080b488:	3c020011 	lui	v0,0x11
a080b48c:	34424514 	ori	v0,v0,0x4514
a080b490:	10620007 	beq	v1,v0,a080b4b0 <do_touch+0xac>
a080b494:	00000000 	nop
a080b498:	3c02a081 	lui	v0,0xa081
a080b49c:	2444d518 	addiu	a0,v0,-10984
a080b4a0:	0c201981 	jal	a0806604 <printk>
a080b4a4:	00000000 	nop
a080b4a8:	08202eee 	j	a080bbb8 <do_touch+0x7b4>
a080b4ac:	00000000 	nop
a080b4b0:	8fc2004c 	lw	v0,76(s8)
a080b4b4:	00402021 	move	a0,v0
a080b4b8:	0c2022cb 	jal	a0808b2c <load_inode_array>
a080b4bc:	00000000 	nop
a080b4c0:	3c02a081 	lui	v0,0xa081
a080b4c4:	8c42d928 	lw	v0,-9944(v0)
a080b4c8:	00402021 	move	a0,v0
a080b4cc:	0c2022b2 	jal	a0808ac8 <get_inode>
a080b4d0:	00000000 	nop
a080b4d4:	afc2002c 	sw	v0,44(s8)
a080b4d8:	8fc2002c 	lw	v0,44(s8)
a080b4dc:	8c420000 	lw	v0,0(v0)
a080b4e0:	14400007 	bnez	v0,a080b500 <do_touch+0xfc>
a080b4e4:	00000000 	nop
a080b4e8:	3c02a081 	lui	v0,0xa081
a080b4ec:	2444d53c 	addiu	a0,v0,-10948
a080b4f0:	0c201981 	jal	a0806604 <printk>
a080b4f4:	00000000 	nop
a080b4f8:	08202d3e 	j	a080b4f8 <do_touch+0xf4>
a080b4fc:	00000000 	nop
a080b500:	8fc2002c 	lw	v0,44(s8)
a080b504:	8c420010 	lw	v0,16(v0)
a080b508:	00402021 	move	a0,v0
a080b50c:	0c202295 	jal	a0808a54 <load_dentry_arr>
a080b510:	00000000 	nop
a080b514:	afc00028 	sw	zero,40(s8)
a080b518:	08202d65 	j	a080b594 <do_touch+0x190>
a080b51c:	00000000 	nop
a080b520:	8fc20028 	lw	v0,40(s8)
a080b524:	3c03a084 	lui	v1,0xa084
a080b528:	00022180 	sll	a0,v0,0x6
a080b52c:	24627df8 	addiu	v0,v1,32248
a080b530:	00821021 	addu	v0,a0,v0
a080b534:	8c420038 	lw	v0,56(v0)
a080b538:	14400013 	bnez	v0,a080b588 <do_touch+0x184>
a080b53c:	00000000 	nop
a080b540:	8fc20028 	lw	v0,40(s8)
a080b544:	00021980 	sll	v1,v0,0x6
a080b548:	3c02a084 	lui	v0,0xa084
a080b54c:	24427df8 	addiu	v0,v0,32248
a080b550:	00621021 	addu	v0,v1,v0
a080b554:	00402021 	move	a0,v0
a080b558:	8fc50038 	lw	a1,56(s8)
a080b55c:	24060038 	li	a2,56
a080b560:	0c20169a 	jal	a0805a68 <my_strncmp>
a080b564:	00000000 	nop
a080b568:	14400007 	bnez	v0,a080b588 <do_touch+0x184>
a080b56c:	00000000 	nop
a080b570:	3c02a081 	lui	v0,0xa081
a080b574:	2444d678 	addiu	a0,v0,-10632
a080b578:	0c201981 	jal	a0806604 <printk>
a080b57c:	00000000 	nop
a080b580:	08202eee 	j	a080bbb8 <do_touch+0x7b4>
a080b584:	00000000 	nop
a080b588:	8fc20028 	lw	v0,40(s8)
a080b58c:	24420001 	addiu	v0,v0,1
a080b590:	afc20028 	sw	v0,40(s8)
a080b594:	8fc2002c 	lw	v0,44(s8)
a080b598:	8c430008 	lw	v1,8(v0)
a080b59c:	8fc20028 	lw	v0,40(s8)
a080b5a0:	0043102b 	sltu	v0,v0,v1
a080b5a4:	1440ffde 	bnez	v0,a080b520 <do_touch+0x11c>
a080b5a8:	00000000 	nop
a080b5ac:	8fc30048 	lw	v1,72(s8)
a080b5b0:	3c020002 	lui	v0,0x2
a080b5b4:	00621021 	addu	v0,v1,v0
a080b5b8:	00021b00 	sll	v1,v0,0xc
a080b5bc:	3c02a084 	lui	v0,0xa084
a080b5c0:	24446d18 	addiu	a0,v0,27928
a080b5c4:	00602821 	move	a1,v1
a080b5c8:	24061000 	li	a2,4096
a080b5cc:	0c2032e6 	jal	a080cb98 <.pic.sdread>
a080b5d0:	00000000 	nop
a080b5d4:	3c02a084 	lui	v0,0xa084
a080b5d8:	24420990 	addiu	v0,v0,2448
a080b5dc:	00402021 	move	a0,v0
a080b5e0:	3c02a084 	lui	v0,0xa084
a080b5e4:	24456d18 	addiu	a1,v0,27928
a080b5e8:	24060020 	li	a2,32
a080b5ec:	0c20167d 	jal	a08059f4 <os_memcpy>
a080b5f0:	00000000 	nop
a080b5f4:	afc00024 	sw	zero,36(s8)
a080b5f8:	08202d8c 	j	a080b630 <do_touch+0x22c>
a080b5fc:	00000000 	nop
a080b600:	8fc20024 	lw	v0,36(s8)
a080b604:	3c03a084 	lui	v1,0xa084
a080b608:	00022080 	sll	a0,v0,0x2
a080b60c:	24620990 	addiu	v0,v1,2448
a080b610:	00821021 	addu	v0,a0,v0
a080b614:	8c430000 	lw	v1,0(v0)
a080b618:	2402ffff 	li	v0,-1
a080b61c:	14620008 	bne	v1,v0,a080b640 <do_touch+0x23c>
a080b620:	00000000 	nop
a080b624:	8fc20024 	lw	v0,36(s8)
a080b628:	24420001 	addiu	v0,v0,1
a080b62c:	afc20024 	sw	v0,36(s8)
a080b630:	8fc20024 	lw	v0,36(s8)
a080b634:	2c420008 	sltiu	v0,v0,8
a080b638:	1440fff1 	bnez	v0,a080b600 <do_touch+0x1fc>
a080b63c:	00000000 	nop
a080b640:	8fc30024 	lw	v1,36(s8)
a080b644:	24020008 	li	v0,8
a080b648:	14620007 	bne	v1,v0,a080b668 <do_touch+0x264>
a080b64c:	00000000 	nop
a080b650:	3c02a081 	lui	v0,0xa081
a080b654:	2444d698 	addiu	a0,v0,-10600
a080b658:	0c201981 	jal	a0806604 <printk>
a080b65c:	00000000 	nop
a080b660:	08202d98 	j	a080b660 <do_touch+0x25c>
a080b664:	00000000 	nop
a080b668:	8fc20024 	lw	v0,36(s8)
a080b66c:	3c03a084 	lui	v1,0xa084
a080b670:	00022080 	sll	a0,v0,0x2
a080b674:	24620990 	addiu	v0,v1,2448
a080b678:	00821021 	addu	v0,a0,v0
a080b67c:	8c420000 	lw	v0,0(v0)
a080b680:	8fc40024 	lw	a0,36(s8)
a080b684:	00402821 	move	a1,v0
a080b688:	0c20239c 	jal	a0808e70 <get_new_no>
a080b68c:	00000000 	nop
a080b690:	afc20018 	sw	v0,24(s8)
a080b694:	8fc40018 	lw	a0,24(s8)
a080b698:	0c2022b2 	jal	a0808ac8 <get_inode>
a080b69c:	00000000 	nop
a080b6a0:	afc20034 	sw	v0,52(s8)
a080b6a4:	3c02a084 	lui	v0,0xa084
a080b6a8:	24427df8 	addiu	v0,v0,32248
a080b6ac:	8c42003c 	lw	v0,60(v0)
a080b6b0:	afc20014 	sw	v0,20(s8)
a080b6b4:	8fc20034 	lw	v0,52(s8)
a080b6b8:	ac400000 	sw	zero,0(v0)
a080b6bc:	0c2012e6 	jal	a0804b98 <get_timer>
a080b6c0:	00000000 	nop
a080b6c4:	00401821 	move	v1,v0
a080b6c8:	8fc20034 	lw	v0,52(s8)
a080b6cc:	ac430004 	sw	v1,4(v0)
a080b6d0:	8fc20034 	lw	v0,52(s8)
a080b6d4:	ac400008 	sw	zero,8(v0)
a080b6d8:	8fc30034 	lw	v1,52(s8)
a080b6dc:	8fc20014 	lw	v0,20(s8)
a080b6e0:	ac62000c 	sw	v0,12(v1)
a080b6e4:	8fc20034 	lw	v0,52(s8)
a080b6e8:	ac400038 	sw	zero,56(v0)
a080b6ec:	8fc20034 	lw	v0,52(s8)
a080b6f0:	ac40003c 	sw	zero,60(v0)
a080b6f4:	afc00024 	sw	zero,36(s8)
a080b6f8:	08202dc9 	j	a080b724 <do_touch+0x320>
a080b6fc:	00000000 	nop
a080b700:	8fc20024 	lw	v0,36(s8)
a080b704:	8fc30034 	lw	v1,52(s8)
a080b708:	24420004 	addiu	v0,v0,4
a080b70c:	00021080 	sll	v0,v0,0x2
a080b710:	00621021 	addu	v0,v1,v0
a080b714:	ac400000 	sw	zero,0(v0)
a080b718:	8fc20024 	lw	v0,36(s8)
a080b71c:	24420001 	addiu	v0,v0,1
a080b720:	afc20024 	sw	v0,36(s8)
a080b724:	8fc20024 	lw	v0,36(s8)
a080b728:	2c42000a 	sltiu	v0,v0,10
a080b72c:	1440fff4 	bnez	v0,a080b700 <do_touch+0x2fc>
a080b730:	00000000 	nop
a080b734:	3c02a084 	lui	v0,0xa084
a080b738:	24420e90 	addiu	v0,v0,3728
a080b73c:	afc20020 	sw	v0,32(s8)
a080b740:	afc00024 	sw	zero,36(s8)
a080b744:	08202dec 	j	a080b7b0 <do_touch+0x3ac>
a080b748:	00000000 	nop
a080b74c:	8fc30044 	lw	v1,68(s8)
a080b750:	8fc20024 	lw	v0,36(s8)
a080b754:	00621821 	addu	v1,v1,v0
a080b758:	3c020002 	lui	v0,0x2
a080b75c:	00621021 	addu	v0,v1,v0
a080b760:	00021b00 	sll	v1,v0,0xc
a080b764:	3c02a084 	lui	v0,0xa084
a080b768:	24446d18 	addiu	a0,v0,27928
a080b76c:	00602821 	move	a1,v1
a080b770:	24061000 	li	a2,4096
a080b774:	0c2032e6 	jal	a080cb98 <.pic.sdread>
a080b778:	00000000 	nop
a080b77c:	8fc20020 	lw	v0,32(s8)
a080b780:	00402021 	move	a0,v0
a080b784:	3c02a084 	lui	v0,0xa084
a080b788:	24456d18 	addiu	a1,v0,27928
a080b78c:	24061000 	li	a2,4096
a080b790:	0c20167d 	jal	a08059f4 <os_memcpy>
a080b794:	00000000 	nop
a080b798:	8fc20020 	lw	v0,32(s8)
a080b79c:	24421000 	addiu	v0,v0,4096
a080b7a0:	afc20020 	sw	v0,32(s8)
a080b7a4:	8fc20024 	lw	v0,36(s8)
a080b7a8:	24420001 	addiu	v0,v0,1
a080b7ac:	afc20024 	sw	v0,36(s8)
a080b7b0:	8fc20024 	lw	v0,36(s8)
a080b7b4:	2c420004 	sltiu	v0,v0,4
a080b7b8:	1440ffe4 	bnez	v0,a080b74c <do_touch+0x348>
a080b7bc:	00000000 	nop
a080b7c0:	afc00024 	sw	zero,36(s8)
a080b7c4:	08202dff 	j	a080b7fc <do_touch+0x3f8>
a080b7c8:	00000000 	nop
a080b7cc:	8fc20024 	lw	v0,36(s8)
a080b7d0:	3c03a084 	lui	v1,0xa084
a080b7d4:	00022080 	sll	a0,v0,0x2
a080b7d8:	24620e90 	addiu	v0,v1,3728
a080b7dc:	00821021 	addu	v0,a0,v0
a080b7e0:	8c430000 	lw	v1,0(v0)
a080b7e4:	2402ffff 	li	v0,-1
a080b7e8:	14620008 	bne	v1,v0,a080b80c <do_touch+0x408>
a080b7ec:	00000000 	nop
a080b7f0:	8fc20024 	lw	v0,36(s8)
a080b7f4:	24420001 	addiu	v0,v0,1
a080b7f8:	afc20024 	sw	v0,36(s8)
a080b7fc:	8fc20024 	lw	v0,36(s8)
a080b800:	2c421000 	sltiu	v0,v0,4096
a080b804:	1440fff1 	bnez	v0,a080b7cc <do_touch+0x3c8>
a080b808:	00000000 	nop
a080b80c:	8fc30024 	lw	v1,36(s8)
a080b810:	24021000 	li	v0,4096
a080b814:	14620007 	bne	v1,v0,a080b834 <do_touch+0x430>
a080b818:	00000000 	nop
a080b81c:	3c02a081 	lui	v0,0xa081
a080b820:	2444d5a8 	addiu	a0,v0,-10840
a080b824:	0c201981 	jal	a0806604 <printk>
a080b828:	00000000 	nop
a080b82c:	08202e0b 	j	a080b82c <do_touch+0x428>
a080b830:	00000000 	nop
a080b834:	8fc20024 	lw	v0,36(s8)
a080b838:	3c03a084 	lui	v1,0xa084
a080b83c:	00022080 	sll	a0,v0,0x2
a080b840:	24620e90 	addiu	v0,v1,3728
a080b844:	00821021 	addu	v0,a0,v0
a080b848:	8c420000 	lw	v0,0(v0)
a080b84c:	8fc40024 	lw	a0,36(s8)
a080b850:	00402821 	move	a1,v0
a080b854:	0c20239c 	jal	a0808e70 <get_new_no>
a080b858:	00000000 	nop
a080b85c:	afc20010 	sw	v0,16(s8)
a080b860:	8fc30034 	lw	v1,52(s8)
a080b864:	8fc20010 	lw	v0,16(s8)
a080b868:	ac620010 	sw	v0,16(v1)
a080b86c:	3c02a084 	lui	v0,0xa084
a080b870:	24440e90 	addiu	a0,v0,3728
a080b874:	8fc50010 	lw	a1,16(s8)
a080b878:	00003021 	move	a2,zero
a080b87c:	0c202367 	jal	a0808d9c <refresh_bitmap>
a080b880:	00000000 	nop
a080b884:	3c02a084 	lui	v0,0xa084
a080b888:	24440990 	addiu	a0,v0,2448
a080b88c:	8fc50018 	lw	a1,24(s8)
a080b890:	00003021 	move	a2,zero
a080b894:	0c202367 	jal	a0808d9c <refresh_bitmap>
a080b898:	00000000 	nop
a080b89c:	3c02a084 	lui	v0,0xa084
a080b8a0:	24420e90 	addiu	v0,v0,3728
a080b8a4:	afc2001c 	sw	v0,28(s8)
a080b8a8:	afc00024 	sw	zero,36(s8)
a080b8ac:	08202e46 	j	a080b918 <do_touch+0x514>
a080b8b0:	00000000 	nop
a080b8b4:	8fc3001c 	lw	v1,28(s8)
a080b8b8:	3c02a084 	lui	v0,0xa084
a080b8bc:	24446d18 	addiu	a0,v0,27928
a080b8c0:	00602821 	move	a1,v1
a080b8c4:	24061000 	li	a2,4096
a080b8c8:	0c20167d 	jal	a08059f4 <os_memcpy>
a080b8cc:	00000000 	nop
a080b8d0:	8fc30044 	lw	v1,68(s8)
a080b8d4:	8fc20024 	lw	v0,36(s8)
a080b8d8:	00621821 	addu	v1,v1,v0
a080b8dc:	3c020002 	lui	v0,0x2
a080b8e0:	00621021 	addu	v0,v1,v0
a080b8e4:	00021b00 	sll	v1,v0,0xc
a080b8e8:	3c02a084 	lui	v0,0xa084
a080b8ec:	24446d18 	addiu	a0,v0,27928
a080b8f0:	00602821 	move	a1,v1
a080b8f4:	24061000 	li	a2,4096
a080b8f8:	0c2032c6 	jal	a080cb18 <.pic.sdwrite>
a080b8fc:	00000000 	nop
a080b900:	8fc2001c 	lw	v0,28(s8)
a080b904:	24421000 	addiu	v0,v0,4096
a080b908:	afc2001c 	sw	v0,28(s8)
a080b90c:	8fc20024 	lw	v0,36(s8)
a080b910:	24420001 	addiu	v0,v0,1
a080b914:	afc20024 	sw	v0,36(s8)
a080b918:	8fc20024 	lw	v0,36(s8)
a080b91c:	2c420004 	sltiu	v0,v0,4
a080b920:	1440ffe4 	bnez	v0,a080b8b4 <do_touch+0x4b0>
a080b924:	00000000 	nop
a080b928:	3c02a084 	lui	v0,0xa084
a080b92c:	24430990 	addiu	v1,v0,2448
a080b930:	3c02a084 	lui	v0,0xa084
a080b934:	24446d18 	addiu	a0,v0,27928
a080b938:	00602821 	move	a1,v1
a080b93c:	24061000 	li	a2,4096
a080b940:	0c20167d 	jal	a08059f4 <os_memcpy>
a080b944:	00000000 	nop
a080b948:	8fc30048 	lw	v1,72(s8)
a080b94c:	3c020002 	lui	v0,0x2
a080b950:	00621021 	addu	v0,v1,v0
a080b954:	00021b00 	sll	v1,v0,0xc
a080b958:	3c02a084 	lui	v0,0xa084
a080b95c:	24446d18 	addiu	a0,v0,27928
a080b960:	00602821 	move	a1,v1
a080b964:	24061000 	li	a2,4096
a080b968:	0c2032c6 	jal	a080cb18 <.pic.sdwrite>
a080b96c:	00000000 	nop
a080b970:	8fc2002c 	lw	v0,44(s8)
a080b974:	8c420008 	lw	v0,8(v0)
a080b978:	24430001 	addiu	v1,v0,1
a080b97c:	8fc2002c 	lw	v0,44(s8)
a080b980:	ac430008 	sw	v1,8(v0)
a080b984:	afc00024 	sw	zero,36(s8)
a080b988:	08202e7e 	j	a080b9f8 <do_touch+0x5f4>
a080b98c:	00000000 	nop
a080b990:	3c02a085 	lui	v0,0xa085
a080b994:	24438df8 	addiu	v1,v0,-29192
a080b998:	8fc20024 	lw	v0,36(s8)
a080b99c:	00021300 	sll	v0,v0,0xc
a080b9a0:	00621821 	addu	v1,v1,v0
a080b9a4:	3c02a084 	lui	v0,0xa084
a080b9a8:	24446d18 	addiu	a0,v0,27928
a080b9ac:	00602821 	move	a1,v1
a080b9b0:	24061000 	li	a2,4096
a080b9b4:	0c20167d 	jal	a08059f4 <os_memcpy>
a080b9b8:	00000000 	nop
a080b9bc:	8fc3004c 	lw	v1,76(s8)
a080b9c0:	8fc20024 	lw	v0,36(s8)
a080b9c4:	00621821 	addu	v1,v1,v0
a080b9c8:	3c020002 	lui	v0,0x2
a080b9cc:	00621021 	addu	v0,v1,v0
a080b9d0:	00021b00 	sll	v1,v0,0xc
a080b9d4:	3c02a084 	lui	v0,0xa084
a080b9d8:	24446d18 	addiu	a0,v0,27928
a080b9dc:	00602821 	move	a1,v1
a080b9e0:	24061000 	li	a2,4096
a080b9e4:	0c2032c6 	jal	a080cb18 <.pic.sdwrite>
a080b9e8:	00000000 	nop
a080b9ec:	8fc20024 	lw	v0,36(s8)
a080b9f0:	24420001 	addiu	v0,v0,1
a080b9f4:	afc20024 	sw	v0,36(s8)
a080b9f8:	8fc20024 	lw	v0,36(s8)
a080b9fc:	2c420004 	sltiu	v0,v0,4
a080ba00:	1440ffe3 	bnez	v0,a080b990 <do_touch+0x58c>
a080ba04:	00000000 	nop
a080ba08:	8fc20054 	lw	v0,84(s8)
a080ba0c:	24420001 	addiu	v0,v0,1
a080ba10:	afc20054 	sw	v0,84(s8)
a080ba14:	8fc20058 	lw	v0,88(s8)
a080ba18:	24420001 	addiu	v0,v0,1
a080ba1c:	afc20058 	sw	v0,88(s8)
a080ba20:	27c3003c 	addiu	v1,s8,60
a080ba24:	3c02a084 	lui	v0,0xa084
a080ba28:	24446d18 	addiu	a0,v0,27928
a080ba2c:	00602821 	move	a1,v1
a080ba30:	24060020 	li	a2,32
a080ba34:	0c20167d 	jal	a08059f4 <os_memcpy>
a080ba38:	00000000 	nop
a080ba3c:	3c02a084 	lui	v0,0xa084
a080ba40:	24446d18 	addiu	a0,v0,27928
a080ba44:	3c052000 	lui	a1,0x2000
a080ba48:	24061000 	li	a2,4096
a080ba4c:	0c2032c6 	jal	a080cb18 <.pic.sdwrite>
a080ba50:	00000000 	nop
a080ba54:	8fc2002c 	lw	v0,44(s8)
a080ba58:	8c420010 	lw	v0,16(v0)
a080ba5c:	00402021 	move	a0,v0
a080ba60:	0c202295 	jal	a0808a54 <load_dentry_arr>
a080ba64:	00000000 	nop
a080ba68:	afc00024 	sw	zero,36(s8)
a080ba6c:	08202eaf 	j	a080babc <do_touch+0x6b8>
a080ba70:	00000000 	nop
a080ba74:	8fc20024 	lw	v0,36(s8)
a080ba78:	1040000d 	beqz	v0,a080bab0 <do_touch+0x6ac>
a080ba7c:	00000000 	nop
a080ba80:	8fc30024 	lw	v1,36(s8)
a080ba84:	24020001 	li	v0,1
a080ba88:	10620009 	beq	v1,v0,a080bab0 <do_touch+0x6ac>
a080ba8c:	00000000 	nop
a080ba90:	8fc40024 	lw	a0,36(s8)
a080ba94:	3c02a084 	lui	v0,0xa084
a080ba98:	24437df8 	addiu	v1,v0,32248
a080ba9c:	00041180 	sll	v0,a0,0x6
a080baa0:	00621021 	addu	v0,v1,v0
a080baa4:	8c42003c 	lw	v0,60(v0)
a080baa8:	10400008 	beqz	v0,a080bacc <do_touch+0x6c8>
a080baac:	00000000 	nop
a080bab0:	8fc20024 	lw	v0,36(s8)
a080bab4:	24420001 	addiu	v0,v0,1
a080bab8:	afc20024 	sw	v0,36(s8)
a080babc:	8fc20024 	lw	v0,36(s8)
a080bac0:	2c420040 	sltiu	v0,v0,64
a080bac4:	1440ffeb 	bnez	v0,a080ba74 <do_touch+0x670>
a080bac8:	00000000 	nop
a080bacc:	8fc30024 	lw	v1,36(s8)
a080bad0:	24020040 	li	v0,64
a080bad4:	14620007 	bne	v1,v0,a080baf4 <do_touch+0x6f0>
a080bad8:	00000000 	nop
a080badc:	3c02a081 	lui	v0,0xa081
a080bae0:	2444d5dc 	addiu	a0,v0,-10788
a080bae4:	0c201981 	jal	a0806604 <printk>
a080bae8:	00000000 	nop
a080baec:	08202ebb 	j	a080baec <do_touch+0x6e8>
a080baf0:	00000000 	nop
a080baf4:	8fc40024 	lw	a0,36(s8)
a080baf8:	3c02a084 	lui	v0,0xa084
a080bafc:	24437df8 	addiu	v1,v0,32248
a080bb00:	00041180 	sll	v0,a0,0x6
a080bb04:	00621021 	addu	v0,v1,v0
a080bb08:	8fc30018 	lw	v1,24(s8)
a080bb0c:	ac43003c 	sw	v1,60(v0)
a080bb10:	8fc20024 	lw	v0,36(s8)
a080bb14:	3c03a084 	lui	v1,0xa084
a080bb18:	00022180 	sll	a0,v0,0x6
a080bb1c:	24627df8 	addiu	v0,v1,32248
a080bb20:	00821021 	addu	v0,a0,v0
a080bb24:	ac400038 	sw	zero,56(v0)
a080bb28:	8fc20024 	lw	v0,36(s8)
a080bb2c:	00021980 	sll	v1,v0,0x6
a080bb30:	3c02a084 	lui	v0,0xa084
a080bb34:	24427df8 	addiu	v0,v0,32248
a080bb38:	00628021 	addu	s0,v1,v0
a080bb3c:	8fc40038 	lw	a0,56(s8)
a080bb40:	0c20164a 	jal	a0805928 <os_strlen>
a080bb44:	00000000 	nop
a080bb48:	02002021 	move	a0,s0
a080bb4c:	8fc50038 	lw	a1,56(s8)
a080bb50:	00403021 	move	a2,v0
a080bb54:	0c20167d 	jal	a08059f4 <os_memcpy>
a080bb58:	00000000 	nop
a080bb5c:	3c02a084 	lui	v0,0xa084
a080bb60:	24437df8 	addiu	v1,v0,32248
a080bb64:	3c02a084 	lui	v0,0xa084
a080bb68:	24446d18 	addiu	a0,v0,27928
a080bb6c:	00602821 	move	a1,v1
a080bb70:	24061000 	li	a2,4096
a080bb74:	0c20167d 	jal	a08059f4 <os_memcpy>
a080bb78:	00000000 	nop
a080bb7c:	8fc2002c 	lw	v0,44(s8)
a080bb80:	8c430010 	lw	v1,16(v0)
a080bb84:	3c020002 	lui	v0,0x2
a080bb88:	00621021 	addu	v0,v1,v0
a080bb8c:	00021b00 	sll	v1,v0,0xc
a080bb90:	3c02a084 	lui	v0,0xa084
a080bb94:	24446d18 	addiu	a0,v0,27928
a080bb98:	00602821 	move	a1,v1
a080bb9c:	24061000 	li	a2,4096
a080bba0:	0c2032c6 	jal	a080cb18 <.pic.sdwrite>
a080bba4:	00000000 	nop
a080bba8:	3c02a081 	lui	v0,0xa081
a080bbac:	2444d6c0 	addiu	a0,v0,-10560
a080bbb0:	0c201981 	jal	a0806604 <printk>
a080bbb4:	00000000 	nop
a080bbb8:	03c0e821 	move	sp,s8
a080bbbc:	8fbf006c 	lw	ra,108(sp)
a080bbc0:	8fbe0068 	lw	s8,104(sp)
a080bbc4:	8fb00064 	lw	s0,100(sp)
a080bbc8:	27bd0070 	addiu	sp,sp,112
a080bbcc:	03e00008 	jr	ra
a080bbd0:	00000000 	nop

a080bbd4 <do_cat>:
a080bbd4:	27bdffa8 	addiu	sp,sp,-88
a080bbd8:	afbf0054 	sw	ra,84(sp)
a080bbdc:	afbe0050 	sw	s8,80(sp)
a080bbe0:	03a0f021 	move	s8,sp
a080bbe4:	afc40058 	sw	a0,88(s8)
a080bbe8:	8fc20058 	lw	v0,88(s8)
a080bbec:	afc2002c 	sw	v0,44(s8)
a080bbf0:	3c02a081 	lui	v0,0xa081
a080bbf4:	8c42d94c 	lw	v0,-9908(v0)
a080bbf8:	24040001 	li	a0,1
a080bbfc:	00402821 	move	a1,v0
a080bc00:	0c2002a0 	jal	a0800a80 <vt100_move_cursor>
a080bc04:	00000000 	nop
a080bc08:	3c02a084 	lui	v0,0xa084
a080bc0c:	24446d18 	addiu	a0,v0,27928
a080bc10:	3c052000 	lui	a1,0x2000
a080bc14:	24061000 	li	a2,4096
a080bc18:	0c2032e6 	jal	a080cb98 <.pic.sdread>
a080bc1c:	00000000 	nop
a080bc20:	27c20030 	addiu	v0,s8,48
a080bc24:	00402021 	move	a0,v0
a080bc28:	3c02a084 	lui	v0,0xa084
a080bc2c:	24456d18 	addiu	a1,v0,27928
a080bc30:	24060020 	li	a2,32
a080bc34:	0c20167d 	jal	a08059f4 <os_memcpy>
a080bc38:	00000000 	nop
a080bc3c:	8fc30030 	lw	v1,48(s8)
a080bc40:	3c020011 	lui	v0,0x11
a080bc44:	34424514 	ori	v0,v0,0x4514
a080bc48:	10620007 	beq	v1,v0,a080bc68 <do_cat+0x94>
a080bc4c:	00000000 	nop
a080bc50:	3c02a081 	lui	v0,0xa081
a080bc54:	2444d518 	addiu	a0,v0,-10984
a080bc58:	0c201981 	jal	a0806604 <printk>
a080bc5c:	00000000 	nop
a080bc60:	08202faf 	j	a080bebc <do_cat+0x2e8>
a080bc64:	00000000 	nop
a080bc68:	8fc20040 	lw	v0,64(s8)
a080bc6c:	00402021 	move	a0,v0
a080bc70:	0c2022cb 	jal	a0808b2c <load_inode_array>
a080bc74:	00000000 	nop
a080bc78:	3c02a081 	lui	v0,0xa081
a080bc7c:	8c42d928 	lw	v0,-9944(v0)
a080bc80:	00402021 	move	a0,v0
a080bc84:	0c2022b2 	jal	a0808ac8 <get_inode>
a080bc88:	00000000 	nop
a080bc8c:	afc20024 	sw	v0,36(s8)
a080bc90:	8fc20024 	lw	v0,36(s8)
a080bc94:	8c420000 	lw	v0,0(v0)
a080bc98:	14400007 	bnez	v0,a080bcb8 <do_cat+0xe4>
a080bc9c:	00000000 	nop
a080bca0:	3c02a081 	lui	v0,0xa081
a080bca4:	2444d53c 	addiu	a0,v0,-10948
a080bca8:	0c201981 	jal	a0806604 <printk>
a080bcac:	00000000 	nop
a080bcb0:	08202f2c 	j	a080bcb0 <do_cat+0xdc>
a080bcb4:	00000000 	nop
a080bcb8:	8fc20024 	lw	v0,36(s8)
a080bcbc:	8c420010 	lw	v0,16(v0)
a080bcc0:	00402021 	move	a0,v0
a080bcc4:	0c202295 	jal	a0808a54 <load_dentry_arr>
a080bcc8:	00000000 	nop
a080bccc:	afc0001c 	sw	zero,28(s8)
a080bcd0:	08202f4d 	j	a080bd34 <do_cat+0x160>
a080bcd4:	00000000 	nop
a080bcd8:	8fc2001c 	lw	v0,28(s8)
a080bcdc:	3c03a084 	lui	v1,0xa084
a080bce0:	00022180 	sll	a0,v0,0x6
a080bce4:	24627df8 	addiu	v0,v1,32248
a080bce8:	00821021 	addu	v0,a0,v0
a080bcec:	8c420038 	lw	v0,56(v0)
a080bcf0:	1440000d 	bnez	v0,a080bd28 <do_cat+0x154>
a080bcf4:	00000000 	nop
a080bcf8:	8fc2001c 	lw	v0,28(s8)
a080bcfc:	00021980 	sll	v1,v0,0x6
a080bd00:	3c02a084 	lui	v0,0xa084
a080bd04:	24427df8 	addiu	v0,v0,32248
a080bd08:	00621021 	addu	v0,v1,v0
a080bd0c:	00402021 	move	a0,v0
a080bd10:	8fc5002c 	lw	a1,44(s8)
a080bd14:	24060038 	li	a2,56
a080bd18:	0c20169a 	jal	a0805a68 <my_strncmp>
a080bd1c:	00000000 	nop
a080bd20:	1040000a 	beqz	v0,a080bd4c <do_cat+0x178>
a080bd24:	00000000 	nop
a080bd28:	8fc2001c 	lw	v0,28(s8)
a080bd2c:	24420001 	addiu	v0,v0,1
a080bd30:	afc2001c 	sw	v0,28(s8)
a080bd34:	8fc20024 	lw	v0,36(s8)
a080bd38:	8c430008 	lw	v1,8(v0)
a080bd3c:	8fc2001c 	lw	v0,28(s8)
a080bd40:	0043102b 	sltu	v0,v0,v1
a080bd44:	1440ffe4 	bnez	v0,a080bcd8 <do_cat+0x104>
a080bd48:	00000000 	nop
a080bd4c:	8fc20024 	lw	v0,36(s8)
a080bd50:	8c430008 	lw	v1,8(v0)
a080bd54:	8fc2001c 	lw	v0,28(s8)
a080bd58:	14620007 	bne	v1,v0,a080bd78 <do_cat+0x1a4>
a080bd5c:	00000000 	nop
a080bd60:	3c02a081 	lui	v0,0xa081
a080bd64:	2444d6d8 	addiu	a0,v0,-10536
a080bd68:	0c201981 	jal	a0806604 <printk>
a080bd6c:	00000000 	nop
a080bd70:	08202faf 	j	a080bebc <do_cat+0x2e8>
a080bd74:	00000000 	nop
a080bd78:	8fc4001c 	lw	a0,28(s8)
a080bd7c:	3c02a084 	lui	v0,0xa084
a080bd80:	24437df8 	addiu	v1,v0,32248
a080bd84:	00041180 	sll	v0,a0,0x6
a080bd88:	00621021 	addu	v0,v1,v0
a080bd8c:	8c42003c 	lw	v0,60(v0)
a080bd90:	afc20018 	sw	v0,24(s8)
a080bd94:	8fc40018 	lw	a0,24(s8)
a080bd98:	0c2022b2 	jal	a0808ac8 <get_inode>
a080bd9c:	00000000 	nop
a080bda0:	afc20028 	sw	v0,40(s8)
a080bda4:	8fc20028 	lw	v0,40(s8)
a080bda8:	8c420008 	lw	v0,8(v0)
a080bdac:	2c421001 	sltiu	v0,v0,4097
a080bdb0:	10400018 	beqz	v0,a080be14 <do_cat+0x240>
a080bdb4:	00000000 	nop
a080bdb8:	8fc20028 	lw	v0,40(s8)
a080bdbc:	8c420010 	lw	v0,16(v0)
a080bdc0:	afc20014 	sw	v0,20(s8)
a080bdc4:	8fc30014 	lw	v1,20(s8)
a080bdc8:	3c020002 	lui	v0,0x2
a080bdcc:	00621021 	addu	v0,v1,v0
a080bdd0:	00021b00 	sll	v1,v0,0xc
a080bdd4:	3c02a084 	lui	v0,0xa084
a080bdd8:	24446d18 	addiu	a0,v0,27928
a080bddc:	00602821 	move	a1,v1
a080bde0:	24061000 	li	a2,4096
a080bde4:	0c2032e6 	jal	a080cb98 <.pic.sdread>
a080bde8:	00000000 	nop
a080bdec:	3c02a081 	lui	v0,0xa081
a080bdf0:	8c42d94c 	lw	v0,-9908(v0)
a080bdf4:	afc20010 	sw	v0,16(s8)
a080bdf8:	24040001 	li	a0,1
a080bdfc:	24050002 	li	a1,2
a080be00:	0c2002a0 	jal	a0800a80 <vt100_move_cursor>
a080be04:	00000000 	nop
a080be08:	afc00020 	sw	zero,32(s8)
a080be0c:	08202fa8 	j	a080bea0 <do_cat+0x2cc>
a080be10:	00000000 	nop
a080be14:	3c02a081 	lui	v0,0xa081
a080be18:	2444d6f4 	addiu	a0,v0,-10508
a080be1c:	0c201981 	jal	a0806604 <printk>
a080be20:	00000000 	nop
a080be24:	08202f89 	j	a080be24 <do_cat+0x250>
a080be28:	00000000 	nop
a080be2c:	8fc30020 	lw	v1,32(s8)
a080be30:	3c02a084 	lui	v0,0xa084
a080be34:	24426d18 	addiu	v0,v0,27928
a080be38:	00621021 	addu	v0,v1,v0
a080be3c:	80430000 	lb	v1,0(v0)
a080be40:	2402ffff 	li	v0,-1
a080be44:	1062001a 	beq	v1,v0,a080beb0 <do_cat+0x2dc>
a080be48:	00000000 	nop
a080be4c:	8fc30020 	lw	v1,32(s8)
a080be50:	3c02a084 	lui	v0,0xa084
a080be54:	24426d18 	addiu	v0,v0,27928
a080be58:	00621021 	addu	v0,v1,v0
a080be5c:	80420000 	lb	v0,0(v0)
a080be60:	10400013 	beqz	v0,a080beb0 <do_cat+0x2dc>
a080be64:	00000000 	nop
a080be68:	8fc30020 	lw	v1,32(s8)
a080be6c:	3c02a084 	lui	v0,0xa084
a080be70:	24426d18 	addiu	v0,v0,27928
a080be74:	00621021 	addu	v0,v1,v0
a080be78:	80420000 	lb	v0,0(v0)
a080be7c:	00401821 	move	v1,v0
a080be80:	3c02a081 	lui	v0,0xa081
a080be84:	2444d71c 	addiu	a0,v0,-10468
a080be88:	00602821 	move	a1,v1
a080be8c:	0c201981 	jal	a0806604 <printk>
a080be90:	00000000 	nop
a080be94:	8fc20020 	lw	v0,32(s8)
a080be98:	24420001 	addiu	v0,v0,1
a080be9c:	afc20020 	sw	v0,32(s8)
a080bea0:	8fc20020 	lw	v0,32(s8)
a080bea4:	2c421000 	sltiu	v0,v0,4096
a080bea8:	1440ffe0 	bnez	v0,a080be2c <do_cat+0x258>
a080beac:	00000000 	nop
a080beb0:	3c03a081 	lui	v1,0xa081
a080beb4:	8fc20010 	lw	v0,16(s8)
a080beb8:	ac62d94c 	sw	v0,-9908(v1)
a080bebc:	03c0e821 	move	sp,s8
a080bec0:	8fbf0054 	lw	ra,84(sp)
a080bec4:	8fbe0050 	lw	s8,80(sp)
a080bec8:	27bd0058 	addiu	sp,sp,88
a080becc:	03e00008 	jr	ra
a080bed0:	00000000 	nop

a080bed4 <do_fopen>:
a080bed4:	27bdffa0 	addiu	sp,sp,-96
a080bed8:	afbf005c 	sw	ra,92(sp)
a080bedc:	afbe0058 	sw	s8,88(sp)
a080bee0:	03a0f021 	move	s8,sp
a080bee4:	afc40060 	sw	a0,96(s8)
a080bee8:	afc50064 	sw	a1,100(s8)
a080beec:	3c02a081 	lui	v0,0xa081
a080bef0:	8c42d94c 	lw	v0,-9908(v0)
a080bef4:	24430002 	addiu	v1,v0,2
a080bef8:	3c02a081 	lui	v0,0xa081
a080befc:	ac43d94c 	sw	v1,-9908(v0)
a080bf00:	3c02a081 	lui	v0,0xa081
a080bf04:	8c42d94c 	lw	v0,-9908(v0)
a080bf08:	24040001 	li	a0,1
a080bf0c:	00402821 	move	a1,v0
a080bf10:	0c2002a0 	jal	a0800a80 <vt100_move_cursor>
a080bf14:	00000000 	nop
a080bf18:	8fc20060 	lw	v0,96(s8)
a080bf1c:	afc20014 	sw	v0,20(s8)
a080bf20:	3c02a084 	lui	v0,0xa084
a080bf24:	24446d18 	addiu	a0,v0,27928
a080bf28:	3c052000 	lui	a1,0x2000
a080bf2c:	24061000 	li	a2,4096
a080bf30:	0c2032e6 	jal	a080cb98 <.pic.sdread>
a080bf34:	00000000 	nop
a080bf38:	27c2002c 	addiu	v0,s8,44
a080bf3c:	00402021 	move	a0,v0
a080bf40:	3c02a084 	lui	v0,0xa084
a080bf44:	24456d18 	addiu	a1,v0,27928
a080bf48:	24060020 	li	a2,32
a080bf4c:	0c20167d 	jal	a08059f4 <os_memcpy>
a080bf50:	00000000 	nop
a080bf54:	8fc3002c 	lw	v1,44(s8)
a080bf58:	3c020011 	lui	v0,0x11
a080bf5c:	34424514 	ori	v0,v0,0x4514
a080bf60:	10620007 	beq	v1,v0,a080bf80 <do_fopen+0xac>
a080bf64:	00000000 	nop
a080bf68:	3c02a081 	lui	v0,0xa081
a080bf6c:	2444d518 	addiu	a0,v0,-10984
a080bf70:	0c201981 	jal	a0806604 <printk>
a080bf74:	00000000 	nop
a080bf78:	0820309e 	j	a080c278 <do_fopen+0x3a4>
a080bf7c:	00000000 	nop
a080bf80:	8fc2003c 	lw	v0,60(s8)
a080bf84:	00402021 	move	a0,v0
a080bf88:	0c2022cb 	jal	a0808b2c <load_inode_array>
a080bf8c:	00000000 	nop
a080bf90:	3c02a081 	lui	v0,0xa081
a080bf94:	8c42d928 	lw	v0,-9944(v0)
a080bf98:	00402021 	move	a0,v0
a080bf9c:	0c2022b2 	jal	a0808ac8 <get_inode>
a080bfa0:	00000000 	nop
a080bfa4:	afc20024 	sw	v0,36(s8)
a080bfa8:	8fc20024 	lw	v0,36(s8)
a080bfac:	8c420000 	lw	v0,0(v0)
a080bfb0:	14400007 	bnez	v0,a080bfd0 <do_fopen+0xfc>
a080bfb4:	00000000 	nop
a080bfb8:	3c02a081 	lui	v0,0xa081
a080bfbc:	2444d53c 	addiu	a0,v0,-10948
a080bfc0:	0c201981 	jal	a0806604 <printk>
a080bfc4:	00000000 	nop
a080bfc8:	08202ff2 	j	a080bfc8 <do_fopen+0xf4>
a080bfcc:	00000000 	nop
a080bfd0:	8fc20024 	lw	v0,36(s8)
a080bfd4:	8c420010 	lw	v0,16(v0)
a080bfd8:	00402021 	move	a0,v0
a080bfdc:	0c202295 	jal	a0808a54 <load_dentry_arr>
a080bfe0:	00000000 	nop
a080bfe4:	afc0001c 	sw	zero,28(s8)
a080bfe8:	08203013 	j	a080c04c <do_fopen+0x178>
a080bfec:	00000000 	nop
a080bff0:	8fc2001c 	lw	v0,28(s8)
a080bff4:	3c03a084 	lui	v1,0xa084
a080bff8:	00022180 	sll	a0,v0,0x6
a080bffc:	24627df8 	addiu	v0,v1,32248
a080c000:	00821021 	addu	v0,a0,v0
a080c004:	8c420038 	lw	v0,56(v0)
a080c008:	1440000d 	bnez	v0,a080c040 <do_fopen+0x16c>
a080c00c:	00000000 	nop
a080c010:	8fc2001c 	lw	v0,28(s8)
a080c014:	00021980 	sll	v1,v0,0x6
a080c018:	3c02a084 	lui	v0,0xa084
a080c01c:	24427df8 	addiu	v0,v0,32248
a080c020:	00621021 	addu	v0,v1,v0
a080c024:	00402021 	move	a0,v0
a080c028:	8fc50014 	lw	a1,20(s8)
a080c02c:	24060038 	li	a2,56
a080c030:	0c20169a 	jal	a0805a68 <my_strncmp>
a080c034:	00000000 	nop
a080c038:	1040000a 	beqz	v0,a080c064 <do_fopen+0x190>
a080c03c:	00000000 	nop
a080c040:	8fc2001c 	lw	v0,28(s8)
a080c044:	24420001 	addiu	v0,v0,1
a080c048:	afc2001c 	sw	v0,28(s8)
a080c04c:	8fc20024 	lw	v0,36(s8)
a080c050:	8c430008 	lw	v1,8(v0)
a080c054:	8fc2001c 	lw	v0,28(s8)
a080c058:	0043102b 	sltu	v0,v0,v1
a080c05c:	1440ffe4 	bnez	v0,a080bff0 <do_fopen+0x11c>
a080c060:	00000000 	nop
a080c064:	8fc20024 	lw	v0,36(s8)
a080c068:	8c430008 	lw	v1,8(v0)
a080c06c:	8fc2001c 	lw	v0,28(s8)
a080c070:	1462000a 	bne	v1,v0,a080c09c <do_fopen+0x1c8>
a080c074:	00000000 	nop
a080c078:	3c02a081 	lui	v0,0xa081
a080c07c:	2444d6d8 	addiu	a0,v0,-10536
a080c080:	0c201981 	jal	a0806604 <printk>
a080c084:	00000000 	nop
a080c088:	3c020001 	lui	v0,0x1
a080c08c:	3442e240 	ori	v0,v0,0xe240
a080c090:	afc20050 	sw	v0,80(s8)
a080c094:	0820309c 	j	a080c270 <do_fopen+0x39c>
a080c098:	00000000 	nop
a080c09c:	8fc4001c 	lw	a0,28(s8)
a080c0a0:	3c02a084 	lui	v0,0xa084
a080c0a4:	24437df8 	addiu	v1,v0,32248
a080c0a8:	00041180 	sll	v0,a0,0x6
a080c0ac:	00621021 	addu	v0,v1,v0
a080c0b0:	8c42003c 	lw	v0,60(v0)
a080c0b4:	afc20010 	sw	v0,16(s8)
a080c0b8:	8fc40010 	lw	a0,16(s8)
a080c0bc:	0c2022b2 	jal	a0808ac8 <get_inode>
a080c0c0:	00000000 	nop
a080c0c4:	afc20020 	sw	v0,32(s8)
a080c0c8:	afc00018 	sw	zero,24(s8)
a080c0cc:	08203054 	j	a080c150 <do_fopen+0x27c>
a080c0d0:	00000000 	nop
a080c0d4:	8fc20018 	lw	v0,24(s8)
a080c0d8:	3c03a084 	lui	v1,0xa084
a080c0dc:	00022100 	sll	a0,v0,0x4
a080c0e0:	24620a90 	addiu	v0,v1,2704
a080c0e4:	00821021 	addu	v0,a0,v0
a080c0e8:	8c430000 	lw	v1,0(v0)
a080c0ec:	8fc20010 	lw	v0,16(s8)
a080c0f0:	14620014 	bne	v1,v0,a080c144 <do_fopen+0x270>
a080c0f4:	00000000 	nop
a080c0f8:	8fc40018 	lw	a0,24(s8)
a080c0fc:	3c02a084 	lui	v0,0xa084
a080c100:	24430a90 	addiu	v1,v0,2704
a080c104:	00041100 	sll	v0,a0,0x4
a080c108:	00621021 	addu	v0,v1,v0
a080c10c:	8c420004 	lw	v0,4(v0)
a080c110:	1040000c 	beqz	v0,a080c144 <do_fopen+0x270>
a080c114:	00000000 	nop
a080c118:	8fc40018 	lw	a0,24(s8)
a080c11c:	8fc50064 	lw	a1,100(s8)
a080c120:	3c02a084 	lui	v0,0xa084
a080c124:	24430a90 	addiu	v1,v0,2704
a080c128:	00041100 	sll	v0,a0,0x4
a080c12c:	00621021 	addu	v0,v1,v0
a080c130:	ac450004 	sw	a1,4(v0)
a080c134:	8fc20018 	lw	v0,24(s8)
a080c138:	afc20050 	sw	v0,80(s8)
a080c13c:	0820309c 	j	a080c270 <do_fopen+0x39c>
a080c140:	00000000 	nop
a080c144:	8fc20018 	lw	v0,24(s8)
a080c148:	24420001 	addiu	v0,v0,1
a080c14c:	afc20018 	sw	v0,24(s8)
a080c150:	8fc20018 	lw	v0,24(s8)
a080c154:	2c420040 	sltiu	v0,v0,64
a080c158:	1440ffde 	bnez	v0,a080c0d4 <do_fopen+0x200>
a080c15c:	00000000 	nop
a080c160:	afc00018 	sw	zero,24(s8)
a080c164:	0820306e 	j	a080c1b8 <do_fopen+0x2e4>
a080c168:	00000000 	nop
a080c16c:	8fc20018 	lw	v0,24(s8)
a080c170:	3c03a084 	lui	v1,0xa084
a080c174:	00022100 	sll	a0,v0,0x4
a080c178:	24620a90 	addiu	v0,v1,2704
a080c17c:	00821021 	addu	v0,a0,v0
a080c180:	8c420000 	lw	v0,0(v0)
a080c184:	14400009 	bnez	v0,a080c1ac <do_fopen+0x2d8>
a080c188:	00000000 	nop
a080c18c:	8fc40018 	lw	a0,24(s8)
a080c190:	3c02a084 	lui	v0,0xa084
a080c194:	24430a90 	addiu	v1,v0,2704
a080c198:	00041100 	sll	v0,a0,0x4
a080c19c:	00621021 	addu	v0,v1,v0
a080c1a0:	8c420004 	lw	v0,4(v0)
a080c1a4:	10400008 	beqz	v0,a080c1c8 <do_fopen+0x2f4>
a080c1a8:	00000000 	nop
a080c1ac:	8fc20018 	lw	v0,24(s8)
a080c1b0:	24420001 	addiu	v0,v0,1
a080c1b4:	afc20018 	sw	v0,24(s8)
a080c1b8:	8fc20018 	lw	v0,24(s8)
a080c1bc:	2c420040 	sltiu	v0,v0,64
a080c1c0:	1440ffea 	bnez	v0,a080c16c <do_fopen+0x298>
a080c1c4:	00000000 	nop
a080c1c8:	8fc30018 	lw	v1,24(s8)
a080c1cc:	24020040 	li	v0,64
a080c1d0:	14620007 	bne	v1,v0,a080c1f0 <do_fopen+0x31c>
a080c1d4:	00000000 	nop
a080c1d8:	3c02a081 	lui	v0,0xa081
a080c1dc:	2444d720 	addiu	a0,v0,-10464
a080c1e0:	0c201981 	jal	a0806604 <printk>
a080c1e4:	00000000 	nop
a080c1e8:	0820307a 	j	a080c1e8 <do_fopen+0x314>
a080c1ec:	00000000 	nop
a080c1f0:	8fc40018 	lw	a0,24(s8)
a080c1f4:	8fc50064 	lw	a1,100(s8)
a080c1f8:	3c02a084 	lui	v0,0xa084
a080c1fc:	24430a90 	addiu	v1,v0,2704
a080c200:	00041100 	sll	v0,a0,0x4
a080c204:	00621021 	addu	v0,v1,v0
a080c208:	ac450004 	sw	a1,4(v0)
a080c20c:	8fc20018 	lw	v0,24(s8)
a080c210:	3c03a084 	lui	v1,0xa084
a080c214:	00022100 	sll	a0,v0,0x4
a080c218:	24620a90 	addiu	v0,v1,2704
a080c21c:	00821821 	addu	v1,a0,v0
a080c220:	8fc20010 	lw	v0,16(s8)
a080c224:	ac620000 	sw	v0,0(v1)
a080c228:	8fc20018 	lw	v0,24(s8)
a080c22c:	3c04a084 	lui	a0,0xa084
a080c230:	00021040 	sll	v0,v0,0x1
a080c234:	24420001 	addiu	v0,v0,1
a080c238:	000218c0 	sll	v1,v0,0x3
a080c23c:	24820a90 	addiu	v0,a0,2704
a080c240:	00621021 	addu	v0,v1,v0
a080c244:	ac400000 	sw	zero,0(v0)
a080c248:	8fc20018 	lw	v0,24(s8)
a080c24c:	3c03a084 	lui	v1,0xa084
a080c250:	00021040 	sll	v0,v0,0x1
a080c254:	24420001 	addiu	v0,v0,1
a080c258:	24630a90 	addiu	v1,v1,2704
a080c25c:	000210c0 	sll	v0,v0,0x3
a080c260:	00621021 	addu	v0,v1,v0
a080c264:	ac400004 	sw	zero,4(v0)
a080c268:	8fc20018 	lw	v0,24(s8)
a080c26c:	afc20050 	sw	v0,80(s8)
a080c270:	8fc20050 	lw	v0,80(s8)
a080c274:	afc20054 	sw	v0,84(s8)
a080c278:	8fc20054 	lw	v0,84(s8)
a080c27c:	03c0e821 	move	sp,s8
a080c280:	8fbf005c 	lw	ra,92(sp)
a080c284:	8fbe0058 	lw	s8,88(sp)
a080c288:	27bd0060 	addiu	sp,sp,96
a080c28c:	03e00008 	jr	ra
a080c290:	00000000 	nop

a080c294 <do_fread>:
a080c294:	27bdff98 	addiu	sp,sp,-104
a080c298:	afbf0064 	sw	ra,100(sp)
a080c29c:	afbe0060 	sw	s8,96(sp)
a080c2a0:	03a0f021 	move	s8,sp
a080c2a4:	afc40068 	sw	a0,104(s8)
a080c2a8:	afc5006c 	sw	a1,108(s8)
a080c2ac:	afc60070 	sw	a2,112(s8)
a080c2b0:	3c02a081 	lui	v0,0xa081
a080c2b4:	8c42d94c 	lw	v0,-9908(v0)
a080c2b8:	24430002 	addiu	v1,v0,2
a080c2bc:	3c02a081 	lui	v0,0xa081
a080c2c0:	ac43d94c 	sw	v1,-9908(v0)
a080c2c4:	3c02a081 	lui	v0,0xa081
a080c2c8:	8c42d94c 	lw	v0,-9908(v0)
a080c2cc:	24040001 	li	a0,1
a080c2d0:	00402821 	move	a1,v0
a080c2d4:	0c2002a0 	jal	a0800a80 <vt100_move_cursor>
a080c2d8:	00000000 	nop
a080c2dc:	3c02a084 	lui	v0,0xa084
a080c2e0:	24446d18 	addiu	a0,v0,27928
a080c2e4:	3c052000 	lui	a1,0x2000
a080c2e8:	24061000 	li	a2,4096
a080c2ec:	0c2032e6 	jal	a080cb98 <.pic.sdread>
a080c2f0:	00000000 	nop
a080c2f4:	27c20034 	addiu	v0,s8,52
a080c2f8:	00402021 	move	a0,v0
a080c2fc:	3c02a084 	lui	v0,0xa084
a080c300:	24456d18 	addiu	a1,v0,27928
a080c304:	24060020 	li	a2,32
a080c308:	0c20167d 	jal	a08059f4 <os_memcpy>
a080c30c:	00000000 	nop
a080c310:	8fc30034 	lw	v1,52(s8)
a080c314:	3c020011 	lui	v0,0x11
a080c318:	34424514 	ori	v0,v0,0x4514
a080c31c:	10620007 	beq	v1,v0,a080c33c <do_fread+0xa8>
a080c320:	00000000 	nop
a080c324:	3c02a081 	lui	v0,0xa081
a080c328:	2444d518 	addiu	a0,v0,-10984
a080c32c:	0c201981 	jal	a0806604 <printk>
a080c330:	00000000 	nop
a080c334:	0820314e 	j	a080c538 <do_fread+0x2a4>
a080c338:	00000000 	nop
a080c33c:	8fc20068 	lw	v0,104(s8)
a080c340:	00021900 	sll	v1,v0,0x4
a080c344:	3c02a084 	lui	v0,0xa084
a080c348:	24420a90 	addiu	v0,v0,2704
a080c34c:	00621021 	addu	v0,v1,v0
a080c350:	afc2001c 	sw	v0,28(s8)
a080c354:	8fc2001c 	lw	v0,28(s8)
a080c358:	8c420004 	lw	v0,4(v0)
a080c35c:	14400007 	bnez	v0,a080c37c <do_fread+0xe8>
a080c360:	00000000 	nop
a080c364:	3c02a081 	lui	v0,0xa081
a080c368:	2444d744 	addiu	a0,v0,-10428
a080c36c:	0c201981 	jal	a0806604 <printk>
a080c370:	00000000 	nop
a080c374:	082030dd 	j	a080c374 <do_fread+0xe0>
a080c378:	00000000 	nop
a080c37c:	8fc2001c 	lw	v0,28(s8)
a080c380:	8c430008 	lw	v1,8(v0)
a080c384:	8fc20070 	lw	v0,112(s8)
a080c388:	00621821 	addu	v1,v1,v0
a080c38c:	3402a000 	li	v0,0xa000
a080c390:	0062102b 	sltu	v0,v1,v0
a080c394:	14400007 	bnez	v0,a080c3b4 <do_fread+0x120>
a080c398:	00000000 	nop
a080c39c:	3c02a081 	lui	v0,0xa081
a080c3a0:	2444d760 	addiu	a0,v0,-10400
a080c3a4:	0c201981 	jal	a0806604 <printk>
a080c3a8:	00000000 	nop
a080c3ac:	082030eb 	j	a080c3ac <do_fread+0x118>
a080c3b0:	00000000 	nop
a080c3b4:	8fc20044 	lw	v0,68(s8)
a080c3b8:	00402021 	move	a0,v0
a080c3bc:	0c2022cb 	jal	a0808b2c <load_inode_array>
a080c3c0:	00000000 	nop
a080c3c4:	8fc2001c 	lw	v0,28(s8)
a080c3c8:	8c420000 	lw	v0,0(v0)
a080c3cc:	00402021 	move	a0,v0
a080c3d0:	0c2022b2 	jal	a0808ac8 <get_inode>
a080c3d4:	00000000 	nop
a080c3d8:	afc20028 	sw	v0,40(s8)
a080c3dc:	8fc2001c 	lw	v0,28(s8)
a080c3e0:	8c420008 	lw	v0,8(v0)
a080c3e4:	00021302 	srl	v0,v0,0xc
a080c3e8:	afc20014 	sw	v0,20(s8)
a080c3ec:	8fc2001c 	lw	v0,28(s8)
a080c3f0:	8c420008 	lw	v0,8(v0)
a080c3f4:	30420fff 	andi	v0,v0,0xfff
a080c3f8:	afc20010 	sw	v0,16(s8)
a080c3fc:	8fc20014 	lw	v0,20(s8)
a080c400:	8fc30028 	lw	v1,40(s8)
a080c404:	24420004 	addiu	v0,v0,4
a080c408:	00021080 	sll	v0,v0,0x2
a080c40c:	00621021 	addu	v0,v1,v0
a080c410:	8c420000 	lw	v0,0(v0)
a080c414:	14400007 	bnez	v0,a080c434 <do_fread+0x1a0>
a080c418:	00000000 	nop
a080c41c:	3c02a081 	lui	v0,0xa081
a080c420:	2444d780 	addiu	a0,v0,-10368
a080c424:	0c201981 	jal	a0806604 <printk>
a080c428:	00000000 	nop
a080c42c:	0820310b 	j	a080c42c <do_fread+0x198>
a080c430:	00000000 	nop
a080c434:	8fc20028 	lw	v0,40(s8)
a080c438:	8c430008 	lw	v1,8(v0)
a080c43c:	8fc2001c 	lw	v0,28(s8)
a080c440:	8c420008 	lw	v0,8(v0)
a080c444:	0043102b 	sltu	v0,v0,v1
a080c448:	14400007 	bnez	v0,a080c468 <do_fread+0x1d4>
a080c44c:	00000000 	nop
a080c450:	3c02a081 	lui	v0,0xa081
a080c454:	2444d79c 	addiu	a0,v0,-10340
a080c458:	0c201981 	jal	a0806604 <printk>
a080c45c:	00000000 	nop
a080c460:	08203118 	j	a080c460 <do_fread+0x1cc>
a080c464:	00000000 	nop
a080c468:	8fc20014 	lw	v0,20(s8)
a080c46c:	8fc30028 	lw	v1,40(s8)
a080c470:	24420004 	addiu	v0,v0,4
a080c474:	00021080 	sll	v0,v0,0x2
a080c478:	00621021 	addu	v0,v1,v0
a080c47c:	8c430000 	lw	v1,0(v0)
a080c480:	3c020002 	lui	v0,0x2
a080c484:	00621021 	addu	v0,v1,v0
a080c488:	00021b00 	sll	v1,v0,0xc
a080c48c:	3c02a084 	lui	v0,0xa084
a080c490:	24446d18 	addiu	a0,v0,27928
a080c494:	00602821 	move	a1,v1
a080c498:	24061000 	li	a2,4096
a080c49c:	0c2032e6 	jal	a080cb98 <.pic.sdread>
a080c4a0:	00000000 	nop
a080c4a4:	afc00024 	sw	zero,36(s8)
a080c4a8:	08203141 	j	a080c504 <do_fread+0x270>
a080c4ac:	00000000 	nop
a080c4b0:	8fc3006c 	lw	v1,108(s8)
a080c4b4:	8fc20024 	lw	v0,36(s8)
a080c4b8:	00621021 	addu	v0,v1,v0
a080c4bc:	80430000 	lb	v1,0(v0)
a080c4c0:	2402ffff 	li	v0,-1
a080c4c4:	10620014 	beq	v1,v0,a080c518 <do_fread+0x284>
a080c4c8:	00000000 	nop
a080c4cc:	8fc3006c 	lw	v1,108(s8)
a080c4d0:	8fc20024 	lw	v0,36(s8)
a080c4d4:	00622021 	addu	a0,v1,v0
a080c4d8:	8fc30024 	lw	v1,36(s8)
a080c4dc:	8fc20010 	lw	v0,16(s8)
a080c4e0:	00621821 	addu	v1,v1,v0
a080c4e4:	3c02a084 	lui	v0,0xa084
a080c4e8:	24426d18 	addiu	v0,v0,27928
a080c4ec:	00621021 	addu	v0,v1,v0
a080c4f0:	80420000 	lb	v0,0(v0)
a080c4f4:	a0820000 	sb	v0,0(a0)
a080c4f8:	8fc20024 	lw	v0,36(s8)
a080c4fc:	24420001 	addiu	v0,v0,1
a080c500:	afc20024 	sw	v0,36(s8)
a080c504:	8fc20070 	lw	v0,112(s8)
a080c508:	8fc30024 	lw	v1,36(s8)
a080c50c:	0062102b 	sltu	v0,v1,v0
a080c510:	1440ffe7 	bnez	v0,a080c4b0 <do_fread+0x21c>
a080c514:	00000000 	nop
a080c518:	8fc2001c 	lw	v0,28(s8)
a080c51c:	8c430008 	lw	v1,8(v0)
a080c520:	8fc20024 	lw	v0,36(s8)
a080c524:	00621821 	addu	v1,v1,v0
a080c528:	8fc2001c 	lw	v0,28(s8)
a080c52c:	ac430008 	sw	v1,8(v0)
a080c530:	8fc20024 	lw	v0,36(s8)
a080c534:	afc20058 	sw	v0,88(s8)
a080c538:	8fc20058 	lw	v0,88(s8)
a080c53c:	03c0e821 	move	sp,s8
a080c540:	8fbf0064 	lw	ra,100(sp)
a080c544:	8fbe0060 	lw	s8,96(sp)
a080c548:	27bd0068 	addiu	sp,sp,104
a080c54c:	03e00008 	jr	ra
a080c550:	00000000 	nop

a080c554 <do_fwrite>:
a080c554:	27bdff98 	addiu	sp,sp,-104
a080c558:	afbf0064 	sw	ra,100(sp)
a080c55c:	afbe0060 	sw	s8,96(sp)
a080c560:	03a0f021 	move	s8,sp
a080c564:	afc40068 	sw	a0,104(s8)
a080c568:	afc5006c 	sw	a1,108(s8)
a080c56c:	afc60070 	sw	a2,112(s8)
a080c570:	3c02a081 	lui	v0,0xa081
a080c574:	8c42d94c 	lw	v0,-9908(v0)
a080c578:	24430002 	addiu	v1,v0,2
a080c57c:	3c02a081 	lui	v0,0xa081
a080c580:	ac43d94c 	sw	v1,-9908(v0)
a080c584:	3c02a081 	lui	v0,0xa081
a080c588:	8c42d94c 	lw	v0,-9908(v0)
a080c58c:	24040001 	li	a0,1
a080c590:	00402821 	move	a1,v0
a080c594:	0c2002a0 	jal	a0800a80 <vt100_move_cursor>
a080c598:	00000000 	nop
a080c59c:	3c02a084 	lui	v0,0xa084
a080c5a0:	24446d18 	addiu	a0,v0,27928
a080c5a4:	3c052000 	lui	a1,0x2000
a080c5a8:	24061000 	li	a2,4096
a080c5ac:	0c2032e6 	jal	a080cb98 <.pic.sdread>
a080c5b0:	00000000 	nop
a080c5b4:	27c20034 	addiu	v0,s8,52
a080c5b8:	00402021 	move	a0,v0
a080c5bc:	3c02a084 	lui	v0,0xa084
a080c5c0:	24456d18 	addiu	a1,v0,27928
a080c5c4:	24060020 	li	a2,32
a080c5c8:	0c20167d 	jal	a08059f4 <os_memcpy>
a080c5cc:	00000000 	nop
a080c5d0:	8fc30034 	lw	v1,52(s8)
a080c5d4:	3c020011 	lui	v0,0x11
a080c5d8:	34424514 	ori	v0,v0,0x4514
a080c5dc:	10620007 	beq	v1,v0,a080c5fc <do_fwrite+0xa8>
a080c5e0:	00000000 	nop
a080c5e4:	3c02a081 	lui	v0,0xa081
a080c5e8:	2444d518 	addiu	a0,v0,-10984
a080c5ec:	0c201981 	jal	a0806604 <printk>
a080c5f0:	00000000 	nop
a080c5f4:	08203248 	j	a080c920 <do_fwrite+0x3cc>
a080c5f8:	00000000 	nop
a080c5fc:	8fc20068 	lw	v0,104(s8)
a080c600:	00021900 	sll	v1,v0,0x4
a080c604:	3c02a084 	lui	v0,0xa084
a080c608:	24420a90 	addiu	v0,v0,2704
a080c60c:	00621021 	addu	v0,v1,v0
a080c610:	afc2001c 	sw	v0,28(s8)
a080c614:	8fc2001c 	lw	v0,28(s8)
a080c618:	8c420004 	lw	v0,4(v0)
a080c61c:	14400007 	bnez	v0,a080c63c <do_fwrite+0xe8>
a080c620:	00000000 	nop
a080c624:	3c02a081 	lui	v0,0xa081
a080c628:	2444d744 	addiu	a0,v0,-10428
a080c62c:	0c201981 	jal	a0806604 <printk>
a080c630:	00000000 	nop
a080c634:	0820318d 	j	a080c634 <do_fwrite+0xe0>
a080c638:	00000000 	nop
a080c63c:	8fc2001c 	lw	v0,28(s8)
a080c640:	8c430004 	lw	v1,4(v0)
a080c644:	24020001 	li	v0,1
a080c648:	14620007 	bne	v1,v0,a080c668 <do_fwrite+0x114>
a080c64c:	00000000 	nop
a080c650:	3c02a081 	lui	v0,0xa081
a080c654:	2444d7b8 	addiu	a0,v0,-10312
a080c658:	0c201981 	jal	a0806604 <printk>
a080c65c:	00000000 	nop
a080c660:	08203248 	j	a080c920 <do_fwrite+0x3cc>
a080c664:	00000000 	nop
a080c668:	8fc2001c 	lw	v0,28(s8)
a080c66c:	8c43000c 	lw	v1,12(v0)
a080c670:	8fc20070 	lw	v0,112(s8)
a080c674:	00621821 	addu	v1,v1,v0
a080c678:	3402a000 	li	v0,0xa000
a080c67c:	0062102b 	sltu	v0,v1,v0
a080c680:	14400007 	bnez	v0,a080c6a0 <do_fwrite+0x14c>
a080c684:	00000000 	nop
a080c688:	3c02a081 	lui	v0,0xa081
a080c68c:	2444d7d8 	addiu	a0,v0,-10280
a080c690:	0c201981 	jal	a0806604 <printk>
a080c694:	00000000 	nop
a080c698:	082031a6 	j	a080c698 <do_fwrite+0x144>
a080c69c:	00000000 	nop
a080c6a0:	8fc20044 	lw	v0,68(s8)
a080c6a4:	00402021 	move	a0,v0
a080c6a8:	0c2022cb 	jal	a0808b2c <load_inode_array>
a080c6ac:	00000000 	nop
a080c6b0:	8fc2001c 	lw	v0,28(s8)
a080c6b4:	8c420000 	lw	v0,0(v0)
a080c6b8:	00402021 	move	a0,v0
a080c6bc:	0c2022b2 	jal	a0808ac8 <get_inode>
a080c6c0:	00000000 	nop
a080c6c4:	afc20028 	sw	v0,40(s8)
a080c6c8:	8fc2001c 	lw	v0,28(s8)
a080c6cc:	8c42000c 	lw	v0,12(v0)
a080c6d0:	00021302 	srl	v0,v0,0xc
a080c6d4:	afc20014 	sw	v0,20(s8)
a080c6d8:	8fc2001c 	lw	v0,28(s8)
a080c6dc:	8c42000c 	lw	v0,12(v0)
a080c6e0:	30420fff 	andi	v0,v0,0xfff
a080c6e4:	afc20010 	sw	v0,16(s8)
a080c6e8:	8fc20014 	lw	v0,20(s8)
a080c6ec:	8fc30028 	lw	v1,40(s8)
a080c6f0:	24420004 	addiu	v0,v0,4
a080c6f4:	00021080 	sll	v0,v0,0x2
a080c6f8:	00621021 	addu	v0,v1,v0
a080c6fc:	8c420000 	lw	v0,0(v0)
a080c700:	14400007 	bnez	v0,a080c720 <do_fwrite+0x1cc>
a080c704:	00000000 	nop
a080c708:	3c02a081 	lui	v0,0xa081
a080c70c:	2444d7fc 	addiu	a0,v0,-10244
a080c710:	0c201981 	jal	a0806604 <printk>
a080c714:	00000000 	nop
a080c718:	082031c6 	j	a080c718 <do_fwrite+0x1c4>
a080c71c:	00000000 	nop
a080c720:	8fc20014 	lw	v0,20(s8)
a080c724:	8fc30028 	lw	v1,40(s8)
a080c728:	24420004 	addiu	v0,v0,4
a080c72c:	00021080 	sll	v0,v0,0x2
a080c730:	00621021 	addu	v0,v1,v0
a080c734:	8c430000 	lw	v1,0(v0)
a080c738:	3c020002 	lui	v0,0x2
a080c73c:	00621021 	addu	v0,v1,v0
a080c740:	00021b00 	sll	v1,v0,0xc
a080c744:	3c02a084 	lui	v0,0xa084
a080c748:	24446d18 	addiu	a0,v0,27928
a080c74c:	00602821 	move	a1,v1
a080c750:	24061000 	li	a2,4096
a080c754:	0c2032e6 	jal	a080cb98 <.pic.sdread>
a080c758:	00000000 	nop
a080c75c:	afc00024 	sw	zero,36(s8)
a080c760:	082031f4 	j	a080c7d0 <do_fwrite+0x27c>
a080c764:	00000000 	nop
a080c768:	8fc30024 	lw	v1,36(s8)
a080c76c:	8fc20010 	lw	v0,16(s8)
a080c770:	00621021 	addu	v0,v1,v0
a080c774:	2c421000 	sltiu	v0,v0,4096
a080c778:	14400007 	bnez	v0,a080c798 <do_fwrite+0x244>
a080c77c:	00000000 	nop
a080c780:	3c02a081 	lui	v0,0xa081
a080c784:	2444d818 	addiu	a0,v0,-10216
a080c788:	0c201981 	jal	a0806604 <printk>
a080c78c:	00000000 	nop
a080c790:	082031e4 	j	a080c790 <do_fwrite+0x23c>
a080c794:	00000000 	nop
a080c798:	8fc30024 	lw	v1,36(s8)
a080c79c:	8fc20010 	lw	v0,16(s8)
a080c7a0:	00622021 	addu	a0,v1,v0
a080c7a4:	8fc3006c 	lw	v1,108(s8)
a080c7a8:	8fc20024 	lw	v0,36(s8)
a080c7ac:	00621021 	addu	v0,v1,v0
a080c7b0:	80430000 	lb	v1,0(v0)
a080c7b4:	3c02a084 	lui	v0,0xa084
a080c7b8:	24426d18 	addiu	v0,v0,27928
a080c7bc:	00821021 	addu	v0,a0,v0
a080c7c0:	a0430000 	sb	v1,0(v0)
a080c7c4:	8fc20024 	lw	v0,36(s8)
a080c7c8:	24420001 	addiu	v0,v0,1
a080c7cc:	afc20024 	sw	v0,36(s8)
a080c7d0:	8fc20070 	lw	v0,112(s8)
a080c7d4:	8fc30024 	lw	v1,36(s8)
a080c7d8:	0062102b 	sltu	v0,v1,v0
a080c7dc:	1440ffe2 	bnez	v0,a080c768 <do_fwrite+0x214>
a080c7e0:	00000000 	nop
a080c7e4:	8fc30024 	lw	v1,36(s8)
a080c7e8:	8fc20010 	lw	v0,16(s8)
a080c7ec:	00621021 	addu	v0,v1,v0
a080c7f0:	2c420fff 	sltiu	v0,v0,4095
a080c7f4:	10400009 	beqz	v0,a080c81c <do_fwrite+0x2c8>
a080c7f8:	00000000 	nop
a080c7fc:	8fc30024 	lw	v1,36(s8)
a080c800:	8fc20010 	lw	v0,16(s8)
a080c804:	00621821 	addu	v1,v1,v0
a080c808:	3c02a084 	lui	v0,0xa084
a080c80c:	24426d18 	addiu	v0,v0,27928
a080c810:	00621821 	addu	v1,v1,v0
a080c814:	2402ffff 	li	v0,-1
a080c818:	a0620000 	sb	v0,0(v1)
a080c81c:	8fc2001c 	lw	v0,28(s8)
a080c820:	8c43000c 	lw	v1,12(v0)
a080c824:	8fc20024 	lw	v0,36(s8)
a080c828:	00621821 	addu	v1,v1,v0
a080c82c:	8fc2001c 	lw	v0,28(s8)
a080c830:	ac43000c 	sw	v1,12(v0)
a080c834:	8fc20028 	lw	v0,40(s8)
a080c838:	8c430008 	lw	v1,8(v0)
a080c83c:	8fc20024 	lw	v0,36(s8)
a080c840:	00621821 	addu	v1,v1,v0
a080c844:	8fc20028 	lw	v0,40(s8)
a080c848:	ac430008 	sw	v1,8(v0)
a080c84c:	8fc20014 	lw	v0,20(s8)
a080c850:	8fc30028 	lw	v1,40(s8)
a080c854:	24420004 	addiu	v0,v0,4
a080c858:	00021080 	sll	v0,v0,0x2
a080c85c:	00621021 	addu	v0,v1,v0
a080c860:	8c430000 	lw	v1,0(v0)
a080c864:	3c020002 	lui	v0,0x2
a080c868:	00621021 	addu	v0,v1,v0
a080c86c:	00021b00 	sll	v1,v0,0xc
a080c870:	3c02a084 	lui	v0,0xa084
a080c874:	24446d18 	addiu	a0,v0,27928
a080c878:	00602821 	move	a1,v1
a080c87c:	24061000 	li	a2,4096
a080c880:	0c2032c6 	jal	a080cb18 <.pic.sdwrite>
a080c884:	00000000 	nop
a080c888:	afc00020 	sw	zero,32(s8)
a080c88c:	0820323f 	j	a080c8fc <do_fwrite+0x3a8>
a080c890:	00000000 	nop
a080c894:	3c02a085 	lui	v0,0xa085
a080c898:	24438df8 	addiu	v1,v0,-29192
a080c89c:	8fc20020 	lw	v0,32(s8)
a080c8a0:	00021300 	sll	v0,v0,0xc
a080c8a4:	00621821 	addu	v1,v1,v0
a080c8a8:	3c02a084 	lui	v0,0xa084
a080c8ac:	24446d18 	addiu	a0,v0,27928
a080c8b0:	00602821 	move	a1,v1
a080c8b4:	24061000 	li	a2,4096
a080c8b8:	0c20167d 	jal	a08059f4 <os_memcpy>
a080c8bc:	00000000 	nop
a080c8c0:	8fc30044 	lw	v1,68(s8)
a080c8c4:	8fc20020 	lw	v0,32(s8)
a080c8c8:	00621821 	addu	v1,v1,v0
a080c8cc:	3c020002 	lui	v0,0x2
a080c8d0:	00621021 	addu	v0,v1,v0
a080c8d4:	00021b00 	sll	v1,v0,0xc
a080c8d8:	3c02a084 	lui	v0,0xa084
a080c8dc:	24446d18 	addiu	a0,v0,27928
a080c8e0:	00602821 	move	a1,v1
a080c8e4:	24061000 	li	a2,4096
a080c8e8:	0c2032c6 	jal	a080cb18 <.pic.sdwrite>
a080c8ec:	00000000 	nop
a080c8f0:	8fc20020 	lw	v0,32(s8)
a080c8f4:	24420001 	addiu	v0,v0,1
a080c8f8:	afc20020 	sw	v0,32(s8)
a080c8fc:	8fc20020 	lw	v0,32(s8)
a080c900:	2c420004 	sltiu	v0,v0,4
a080c904:	1440ffe3 	bnez	v0,a080c894 <do_fwrite+0x340>
a080c908:	00000000 	nop
a080c90c:	8fc20024 	lw	v0,36(s8)
a080c910:	afc20058 	sw	v0,88(s8)
a080c914:	8fc20058 	lw	v0,88(s8)
a080c918:	08203248 	j	a080c920 <do_fwrite+0x3cc>
a080c91c:	00000000 	nop
a080c920:	03c0e821 	move	sp,s8
a080c924:	8fbf0064 	lw	ra,100(sp)
a080c928:	8fbe0060 	lw	s8,96(sp)
a080c92c:	27bd0068 	addiu	sp,sp,104
a080c930:	03e00008 	jr	ra
a080c934:	00000000 	nop

a080c938 <do_fclose>:
a080c938:	27bdffa8 	addiu	sp,sp,-88
a080c93c:	afbf0054 	sw	ra,84(sp)
a080c940:	afbe0050 	sw	s8,80(sp)
a080c944:	03a0f021 	move	s8,sp
a080c948:	afc40058 	sw	a0,88(s8)
a080c94c:	3c02a081 	lui	v0,0xa081
a080c950:	8c42d94c 	lw	v0,-9908(v0)
a080c954:	24430002 	addiu	v1,v0,2
a080c958:	3c02a081 	lui	v0,0xa081
a080c95c:	ac43d94c 	sw	v1,-9908(v0)
a080c960:	3c02a081 	lui	v0,0xa081
a080c964:	8c42d94c 	lw	v0,-9908(v0)
a080c968:	24040001 	li	a0,1
a080c96c:	00402821 	move	a1,v0
a080c970:	0c2002a0 	jal	a0800a80 <vt100_move_cursor>
a080c974:	00000000 	nop
a080c978:	3c02a084 	lui	v0,0xa084
a080c97c:	24446d18 	addiu	a0,v0,27928
a080c980:	3c052000 	lui	a1,0x2000
a080c984:	24061000 	li	a2,4096
a080c988:	0c2032e6 	jal	a080cb98 <.pic.sdread>
a080c98c:	00000000 	nop
a080c990:	27c2002c 	addiu	v0,s8,44
a080c994:	00402021 	move	a0,v0
a080c998:	3c02a084 	lui	v0,0xa084
a080c99c:	24456d18 	addiu	a1,v0,27928
a080c9a0:	24060020 	li	a2,32
a080c9a4:	0c20167d 	jal	a08059f4 <os_memcpy>
a080c9a8:	00000000 	nop
a080c9ac:	8fc3002c 	lw	v1,44(s8)
a080c9b0:	3c020011 	lui	v0,0x11
a080c9b4:	34424514 	ori	v0,v0,0x4514
a080c9b8:	10620007 	beq	v1,v0,a080c9d8 <do_fclose+0xa0>
a080c9bc:	00000000 	nop
a080c9c0:	3c02a081 	lui	v0,0xa081
a080c9c4:	2444d518 	addiu	a0,v0,-10984
a080c9c8:	0c201981 	jal	a0806604 <printk>
a080c9cc:	00000000 	nop
a080c9d0:	0820328d 	j	a080ca34 <do_fclose+0xfc>
a080c9d4:	00000000 	nop
a080c9d8:	8fc20058 	lw	v0,88(s8)
a080c9dc:	00021900 	sll	v1,v0,0x4
a080c9e0:	3c02a084 	lui	v0,0xa084
a080c9e4:	24420a90 	addiu	v0,v0,2704
a080c9e8:	00621021 	addu	v0,v1,v0
a080c9ec:	afc20010 	sw	v0,16(s8)
a080c9f0:	8fc20010 	lw	v0,16(s8)
a080c9f4:	8c420004 	lw	v0,4(v0)
a080c9f8:	14400007 	bnez	v0,a080ca18 <do_fclose+0xe0>
a080c9fc:	00000000 	nop
a080ca00:	3c02a081 	lui	v0,0xa081
a080ca04:	2444d744 	addiu	a0,v0,-10428
a080ca08:	0c201981 	jal	a0806604 <printk>
a080ca0c:	00000000 	nop
a080ca10:	08203284 	j	a080ca10 <do_fclose+0xd8>
a080ca14:	00000000 	nop
a080ca18:	8fc30010 	lw	v1,16(s8)
a080ca1c:	24020001 	li	v0,1
a080ca20:	ac620004 	sw	v0,4(v1)
a080ca24:	8fc20010 	lw	v0,16(s8)
a080ca28:	ac400008 	sw	zero,8(v0)
a080ca2c:	8fc20010 	lw	v0,16(s8)
a080ca30:	ac40000c 	sw	zero,12(v0)
a080ca34:	03c0e821 	move	sp,s8
a080ca38:	8fbf0054 	lw	ra,84(sp)
a080ca3c:	8fbe0050 	lw	s8,80(sp)
a080ca40:	27bd0058 	addiu	sp,sp,88
a080ca44:	03e00008 	jr	ra
a080ca48:	00000000 	nop

a080ca4c <init_fd_array>:
a080ca4c:	27bdfff0 	addiu	sp,sp,-16
a080ca50:	afbe000c 	sw	s8,12(sp)
a080ca54:	03a0f021 	move	s8,sp
a080ca58:	afc00000 	sw	zero,0(s8)
a080ca5c:	082032b8 	j	a080cae0 <init_fd_array+0x94>
a080ca60:	00000000 	nop
a080ca64:	8fc40000 	lw	a0,0(s8)
a080ca68:	3c02a084 	lui	v0,0xa084
a080ca6c:	24430a90 	addiu	v1,v0,2704
a080ca70:	00041100 	sll	v0,a0,0x4
a080ca74:	00621021 	addu	v0,v1,v0
a080ca78:	ac400004 	sw	zero,4(v0)
a080ca7c:	8fc20000 	lw	v0,0(s8)
a080ca80:	3c03a084 	lui	v1,0xa084
a080ca84:	00022100 	sll	a0,v0,0x4
a080ca88:	24620a90 	addiu	v0,v1,2704
a080ca8c:	00821021 	addu	v0,a0,v0
a080ca90:	ac400000 	sw	zero,0(v0)
a080ca94:	8fc20000 	lw	v0,0(s8)
a080ca98:	3c04a084 	lui	a0,0xa084
a080ca9c:	00021040 	sll	v0,v0,0x1
a080caa0:	24420001 	addiu	v0,v0,1
a080caa4:	000218c0 	sll	v1,v0,0x3
a080caa8:	24820a90 	addiu	v0,a0,2704
a080caac:	00621021 	addu	v0,v1,v0
a080cab0:	ac400000 	sw	zero,0(v0)
a080cab4:	8fc20000 	lw	v0,0(s8)
a080cab8:	3c03a084 	lui	v1,0xa084
a080cabc:	00021040 	sll	v0,v0,0x1
a080cac0:	24420001 	addiu	v0,v0,1
a080cac4:	24630a90 	addiu	v1,v1,2704
a080cac8:	000210c0 	sll	v0,v0,0x3
a080cacc:	00621021 	addu	v0,v1,v0
a080cad0:	ac400004 	sw	zero,4(v0)
a080cad4:	8fc20000 	lw	v0,0(s8)
a080cad8:	24420001 	addiu	v0,v0,1
a080cadc:	afc20000 	sw	v0,0(s8)
a080cae0:	8fc20000 	lw	v0,0(s8)
a080cae4:	28420040 	slti	v0,v0,64
a080cae8:	1440ffde 	bnez	v0,a080ca64 <init_fd_array+0x18>
a080caec:	00000000 	nop
a080caf0:	03c0e821 	move	sp,s8
a080caf4:	8fbe000c 	lw	s8,12(sp)
a080caf8:	27bd0010 	addiu	sp,sp,16
a080cafc:	03e00008 	jr	ra
a080cb00:	00000000 	nop
	...

a080cb18 <.pic.sdwrite>:
a080cb18:	3c19a081 	lui	t9,0xa081
a080cb1c:	2739cb20 	addiu	t9,t9,-13536

a080cb20 <sdwrite>:
a080cb20:	27bdffd8 	addiu	sp,sp,-40
a080cb24:	afbf0024 	sw	ra,36(sp)
a080cb28:	afbe0020 	sw	s8,32(sp)
a080cb2c:	03a0f021 	move	s8,sp
a080cb30:	afbc0010 	sw	gp,16(sp)
a080cb34:	afc40028 	sw	a0,40(s8)
a080cb38:	afc5002c 	sw	a1,44(s8)
a080cb3c:	afc60030 	sw	a2,48(s8)
a080cb40:	3c028001 	lui	v0,0x8001
a080cb44:	34421080 	ori	v0,v0,0x1080
a080cb48:	afc20018 	sw	v0,24(s8)
a080cb4c:	8fc20028 	lw	v0,40(s8)
a080cb50:	8fc3002c 	lw	v1,44(s8)
a080cb54:	8fc60030 	lw	a2,48(s8)
a080cb58:	8fd90018 	lw	t9,24(s8)
a080cb5c:	00402021 	move	a0,v0
a080cb60:	00602821 	move	a1,v1
a080cb64:	0320f809 	jalr	t9
a080cb68:	00000000 	nop
a080cb6c:	8fdc0010 	lw	gp,16(s8)
a080cb70:	8fc20030 	lw	v0,48(s8)
a080cb74:	03c0e821 	move	sp,s8
a080cb78:	8fbf0024 	lw	ra,36(sp)
a080cb7c:	8fbe0020 	lw	s8,32(sp)
a080cb80:	27bd0028 	addiu	sp,sp,40
a080cb84:	03e00008 	jr	ra
a080cb88:	00000000 	nop
	...

a080cb98 <.pic.sdread>:
a080cb98:	3c19a081 	lui	t9,0xa081
a080cb9c:	2739cba0 	addiu	t9,t9,-13408

a080cba0 <sdread>:
a080cba0:	27bdffd8 	addiu	sp,sp,-40
a080cba4:	afbf0024 	sw	ra,36(sp)
a080cba8:	afbe0020 	sw	s8,32(sp)
a080cbac:	03a0f021 	move	s8,sp
a080cbb0:	afbc0010 	sw	gp,16(sp)
a080cbb4:	afc40028 	sw	a0,40(s8)
a080cbb8:	afc5002c 	sw	a1,44(s8)
a080cbbc:	afc60030 	sw	a2,48(s8)
a080cbc0:	3c028001 	lui	v0,0x8001
a080cbc4:	34421000 	ori	v0,v0,0x1000
a080cbc8:	afc20018 	sw	v0,24(s8)
a080cbcc:	8fd90018 	lw	t9,24(s8)
a080cbd0:	8fc40028 	lw	a0,40(s8)
a080cbd4:	8fc5002c 	lw	a1,44(s8)
a080cbd8:	8fc60030 	lw	a2,48(s8)
a080cbdc:	0320f809 	jalr	t9
a080cbe0:	00000000 	nop
a080cbe4:	8fdc0010 	lw	gp,16(s8)
a080cbe8:	8fc20030 	lw	v0,48(s8)
a080cbec:	03c0e821 	move	sp,s8
a080cbf0:	8fbf0024 	lw	ra,36(sp)
a080cbf4:	8fbe0020 	lw	s8,32(sp)
a080cbf8:	27bd0028 	addiu	sp,sp,40
a080cbfc:	03e00008 	jr	ra
a080cc00:	00000000 	nop
	...
a080cc10:	255b6325 	addiu	k1,t2,25381
a080cc14:	64253b64 	daddiu	a1,at,15204
a080cc18:	00000048 	0x48
a080cc1c:	325b6325 	andi	k1,s2,0x6325
a080cc20:	0000004a 	0x4a
a080cc24:	3f5b6325 	0x3f5b6325
a080cc28:	006c3532 	tlt	v1,t4,0xd4
a080cc2c:	00000000 	nop
a080cc30:	646e6573 	daddiu	t6,v1,25971
a080cc34:	66756220 	daddiu	s5,s3,25120
a080cc38:	20726566 	addi	s2,v1,25958
a080cc3c:	2d63616d 	sltiu	v1,t3,24941
a080cc40:	6461733e 	daddiu	at,v1,29502
a080cc44:	303d7264 	andi	sp,at,0x7264
a080cc48:	20782578 	addi	t8,v1,9592
a080cc4c:	00000000 	nop
a080cc50:	2d63616d 	sltiu	v1,t3,24941
a080cc54:	6461733e 	daddiu	at,v1,29502
a080cc58:	705f7264 	0x705f7264
a080cc5c:	303d7968 	andi	sp,at,0x7968
a080cc60:	20782578 	addi	t8,v1,9592
a080cc64:	00000000 	nop
a080cc68:	646e6573 	daddiu	t6,v1,25971
a080cc6c:	73696420 	0x73696420
a080cc70:	20627263 	addi	v0,v1,29283
a080cc74:	2d63616d 	sltiu	v1,t3,24941
a080cc78:	5f64743e 	0x5f64743e
a080cc7c:	3d796870 	0x3d796870
a080cc80:	78257830 	0x78257830
a080cc84:	0000000a 	0xa
a080cc88:	69636572 	ldl	v1,25970(t3)
a080cc8c:	20657665 	addi	a1,v1,30309
a080cc90:	66667562 	daddiu	a2,s3,30050
a080cc94:	61207265 	daddi	zero,t1,29285
a080cc98:	6d206464 	ldr	zero,25700(t1)
a080cc9c:	3e2d6361 	0x3e2d6361
a080cca0:	64646164 	daddiu	a0,v1,24932
a080cca4:	78303d72 	0x78303d72
a080cca8:	00207825 	move	t7,at
a080ccac:	2d63616d 	sltiu	v1,t3,24941
a080ccb0:	6461643e 	daddiu	at,v1,25662
a080ccb4:	705f7264 	0x705f7264
a080ccb8:	303d7968 	andi	sp,at,0x7968
a080ccbc:	20782578 	addi	t8,v1,9592
a080ccc0:	00000000 	nop
a080ccc4:	69636572 	ldl	v1,25970(t3)
a080ccc8:	20657665 	addi	a1,v1,30309
a080cccc:	63736964 	daddi	s3,k1,26980
a080ccd0:	61206272 	daddi	zero,t1,25202
a080ccd4:	6d206464 	ldr	zero,25700(t1)
a080ccd8:	3e2d6361 	0x3e2d6361
a080ccdc:	705f6472 	0x705f6472
a080cce0:	303d7968 	andi	sp,at,0x7968
a080cce4:	0a782578 	j	a9e095e0 <__bbs_end+0x95bc708>
a080cce8:	00000000 	nop
a080ccec:	76636572 	jalx	a98d95c8 <__bbs_end+0x908c6f0>
a080ccf0:	6c617620 	ldr	at,30240(v1)
a080ccf4:	25206469 	addiu	zero,t1,25705
a080ccf8:	61702064 	daddi	s0,t3,8292
a080ccfc:	67616b63 	daddiu	at,k1,27491
a080cd00:	3a217365 	xori	at,s1,0x7365
a080cd04:	00000000 	nop
a080cd08:	72206425 	0x72206425
a080cd0c:	20766365 	addi	s6,v1,25445
a080cd10:	66667562 	daddiu	a2,s3,30050
a080cd14:	202c7265 	addi	t4,at,29285
a080cd18:	65645f72 	daddiu	a0,t3,24434
a080cd1c:	3d206373 	0x3d206373
a080cd20:	25783020 	addiu	t8,t3,12320
a080cd24:	000a3a78 	dsll	a3,t2,0x9
a080cd28:	00207825 	move	t7,at
a080cd2c:	0000000a 	0xa
a080cd30:	495b203e 	0x495b203e
a080cd34:	5d54494e 	0x5d54494e
a080cd38:	746e4920 	jalx	a1b92480 <__bbs_end+0x13455a8>
a080cd3c:	75727265 	jalx	a5c9c994 <__bbs_end+0x544fabc>
a080cd40:	70207470 	0x70207470
a080cd44:	65636f72 	daddiu	v1,t3,28530
a080cd48:	6e697373 	ldr	t1,29555(s3)
a080cd4c:	6e692067 	ldr	t1,8295(s3)
a080cd50:	61697469 	daddi	t1,t3,29801
a080cd54:	617a696c 	daddi	k0,t3,26988
a080cd58:	6e6f6974 	ldr	t7,26996(s3)
a080cd5c:	63757320 	daddi	s5,k1,29472
a080cd60:	64656563 	daddiu	a1,v1,25955
a080cd64:	0a2e6465 	j	a8b99194 <__bbs_end+0x834c2bc>
a080cd68:	00000000 	nop
a080cd6c:	495b203e 	0x495b203e
a080cd70:	5d54494e 	0x5d54494e
a080cd74:	72695620 	0x72695620
a080cd78:	6c617574 	ldr	at,30068(v1)
a080cd7c:	6d656d20 	ldr	a1,27936(t3)
a080cd80:	2079726f 	addi	t9,v1,29295
a080cd84:	74696e69 	jalx	a1a5b9a4 <__bbs_end+0x120eacc>
a080cd88:	696c6169 	ldl	t4,24937(t3)
a080cd8c:	6974617a 	ldl	s4,24954(t3)
a080cd90:	73206e6f 	0x73206e6f
a080cd94:	65636375 	daddiu	v1,t3,25461
a080cd98:	64656465 	daddiu	a1,v1,25701
a080cd9c:	00000a2e 	0xa2e
a080cda0:	495b203e 	0x495b203e
a080cda4:	5d54494e 	0x5d54494e
a080cda8:	73795320 	0x73795320
a080cdac:	206d6574 	addi	t5,v1,25972
a080cdb0:	6c6c6163 	ldr	t4,24931(v1)
a080cdb4:	696e6920 	ldl	t6,26912(t3)
a080cdb8:	6c616974 	ldr	at,26996(v1)
a080cdbc:	64657a69 	daddiu	a1,v1,31337
a080cdc0:	63757320 	daddi	s5,k1,29472
a080cdc4:	73736563 	0x73736563
a080cdc8:	6c6c7566 	ldr	t4,30054(v1)
a080cdcc:	000a2e79 	0xa2e79
a080cdd0:	495b203e 	0x495b203e
a080cdd4:	5d54494e 	0x5d54494e
a080cdd8:	42435020 	c0	0x435020
a080cddc:	696e6920 	ldl	t6,26912(t3)
a080cde0:	6c616974 	ldr	at,26996(v1)
a080cde4:	74617a69 	jalx	a185e9a4 <__bbs_end+0x1011acc>
a080cde8:	206e6f69 	addi	t6,v1,28521
a080cdec:	63637573 	daddi	v1,k1,30067
a080cdf0:	65646565 	daddiu	a0,t3,25957
a080cdf4:	000a2e64 	0xa2e64
a080cdf8:	495b203e 	0x495b203e
a080cdfc:	5d54494e 	0x5d54494e
a080ce00:	52435320 	beql	s2,v1,a0821a84 <send_package+0x19f4>
a080ce04:	204e4545 	addi	t6,v0,17733
a080ce08:	74696e69 	jalx	a1a5b9a4 <__bbs_end+0x120eacc>
a080ce0c:	696c6169 	ldl	t4,24937(t3)
a080ce10:	6974617a 	ldl	s4,24954(t3)
a080ce14:	73206e6f 	0x73206e6f
a080ce18:	65636375 	daddiu	v1,t3,25461
a080ce1c:	64656465 	daddiu	a1,v1,25701
a080ce20:	00000a2e 	0xa2e
	...
a080ce30:	6f727265 	ldr	s2,29285(k1)
a080ce34:	69732072 	ldl	s3,8306(t3)
a080ce38:	6c616e67 	ldr	at,28263(v1)
a080ce3c:	00000a2e 	0xa2e
a080ce40:	73756163 	0x73756163
a080ce44:	78253d65 	0x78253d65
a080ce48:	0000000a 	0xa
a080ce4c:	63637865 	daddi	v1,k1,30821
a080ce50:	3d65646f 	0x3d65646f
a080ce54:	000a7825 	or	t7,zero,t2
a080ce58:	76646162 	jalx	a9918588 <__bbs_end+0x90cb6b0>
a080ce5c:	72646461 	0x72646461
a080ce60:	0a78253d 	j	a9e094f4 <__bbs_end+0x95bc61c>
a080ce64:	00000000 	nop
a080ce68:	3d637065 	0x3d637065
a080ce6c:	000a7825 	or	t7,zero,t2
a080ce70:	6f727265 	ldr	s2,29285(k1)
a080ce74:	6f632072 	ldr	v1,8306(k1)
a080ce78:	7469646e 	jalx	a1a591b8 <__bbs_end+0x120c2e0>
a080ce7c:	206e6f69 	addi	t6,v1,28521
a080ce80:	6c20666f 	ldr	zero,26223(at)
a080ce84:	2e6b636f 	sltiu	t3,s3,25455
a080ce88:	0000000a 	0xa
a080ce8c:	00000000 	nop
a080ce90:	61766e69 	daddi	s6,t3,28265
a080ce94:	2064696c 	addi	a0,v1,26988
a080ce98:	756c6176 	jalx	a5b185d8 <__bbs_end+0x52cb700>
a080ce9c:	6f662065 	ldr	a2,8293(k1)
a080cea0:	65732072 	daddiu	s3,t3,8306
a080cea4:	6870616d 	ldl	s0,24941(v1)
a080cea8:	2165726f 	addi	a1,t3,29295
a080ceac:	0000000a 	0xa
a080ceb0:	4f52505b 	c3	0x152505b
a080ceb4:	53534543 	beql	k0,s3,a081e3c4 <_gp+0x8ac4>
a080ceb8:	42415420 	c0	0x415420
a080cebc:	0a5d454c 	j	a9751530 <__bbs_end+0x8f04658>
a080cec0:	00000000 	nop
a080cec4:	5d64255b 	0x5d64255b
a080cec8:	44495009 	0x44495009
a080cecc:	25203a20 	addiu	zero,t1,14880
a080ced0:	54530964 	bnel	v0,s3,a080f464 <mboxs+0xd4>
a080ced4:	53555441 	beql	k0,s5,a0821fdc <send_package+0x1f4c>
a080ced8:	00203a20 	0x203a20
a080cedc:	4e4e5552 	c3	0x4e5552
a080cee0:	0a474e49 	j	a91d3924 <__bbs_end+0x8986a4c>
a080cee4:	00000000 	nop
a080cee8:	434f4c42 	c0	0x14f4c42
a080ceec:	0a44454b 	j	a911152c <__bbs_end+0x88c4654>
a080cef0:	00000000 	nop
a080cef4:	44414552 	0x44414552
a080cef8:	00000a59 	0xa59
a080cefc:	45454c53 	0x45454c53
a080cf00:	474e4950 	c1	0x14e4950
a080cf04:	0000000a 	0xa
a080cf08:	4f525245 	c3	0x1525245
a080cf0c:	6e203a52 	ldr	zero,14930(s1)
a080cf10:	6520746f 	daddiu	zero,t1,29807
a080cf14:	67756f6e 	daddiu	s5,k1,28526
a080cf18:	6d652068 	ldr	a1,8296(t3)
a080cf1c:	20797470 	addi	t9,v1,29808
a080cf20:	2e626370 	sltiu	v0,s3,25456
a080cf24:	0000000a 	0xa
a080cf28:	64206e49 	daddiu	zero,at,28233
a080cf2c:	696b5f6f 	ldl	t3,24431(t3)
a080cf30:	29286c6c 	slti	t0,t1,27756
a080cf34:	5245202e 	beql	s2,a1,a0814ff0 <recv_package+0x4f60>
a080cf38:	3a524f52 	xori	s2,s2,0x4f52
a080cf3c:	44495020 	0x44495020
a080cf40:	746f6e20 	jalx	a1bdb880 <__bbs_end+0x138e9a8>
a080cf44:	69786520 	ldl	t8,25888(t3)
a080cf48:	2e737473 	sltiu	s3,s3,29811
a080cf4c:	0000000a 	0xa
a080cf50:	64206e49 	daddiu	zero,at,28233
a080cf54:	61775f6f 	daddi	s7,t3,24431
a080cf58:	29287469 	slti	t0,t1,29801
a080cf5c:	5245202e 	beql	s2,a1,a0815018 <recv_package+0x4f88>
a080cf60:	3a524f52 	xori	s2,s2,0x4f52
a080cf64:	6f727020 	ldr	s2,28704(k1)
a080cf68:	73736563 	0x73736563
a080cf6c:	746f6e20 	jalx	a1bdb880 <__bbs_end+0x138e9a8>
a080cf70:	69786520 	ldl	t8,25888(t3)
a080cf74:	2e737473 	sltiu	s3,s3,29811
a080cf78:	0000000a 	0xa
a080cf7c:	64206e49 	daddiu	zero,at,28233
a080cf80:	61775f6f 	daddi	s7,t3,24431
a080cf84:	29287469 	slti	t0,t1,29801
a080cf88:	5245202e 	beql	s2,a1,a0815044 <recv_package+0x4fb4>
a080cf8c:	3a524f52 	xori	s2,s2,0x4f52
a080cf90:	44495020 	0x44495020
a080cf94:	746f6e20 	jalx	a1bdb880 <__bbs_end+0x138e9a8>
a080cf98:	69786520 	ldl	t8,25888(t3)
a080cf9c:	2e737473 	sltiu	s3,s3,29811
a080cfa0:	0000000a 	0xa
	...
a080cfb0:	6f727245 	ldr	s2,29253(k1)
a080cfb4:	44202e72 	0x44202e72
a080cfb8:	746f6e6f 	jalx	a1bdb9bc <__bbs_end+0x138eae4>
a080cfbc:	76616820 	jalx	a985a080 <__bbs_end+0x900d1a8>
a080cfc0:	6e652065 	ldr	a1,8293(s3)
a080cfc4:	6867756f 	ldl	a3,30063(v1)
a080cfc8:	69616d20 	ldl	at,27936(t3)
a080cfcc:	786f626c 	0x786f626c
a080cfd0:	00000a2e 	0xa2e
	...
a080cfe0:	6b736174 	ldl	s3,24948(k1)
a080cfe4:	00000031 	tgeu	zero,zero
a080cfe8:	61726170 	daddi	s2,t3,24944
a080cfec:	7265206d 	0x7265206d
a080cff0:	2e726f72 	sltiu	s2,s3,28530
a080cff4:	0000000a 	0xa
a080cff8:	00007370 	tge	zero,zero,0x1cd
a080cffc:	0000000a 	0xa
a080d000:	61656c63 	daddi	a1,t3,27747
a080d004:	00000072 	tlt	zero,zero,0x1
a080d008:	63657865 	daddi	a1,k1,30821
a080d00c:	00000000 	nop
a080d010:	65646e55 	daddiu	a0,t3,28245
a080d014:	656e6966 	daddiu	t6,t3,26982
a080d018:	61702064 	daddi	s0,t3,8292
a080d01c:	656d6172 	daddiu	t5,t3,24946
a080d020:	2e726574 	sltiu	s2,s3,25972
a080d024:	6e6f4320 	ldr	t7,17184(s3)
a080d028:	74636174 	jalx	a18d85d0 <__bbs_end+0x108b6f8>
a080d02c:	65687420 	daddiu	t0,t3,29728
a080d030:	6d646120 	ldr	a0,24864(t3)
a080d034:	73696e69 	0x73696e69
a080d038:	74617274 	jalx	a185c9d0 <__bbs_end+0x100faf8>
a080d03c:	7420726f 	jalx	a081c9bc <_gp+0x70bc>
a080d040:	6461206f 	daddiu	at,v1,8303
a080d044:	74692064 	jalx	a1a48190 <__bbs_end+0x11fb2b8>
a080d048:	0000002e 	dneg	zero,zero
a080d04c:	63657865 	daddi	a1,k1,30821
a080d050:	6f727020 	ldr	s2,28704(k1)
a080d054:	73736563 	0x73736563
a080d058:	5d64255b 	0x5d64255b
a080d05c:	00000000 	nop
a080d060:	6c6c696b 	ldr	t4,26987(v1)
a080d064:	00000000 	nop
a080d068:	20756f59 	addi	s5,v1,28505
a080d06c:	6e6e6163 	ldr	t6,24931(s3)
a080d070:	6b20746f 	ldl	zero,29807(t9)
a080d074:	206c6c69 	addi	t4,v1,27753
a080d078:	6c646927 	ldr	a0,26919(v1)
a080d07c:	6f202765 	ldr	zero,10085(t9)
a080d080:	73272072 	0x73272072
a080d084:	6c6c6568 	ldr	t4,25960(v1)
a080d088:	00002e27 	0x2e27
a080d08c:	6c6c696b 	ldr	t4,26987(v1)
a080d090:	6f727020 	ldr	s2,28704(k1)
a080d094:	73736563 	0x73736563
a080d098:	64697020 	daddiu	t1,v1,28704
a080d09c:	0064253d 	0x64253d
a080d0a0:	73666b6d 	0x73666b6d
a080d0a4:	00000000 	nop
a080d0a8:	74617473 	jalx	a185d1cc <__bbs_end+0x10102f4>
a080d0ac:	00007366 	0x7366
a080d0b0:	69646b6d 	ldl	a0,27501(t3)
a080d0b4:	00000072 	tlt	zero,zero,0x1
a080d0b8:	61656c50 	daddi	a1,t3,27728
a080d0bc:	69206573 	ldl	zero,25971(t1)
a080d0c0:	7475706e 	jalx	a1d5c1b8 <__bbs_end+0x150f2e0>
a080d0c4:	6c696620 	ldr	t1,26144(v1)
a080d0c8:	6d616e65 	ldr	at,28261(t3)
a080d0cc:	00002e65 	0x2e65
a080d0d0:	69646d72 	ldl	a0,28018(t3)
a080d0d4:	00000072 	tlt	zero,zero,0x1
a080d0d8:	00006463 	0x6463
a080d0dc:	0000736c 	0x736c
a080d0e0:	63756f74 	daddi	s5,k1,28532
a080d0e4:	00000068 	0x68
a080d0e8:	00746163 	0x746163
a080d0ec:	65646e55 	daddiu	a0,t3,28245
a080d0f0:	656e6966 	daddiu	t6,t3,26982
a080d0f4:	6f632064 	ldr	v1,8292(k1)
a080d0f8:	6e616d6d 	ldr	at,28013(s3)
a080d0fc:	43202e64 	c0	0x1202e64
a080d100:	61746e6f 	daddi	s4,t3,28271
a080d104:	74207463 	jalx	a081d18c <_gp+0x788c>
a080d108:	61206568 	daddi	zero,t1,25960
a080d10c:	6e696d64 	ldr	t1,28004(s3)
a080d110:	72747369 	0x72747369
a080d114:	726f7461 	0x726f7461
a080d118:	206f7420 	addi	t7,v1,29728
a080d11c:	20646461 	addi	a0,v1,25697
a080d120:	002e7469 	0x2e7469
a080d124:	0000007e 	dsrl32	zero,zero,0x1
a080d128:	2d2d2d2d 	sltiu	t5,t1,11565
a080d12c:	2d2d2d2d 	sltiu	t5,t1,11565
a080d130:	2d2d2d2d 	sltiu	t5,t1,11565
a080d134:	2d2d2d2d 	sltiu	t5,t1,11565
a080d138:	2d2d2d2d 	sltiu	t5,t1,11565
a080d13c:	4d4d4f43 	0x4d4d4f43
a080d140:	2d444e41 	sltiu	a0,t2,20033
a080d144:	2d2d2d2d 	sltiu	t5,t1,11565
a080d148:	2d2d2d2d 	sltiu	t5,t1,11565
a080d14c:	2d2d2d2d 	sltiu	t5,t1,11565
a080d150:	2d2d2d2d 	sltiu	t5,t1,11565
a080d154:	0a2d2d2d 	j	a8b4b4b4 <__bbs_end+0x82fe5dc>
a080d158:	00000000 	nop
a080d15c:	6f72203e 	ldr	s2,8254(k1)
a080d160:	5540746f 	bnezl	t2,a082a320 <send_package+0xa290>
a080d164:	5f534143 	0x5f534143
a080d168:	003a534f 	0x3a534f
a080d16c:	00002024 	and	a0,zero,zero
a080d170:	20202020 	addi	zero,at,8224
a080d174:	20202020 	addi	zero,at,8224
a080d178:	20202020 	addi	zero,at,8224
a080d17c:	20202020 	addi	zero,at,8224
a080d180:	20202020 	addi	zero,at,8224
a080d184:	20202020 	addi	zero,at,8224
a080d188:	20202020 	addi	zero,at,8224
a080d18c:	20202020 	addi	zero,at,8224
a080d190:	20202020 	addi	zero,at,8224
a080d194:	20202020 	addi	zero,at,8224
a080d198:	20202020 	addi	zero,at,8224
a080d19c:	20202020 	addi	zero,at,8224
a080d1a0:	20202020 	addi	zero,at,8224
a080d1a4:	20202020 	addi	zero,at,8224
a080d1a8:	20202020 	addi	zero,at,8224
a080d1ac:	20202020 	addi	zero,at,8224
a080d1b0:	20202020 	addi	zero,at,8224
a080d1b4:	20202020 	addi	zero,at,8224
	...
a080d1c0:	78742e31 	0x78742e31
a080d1c4:	00000074 	teq	zero,zero,0x1
a080d1c8:	6c6c6568 	ldr	t4,25960(v1)
a080d1cc:	6f77206f 	ldr	s7,8303(k1)
a080d1d0:	21646c72 	addi	a0,t3,27762
a080d1d4:	0000000a 	0xa
a080d1d8:	00006325 	0x6325
a080d1dc:	00000000 	nop
a080d1e0:	6f727265 	ldr	s2,29285(k1)
a080d1e4:	61202e72 	daddi	zero,t1,11890
a080d1e8:	79617272 	0x79617272
a080d1ec:	65766f20 	daddiu	s6,t3,28448
a080d1f0:	6f6c6672 	ldr	t4,26226(k1)
a080d1f4:	000a2e77 	0xa2e77
a080d1f8:	5d53465b 	0x5d53465b
a080d1fc:	65684320 	daddiu	t0,t3,17184
a080d200:	6e696b63 	ldr	t1,27491(s3)
a080d204:	69662067 	ldl	a2,8295(t3)
a080d208:	7320656c 	0x7320656c
a080d20c:	65747379 	daddiu	s4,t3,29561
a080d210:	2e2e2e6d 	sltiu	t6,s1,11885
a080d214:	0000000a 	0xa
a080d218:	5d53465b 	0x5d53465b
a080d21c:	6c694620 	ldr	t1,17952(v1)
a080d220:	79732065 	0x79732065
a080d224:	6d657473 	ldr	a1,29811(t3)
a080d228:	20736920 	addi	s3,v1,26912
a080d22c:	65726c61 	daddiu	s2,t3,27745
a080d230:	20796461 	addi	t9,v1,25697
a080d234:	74746573 	jalx	a1d195cc <__bbs_end+0x14cc6f4>
a080d238:	75206465 	jalx	a4819194 <__bbs_end+0x3fcc2bc>
a080d23c:	000a2e70 	tge	zero,t2,0xb9
a080d240:	5d53465b 	0x5d53465b
a080d244:	61745320 	daddi	s4,t3,21280
a080d248:	69207472 	ldl	zero,29810(t1)
a080d24c:	6974696e 	ldl	s4,26990(t3)
a080d250:	7a696c61 	0x7a696c61
a080d254:	69662065 	ldl	a2,8293(t3)
a080d258:	7320656c 	0x7320656c
a080d25c:	65747379 	daddiu	s4,t3,29561
a080d260:	000a216d 	0xa216d
a080d264:	5d53465b 	0x5d53465b
a080d268:	74655320 	jalx	a1954c80 <__bbs_end+0x1107da8>
a080d26c:	676e6974 	daddiu	t6,k1,26996
a080d270:	70757320 	0x70757320
a080d274:	6c627265 	ldr	v0,29285(v1)
a080d278:	2e6b636f 	sltiu	t3,s3,25455
a080d27c:	000a2e2e 	0xa2e2e
a080d280:	20202020 	addi	zero,at,8224
a080d284:	67616d20 	daddiu	at,k1,27936
a080d288:	203a6369 	addi	k0,at,25449
a080d28c:	000a7825 	or	t7,zero,t2
a080d290:	20202020 	addi	zero,at,8224
a080d294:	7a697320 	0x7a697320
a080d298:	6e692065 	ldr	t1,8293(s3)
a080d29c:	6f6c6220 	ldr	t4,25120(k1)
a080d2a0:	203a6b63 	addi	k0,at,27491
a080d2a4:	62206425 	daddi	zero,s1,25637
a080d2a8:	6b636f6c 	ldl	v1,28524(k1)
a080d2ac:	73202c73 	0x73202c73
a080d2b0:	74726174 	jalx	a1c985d0 <__bbs_end+0x144b6f8>
a080d2b4:	63657320 	daddi	a1,k1,29472
a080d2b8:	3a726f74 	xori	s2,s3,0x6f74
a080d2bc:	0a642520 	j	a9909480 <__bbs_end+0x90bc5a8>
a080d2c0:	00000000 	nop
a080d2c4:	20202020 	addi	zero,at,8224
a080d2c8:	6f6c6220 	ldr	t4,25120(k1)
a080d2cc:	6d206b63 	ldr	zero,27491(t1)
a080d2d0:	6f207061 	ldr	zero,28769(t9)
a080d2d4:	65736666 	daddiu	s3,t3,26214
a080d2d8:	25203a74 	addiu	zero,t1,14964
a080d2dc:	00000a64 	0xa64
a080d2e0:	20202020 	addi	zero,at,8224
a080d2e4:	6f6e6920 	ldr	t6,26912(k1)
a080d2e8:	6d206564 	ldr	zero,25956(t1)
a080d2ec:	6f207061 	ldr	zero,28769(t9)
a080d2f0:	65736666 	daddiu	s3,t3,26214
a080d2f4:	25203a74 	addiu	zero,t1,14964
a080d2f8:	00000a64 	0xa64
a080d2fc:	20202020 	addi	zero,at,8224
a080d300:	6f6e6920 	ldr	t6,26912(k1)
a080d304:	6f206564 	ldr	zero,25956(t9)
a080d308:	65736666 	daddiu	s3,t3,26214
a080d30c:	25203a74 	addiu	zero,t1,14964
a080d310:	00000a64 	0xa64
a080d314:	20202020 	addi	zero,at,8224
a080d318:	74616420 	jalx	a1859080 <__bbs_end+0x100c1a8>
a080d31c:	666f2061 	daddiu	t7,s3,8289
a080d320:	74657366 	jalx	a195cd98 <__bbs_end+0x110fec0>
a080d324:	6425203a 	daddiu	a1,at,8250
a080d328:	0000000a 	0xa
a080d32c:	20202020 	addi	zero,at,8224
a080d330:	6f6e6920 	ldr	t6,26912(k1)
a080d334:	65206564 	daddiu	zero,t1,25956
a080d338:	7972746e 	0x7972746e
a080d33c:	7a697320 	0x7a697320
a080d340:	25203a65 	addiu	zero,t1,14949
a080d344:	64202c64 	daddiu	zero,at,11364
a080d348:	65207269 	daddiu	zero,t1,29289
a080d34c:	7972746e 	0x7972746e
a080d350:	7a697320 	0x7a697320
a080d354:	25203a65 	addiu	zero,t1,14949
a080d358:	00000a64 	0xa64
a080d35c:	5d53465b 	0x5d53465b
a080d360:	74655320 	jalx	a1954c80 <__bbs_end+0x1107da8>
a080d364:	676e6974 	daddiu	t6,k1,26996
a080d368:	6f6c6220 	ldr	t4,25120(k1)
a080d36c:	6d2d6b63 	ldr	t5,27491(t1)
a080d370:	2e2e7061 	sltiu	t6,s1,28769
a080d374:	00000a2e 	0xa2e
a080d378:	5d53465b 	0x5d53465b
a080d37c:	74655320 	jalx	a1954c80 <__bbs_end+0x1107da8>
a080d380:	676e6974 	daddiu	t6,k1,26996
a080d384:	6f6e6920 	ldr	t6,26912(k1)
a080d388:	6d2d6564 	ldr	t5,25956(t1)
a080d38c:	2e2e7061 	sltiu	t6,s1,28769
a080d390:	00000a2e 	0xa2e
a080d394:	5d53465b 	0x5d53465b
a080d398:	74655320 	jalx	a1954c80 <__bbs_end+0x1107da8>
a080d39c:	676e6974 	daddiu	t6,k1,26996
a080d3a0:	6f6e6920 	ldr	t6,26912(k1)
a080d3a4:	2e2e6564 	sltiu	t6,s1,25956
a080d3a8:	00000a2e 	0xa2e
a080d3ac:	0000007e 	dsrl32	zero,zero,0x1
a080d3b0:	5d53465b 	0x5d53465b
a080d3b4:	74655320 	jalx	a1954c80 <__bbs_end+0x1107da8>
a080d3b8:	676e6974 	daddiu	t6,k1,26996
a080d3bc:	6c696620 	ldr	t1,26144(v1)
a080d3c0:	73797365 	0x73797365
a080d3c4:	206d6574 	addi	t5,v1,25972
a080d3c8:	696e6966 	ldl	t6,26982(t3)
a080d3cc:	64656873 	daddiu	a1,v1,26739
a080d3d0:	00000a21 	0xa21
a080d3d4:	6967616d 	ldl	a3,24941(t3)
a080d3d8:	25203a63 	addiu	zero,t1,14947
a080d3dc:	00000a78 	dsll	at,zero,0x9
a080d3e0:	64657375 	daddiu	a1,v1,29557
a080d3e4:	6f6c6220 	ldr	t4,25120(k1)
a080d3e8:	3a736b63 	xori	s3,s3,0x6b63
a080d3ec:	2f642520 	sltiu	a0,k1,9504
a080d3f0:	202c6425 	addi	t4,at,25637
a080d3f4:	72617473 	0x72617473
a080d3f8:	65732074 	daddiu	s3,t3,8308
a080d3fc:	726f7463 	0x726f7463
a080d400:	6425203a 	daddiu	a1,at,8250
a080d404:	29782528 	slti	t8,t3,9512
a080d408:	0000000a 	0xa
a080d40c:	646f6e69 	daddiu	t7,v1,28265
a080d410:	616d2065 	daddi	t5,t3,8293
a080d414:	666f2070 	daddiu	t7,s3,8304
a080d418:	74657366 	jalx	a195cd98 <__bbs_end+0x110fec0>
a080d41c:	6425203a 	daddiu	a1,at,8250
a080d420:	636f202c 	daddi	t7,k1,8236
a080d424:	69707563 	ldl	s0,30051(t3)
a080d428:	62206465 	daddi	zero,s1,25701
a080d42c:	6b636f6c 	ldl	v1,28524(k1)
a080d430:	6425203a 	daddiu	a1,at,8250
a080d434:	7375202c 	0x7375202c
a080d438:	203a6465 	addi	k0,at,25701
a080d43c:	252f6425 	addiu	t7,t1,25637
a080d440:	00000a64 	0xa64
a080d444:	636f6c62 	daddi	t7,k1,27746
a080d448:	616d206b 	daddi	t5,t3,8299
a080d44c:	666f2070 	daddiu	t7,s3,8304
a080d450:	74657366 	jalx	a195cd98 <__bbs_end+0x110fec0>
a080d454:	6425203a 	daddiu	a1,at,8250
a080d458:	636f202c 	daddi	t7,k1,8236
a080d45c:	69707563 	ldl	s0,30051(t3)
a080d460:	62206465 	daddi	zero,s1,25701
a080d464:	6b636f6c 	ldl	v1,28524(k1)
a080d468:	6425203a 	daddiu	a1,at,8250
a080d46c:	0000000a 	0xa
a080d470:	646f6e69 	daddiu	t7,v1,28265
a080d474:	666f2065 	daddiu	t7,s3,8293
a080d478:	74657366 	jalx	a195cd98 <__bbs_end+0x110fec0>
a080d47c:	6425203a 	daddiu	a1,at,8250
a080d480:	636f202c 	daddi	t7,k1,8236
a080d484:	69707563 	ldl	s0,30051(t3)
a080d488:	62206465 	daddi	zero,s1,25701
a080d48c:	6b636f6c 	ldl	v1,28524(k1)
a080d490:	6425203a 	daddiu	a1,at,8250
a080d494:	0000000a 	0xa
a080d498:	61746164 	daddi	s4,t3,24932
a080d49c:	66666f20 	daddiu	a2,s3,28448
a080d4a0:	3a746573 	xori	s4,s3,0x6573
a080d4a4:	2c642520 	sltiu	a0,v1,9504
a080d4a8:	63636f20 	daddi	v1,k1,28448
a080d4ac:	65697075 	daddiu	t1,t3,28789
a080d4b0:	6c622064 	ldr	v0,8292(v1)
a080d4b4:	3a6b636f 	xori	t3,s3,0x636f
a080d4b8:	0a642520 	j	a9909480 <__bbs_end+0x90bc5a8>
a080d4bc:	00000000 	nop
a080d4c0:	646f6e69 	daddiu	t7,v1,28265
a080d4c4:	6e652065 	ldr	a1,8293(s3)
a080d4c8:	20797274 	addi	t9,v1,29300
a080d4cc:	657a6973 	daddiu	k0,t3,26995
a080d4d0:	6425203a 	daddiu	a1,at,8250
a080d4d4:	6964202c 	ldl	a0,8236(t3)
a080d4d8:	6e652072 	ldr	a1,8306(s3)
a080d4dc:	20797274 	addi	t9,v1,29300
a080d4e0:	657a6973 	daddiu	k0,t3,26995
a080d4e4:	6425203a 	daddiu	a1,at,8250
a080d4e8:	0000000a 	0xa
a080d4ec:	656c6966 	daddiu	t4,t3,26982
a080d4f0:	73797320 	0x73797320
a080d4f4:	206d6574 	addi	t5,v1,25972
a080d4f8:	20736168 	addi	s3,v1,24936
a080d4fc:	20746f6e 	addi	s4,v1,28526
a080d500:	6e656562 	ldr	a1,25954(s3)
a080d504:	74736520 	jalx	a1cd9480 <__bbs_end+0x148c5a8>
a080d508:	696c6261 	ldl	t4,25185(t3)
a080d50c:	64656873 	daddiu	a1,v1,26739
a080d510:	74657920 	jalx	a195e480 <__bbs_end+0x11115a8>
a080d514:	00000a2e 	0xa2e
a080d518:	6f727245 	ldr	s2,29253(k1)
a080d51c:	46202172 	c1	0x202172
a080d520:	20656c69 	addi	a1,v1,27753
a080d524:	746d7953 	jalx	a1b5e54c <__bbs_end+0x1311674>
a080d528:	64206d65 	daddiu	zero,at,28005
a080d52c:	6e73656f 	ldr	s3,25967(s3)
a080d530:	65207427 	daddiu	zero,t1,29735
a080d534:	74736978 	jalx	a1cda5e0 <__bbs_end+0x148d708>
a080d538:	00000a2e 	0xa2e
a080d53c:	4f525245 	c3	0x1525245
a080d540:	70202c52 	0x70202c52
a080d544:	6e657261 	ldr	a1,29281(s3)
a080d548:	79742074 	0x79742074
a080d54c:	69206570 	ldl	zero,25968(t1)
a080d550:	69662073 	ldl	a2,8307(t3)
a080d554:	002e656c 	0x2e656c
a080d558:	65726964 	daddiu	s2,t3,26980
a080d55c:	726f7463 	0x726f7463
a080d560:	61682079 	daddi	t0,t3,8313
a080d564:	6c612073 	ldr	at,8307(v1)
a080d568:	64616572 	daddiu	at,v1,25970
a080d56c:	73652079 	0x73652079
a080d570:	6c626174 	ldr	v0,24948(v1)
a080d574:	65687369 	daddiu	t0,t3,29545
a080d578:	000a2e64 	0xa2e64
a080d57c:	6f727265 	ldr	s2,29285(k1)
a080d580:	6e202e72 	ldr	zero,11890(s1)
a080d584:	6520746f 	daddiu	zero,t1,29807
a080d588:	67756f6e 	daddiu	s5,k1,28526
a080d58c:	6e692068 	ldr	t1,8296(s3)
a080d590:	2065646f 	addi	a1,v1,25711
a080d594:	20726f66 	addi	s2,v1,28518
a080d598:	2077656e 	addi	s7,v1,25966
a080d59c:	65726964 	daddiu	s2,t3,26980
a080d5a0:	726f7463 	0x726f7463
a080d5a4:	000a2e79 	0xa2e79
a080d5a8:	6f727265 	ldr	s2,29285(k1)
a080d5ac:	6e202e72 	ldr	zero,11890(s1)
a080d5b0:	6520746f 	daddiu	zero,t1,29807
a080d5b4:	67756f6e 	daddiu	s5,k1,28526
a080d5b8:	6c622068 	ldr	v0,8296(v1)
a080d5bc:	206b636f 	addi	t3,v1,25455
a080d5c0:	20726f66 	addi	s2,v1,28518
a080d5c4:	2077656e 	addi	s7,v1,25966
a080d5c8:	65726964 	daddiu	s2,t3,26980
a080d5cc:	726f7463 	0x726f7463
a080d5d0:	726f2079 	0x726f2079
a080d5d4:	6c696620 	ldr	t1,26144(v1)
a080d5d8:	000a2e65 	0xa2e65
a080d5dc:	4f525245 	c3	0x1525245
a080d5e0:	2e2e2e52 	sltiu	t6,s1,11858
a080d5e4:	000a2e2e 	0xa2e2e
a080d5e8:	5d53465b 	0x5d53465b
a080d5ec:	646b6d20 	daddiu	t3,v1,27936
a080d5f0:	73207269 	0x73207269
a080d5f4:	65636375 	daddiu	v1,t3,25461
a080d5f8:	0a216465 	j	a8859194 <__bbs_end+0x800c2bc>
a080d5fc:	00000000 	nop
a080d600:	6f727265 	ldr	s2,29285(k1)
a080d604:	64202e72 	daddiu	zero,at,11890
a080d608:	63657269 	daddi	a1,k1,29289
a080d60c:	79726f74 	0x79726f74
a080d610:	656f6420 	daddiu	t7,t3,25632
a080d614:	74276e73 	jalx	a09db9cc <__bbs_end+0x18eaf4>
a080d618:	69786520 	ldl	t8,25888(t3)
a080d61c:	0a2e7473 	j	a8b9d1cc <__bbs_end+0x83502f4>
a080d620:	00000000 	nop
a080d624:	5d53465b 	0x5d53465b
a080d628:	646d7220 	daddiu	t5,v1,29216
a080d62c:	73207269 	0x73207269
a080d630:	65636375 	daddiu	v1,t3,25461
a080d634:	0a216465 	j	a8859194 <__bbs_end+0x800c2bc>
a080d638:	00000000 	nop
a080d63c:	00002e2e 	0x2e2e
a080d640:	0000002e 	dneg	zero,zero
a080d644:	6f727265 	ldr	s2,29285(k1)
a080d648:	69202c72 	ldl	zero,11378(t1)
a080d64c:	6c61766e 	ldr	at,30318(v1)
a080d650:	70206469 	0x70206469
a080d654:	2e687461 	sltiu	t0,s3,29793
a080d658:	0000000a 	0xa
a080d65c:	20206425 	addi	zero,at,25637
a080d660:	00000000 	nop
a080d664:	656c6966 	daddiu	t4,t3,26982
a080d668:	00002020 	add	a0,zero,zero
a080d66c:	20726964 	addi	s2,v1,26980
a080d670:	00002020 	add	a0,zero,zero
a080d674:	0000000a 	0xa
a080d678:	656c6966 	daddiu	t4,t3,26982
a080d67c:	73616820 	0x73616820
a080d680:	726c6120 	0x726c6120
a080d684:	79646165 	0x79646165
a080d688:	74736520 	jalx	a1cd9480 <__bbs_end+0x148c5a8>
a080d68c:	696c6261 	ldl	t4,25185(t3)
a080d690:	64656873 	daddiu	a1,v1,26739
a080d694:	00000a2e 	0xa2e
a080d698:	6f727265 	ldr	s2,29285(k1)
a080d69c:	6e202e72 	ldr	zero,11890(s1)
a080d6a0:	6520746f 	daddiu	zero,t1,29807
a080d6a4:	67756f6e 	daddiu	s5,k1,28526
a080d6a8:	6e692068 	ldr	t1,8296(s3)
a080d6ac:	2065646f 	addi	a1,v1,25711
a080d6b0:	20726f66 	addi	s2,v1,28518
a080d6b4:	2077656e 	addi	s7,v1,25966
a080d6b8:	656c6966 	daddiu	t4,t3,26982
a080d6bc:	00000a2e 	0xa2e
a080d6c0:	5d53465b 	0x5d53465b
a080d6c4:	756f7420 	jalx	a5bdd080 <__bbs_end+0x53901a8>
a080d6c8:	73206863 	0x73206863
a080d6cc:	65636375 	daddiu	v1,t3,25461
a080d6d0:	0a216465 	j	a8859194 <__bbs_end+0x800c2bc>
a080d6d4:	00000000 	nop
a080d6d8:	6f727265 	ldr	s2,29285(k1)
a080d6dc:	66202e72 	daddiu	zero,s1,11890
a080d6e0:	20656c69 	addi	a1,v1,27753
a080d6e4:	73656f64 	0x73656f64
a080d6e8:	2074276e 	addi	s4,v1,10094
a080d6ec:	73697865 	0x73697865
a080d6f0:	000a2e74 	teq	zero,t2,0xb9
a080d6f4:	4f525245 	c3	0x1525245
a080d6f8:	6e202e52 	ldr	zero,11858(s1)
a080d6fc:	7320746f 	0x7320746f
a080d700:	6f707075 	ldr	s0,28789(k1)
a080d704:	6d207472 	ldr	zero,29810(t1)
a080d708:	69746c75 	ldl	s4,27765(t3)
a080d70c:	6f6c622d 	ldr	t4,25133(k1)
a080d710:	63206b63 	daddi	zero,t9,27491
a080d714:	0a2e7461 	j	a8b9d184 <__bbs_end+0x83502ac>
a080d718:	00000000 	nop
a080d71c:	00006325 	0x6325
a080d720:	6f727265 	ldr	s2,29285(k1)
a080d724:	6e202e72 	ldr	zero,11890(s1)
a080d728:	6520746f 	daddiu	zero,t1,29807
a080d72c:	67756f6e 	daddiu	s5,k1,28526
a080d730:	69662068 	ldl	a2,8296(t3)
a080d734:	6420656c 	daddiu	zero,at,25964
a080d738:	72637365 	0x72637365
a080d73c:	6f747069 	ldr	s4,28777(k1)
a080d740:	000a2e72 	tlt	zero,t2,0xb9
a080d744:	4f525245 	c3	0x1525245
a080d748:	74202e52 	jalx	a080b948 <do_touch+0x544>
a080d74c:	20736968 	addi	s3,v1,26984
a080d750:	69206466 	ldl	zero,25702(t1)
a080d754:	6e692073 	ldr	t1,8307(s3)
a080d758:	696c6176 	ldl	t4,24950(t3)
a080d75c:	000a2e64 	0xa2e64
a080d760:	4f525245 	c3	0x1525245
a080d764:	72202e52 	0x72202e52
a080d768:	20646165 	addi	a0,v1,24933
a080d76c:	6e696f70 	ldr	t1,28528(s3)
a080d770:	20726574 	addi	s2,v1,25972
a080d774:	7265766f 	0x7265766f
a080d778:	776f6c66 	jalx	adbdb198 <__bbs_end+0xd38e2c0>
a080d77c:	0031302d 	daddu	a2,at,s1
a080d780:	4f525245 	c3	0x1525245
a080d784:	72202e52 	0x72202e52
a080d788:	20646165 	addi	a0,v1,24933
a080d78c:	7265766f 	0x7265766f
a080d790:	776f6c66 	jalx	adbdb198 <__bbs_end+0xd38e2c0>
a080d794:	2e32302d 	sltiu	s2,s1,12333
a080d798:	0000000a 	0xa
a080d79c:	4f525245 	c3	0x1525245
a080d7a0:	72202e52 	0x72202e52
a080d7a4:	20646165 	addi	a0,v1,24933
a080d7a8:	7265766f 	0x7265766f
a080d7ac:	776f6c66 	jalx	adbdb198 <__bbs_end+0xd38e2c0>
a080d7b0:	2e33302d 	sltiu	s3,s1,12333
a080d7b4:	0000000a 	0xa
a080d7b8:	4f525245 	c3	0x1525245
a080d7bc:	74202e52 	jalx	a080b948 <do_touch+0x544>
a080d7c0:	20736968 	addi	s3,v1,26984
a080d7c4:	656c6966 	daddiu	t4,t3,26982
a080d7c8:	20736920 	addi	s3,v1,26912
a080d7cc:	64616572 	daddiu	at,v1,25970
a080d7d0:	6c6e6f20 	ldr	t6,28448(v1)
a080d7d4:	000a2e79 	0xa2e79
a080d7d8:	4f525245 	c3	0x1525245
a080d7dc:	77202e52 	jalx	ac80b948 <__bbs_end+0xbfbea70>
a080d7e0:	65746972 	daddiu	s4,t3,26994
a080d7e4:	696f7020 	ldl	t7,28704(t3)
a080d7e8:	7265746e 	0x7265746e
a080d7ec:	65766f20 	daddiu	s6,t3,28448
a080d7f0:	6f6c6672 	ldr	t4,26226(k1)
a080d7f4:	31302d77 	andi	s0,t1,0x2d77
a080d7f8:	00000000 	nop
a080d7fc:	4f525245 	c3	0x1525245
a080d800:	77202e52 	jalx	ac80b948 <__bbs_end+0xbfbea70>
a080d804:	65746972 	daddiu	s4,t3,26994
a080d808:	65766f20 	daddiu	s6,t3,28448
a080d80c:	6f6c6672 	ldr	t4,26226(k1)
a080d810:	32302d77 	andi	s0,s1,0x2d77
a080d814:	00000a2e 	0xa2e
a080d818:	4f525245 	c3	0x1525245
a080d81c:	77202e52 	jalx	ac80b948 <__bbs_end+0xbfbea70>
a080d820:	65746972 	daddiu	s4,t3,26994
a080d824:	65766f20 	daddiu	s6,t3,28448
a080d828:	6f6c6672 	ldr	t4,26226(k1)
a080d82c:	33302d77 	andi	s0,t9,0x2d77
a080d830:	00000a2e 	0xa2e
	...
a080d840:	fffffffe 	sd	ra,-2(ra)
	...
